
dump_preloader.bin:     file format binary


Disassembly of section .data:

70000000 <.data>:
70000000:	4d4d      	ldr	r5, [pc, #308]	@ (0x70000138)
70000002:	014d      	lsls	r5, r1, #5
70000004:	0038      	movs	r0, r7
70000006:	0000      	movs	r0, r0
70000008:	4946      	ldr	r1, [pc, #280]	@ (0x70000124)
7000000a:	454c      	cmp	r4, r9
7000000c:	495f      	ldr	r1, [pc, #380]	@ (0x7000018c)
7000000e:	464e      	mov	r6, r9
70000010:	004f      	lsls	r7, r1, #1
70000012:	0000      	movs	r0, r0
70000014:	0001      	movs	r1, r0
70000016:	0000      	movs	r0, r0
70000018:	0001      	movs	r1, r0
7000001a:	0107      	lsls	r7, r0, #4
7000001c:	6000      	str	r0, [r0, #0]
7000001e:	7000      	strb	r0, [r0, #0]
70000020:	1eac      	subs	r4, r5, #2
70000022:	0000      	movs	r0, r0
70000024:	ffff ffff 			@ <UNDEFINED> instruction: 0xffffffff
70000028:	0140      	lsls	r0, r0, #5
7000002a:	0000      	movs	r0, r0
7000002c:	0020      	movs	r0, r4
7000002e:	0000      	movs	r0, r0
70000030:	0140      	lsls	r0, r0, #5
70000032:	0000      	movs	r0, r0
70000034:	0001      	movs	r1, r0
70000036:	0000      	movs	r0, r0
70000038:	4d4d      	ldr	r5, [pc, #308]	@ (0x70000170)
7000003a:	034d      	lsls	r5, r1, #13
7000003c:	0064      	lsls	r4, r4, #1
7000003e:	0007      	movs	r7, r0
70000040:	0002      	movs	r2, r0
70000042:	0000      	movs	r0, r0
70000044:	0bb8      	lsrs	r0, r7, #14
	...
7000009a:	0000      	movs	r0, r0
7000009c:	4d4d      	ldr	r5, [pc, #308]	@ (0x700001d4)
7000009e:	014d      	lsls	r5, r1, #5
700000a0:	000c      	movs	r4, r1
700000a2:	0001      	movs	r1, r0
700000a4:	0001      	movs	r1, r0
700000a6:	0000      	movs	r0, r0
700000a8:	4d4d      	ldr	r5, [pc, #308]	@ (0x700001e0)
700000aa:	014d      	lsls	r5, r1, #5
700000ac:	001c      	movs	r4, r3
700000ae:	0209      	lsls	r1, r1, #8
700000b0:	0001      	movs	r1, r0
700000b2:	0000      	movs	r0, r0
700000b4:	0560      	lsls	r0, r4, #21
	...
700000c2:	0000      	movs	r0, r0
700000c4:	4d4d      	ldr	r5, [pc, #308]	@ (0x700001fc)
700000c6:	054d      	lsls	r5, r1, #21
700000c8:	004c      	lsls	r4, r1, #1
700000ca:	0101      	lsls	r1, r0, #4
700000cc:	0005      	movs	r5, r0
700000ce:	0000      	movs	r0, r0
700000d0:	0000      	movs	r0, r0
700000d2:	0100      	lsls	r0, r0, #4
700000d4:	4d45      	ldr	r5, [pc, #276]	@ (0x700001ec)
700000d6:	5f49      	ldrsh	r1, [r1, r5]
700000d8:	4e49      	ldr	r6, [pc, #292]	@ (0x70000200)
700000da:	0046      	lsls	r6, r0, #1
700000dc:	0011      	movs	r1, r2
700000de:	0000      	movs	r0, r0
700000e0:	0001      	movs	r1, r0
	...
700000fe:	0000      	movs	r0, r0
70000100:	0001      	movs	r1, r0
70000102:	0001      	movs	r1, r0
70000104:	0001      	movs	r1, r0
70000106:	0001      	movs	r1, r0
70000108:	5000      	str	r0, [r0, r0]
7000010a:	0000      	movs	r0, r0
7000010c:	1001      	asrs	r1, r0, #32
7000010e:	0000      	movs	r0, r0
70000110:	4d4d      	ldr	r5, [pc, #308]	@ (0x70000248)
70000112:	014d      	lsls	r5, r1, #5
70000114:	0030      	movs	r0, r6
70000116:	0008      	movs	r0, r1
70000118:	0003      	movs	r3, r0
7000011a:	0000      	movs	r0, r0
7000011c:	544d      	strb	r5, [r1, r1]
7000011e:	004b      	lsls	r3, r1, #1
	...
70000140:	0013      	movs	r3, r2
70000142:	ea00 fffe 			@ <UNDEFINED> instruction: 0xea00fffe
70000146:	eaff fffe 			@ <UNDEFINED> instruction: 0xeafffffe
7000014a:	eaff fffe 			@ <UNDEFINED> instruction: 0xeafffffe
7000014e:	eaff fffe 			@ <UNDEFINED> instruction: 0xeafffffe
70000152:	eaff fffe 			@ <UNDEFINED> instruction: 0xeafffffe
70000156:	eaff fffe 			@ <UNDEFINED> instruction: 0xeafffffe
7000015a:	eaff fffe 			@ <UNDEFINED> instruction: 0xeafffffe
7000015e:	eaff 0020 			@ <UNDEFINED> instruction: 0xeaff0020
	...
70000182:	0000      	movs	r0, r0
70000184:	9ffc      	ldr	r7, [sp, #1008]	@ 0x3f0
70000186:	7000      	strb	r0, [r0, #0]
70000188:	9000      	str	r0, [sp, #0]
7000018a:	7000      	strb	r0, [r0, #0]
7000018c:	a000      	add	r0, pc, #0	@ (adr r0, 0x70000190)
7000018e:	7000      	strb	r0, [r0, #0]
70000190:	7df4      	ldrb	r4, [r6, #23]
70000192:	7000      	strb	r0, [r0, #0]
70000194:	0000      	movs	r0, r0
70000196:	e10f      	b.n	0x700003b8
70000198:	00c0      	lsls	r0, r0, #3
7000019a:	e380      	b.n	0x7000089e
7000019c:	f000 e12f 	bfcsel	0, 0x700003fc, 2, eq
700001a0:	a004      	add	r0, pc, #16	@ (adr r0, 0x700001b4)
700001a2:	e1a0      	b.n	0x700004e6
700001a4:	00b2      	lsls	r2, r6, #2
700001a6:	fb00 00b0 			@ <UNDEFINED> instruction: 0xfb0000b0
700001aa:	fb00 0030 			@ <UNDEFINED> instruction: 0xfb000030
700001ae:	e51f      	b.n	0x6ffffbf0
700001b0:	d000      	beq.n	0x700001b4
700001b2:	e1a0      	b.n	0x700004f6
700001b4:	005b      	lsls	r3, r3, #1
700001b6:	fa00 00ad 			@ <UNDEFINED> instruction: 0xfa0000ad
700001ba:	fa00 0557 			@ <UNDEFINED> instruction: 0xfa000557
700001be:	eb00 0032 	add.w	r0, r0, r2, rrx
700001c2:	fa00 103c 			@ <UNDEFINED> instruction: 0xfa00103c
700001c6:	e51f      	b.n	0x6ffffc08
700001c8:	0000      	movs	r0, r0
700001ca:	e581      	b.n	0x6ffffcd0
700001cc:	000a      	movs	r2, r1
700001ce:	e1a0      	b.n	0x70000512
700001d0:	0012      	movs	r2, r2
700001d2:	fb00 00a8 			@ <UNDEFINED> instruction: 0xfb0000a8
700001d6:	fa00 0025 			@ <UNDEFINED> instruction: 0xfa000025
700001da:	fa00 b000 			@ <UNDEFINED> instruction: 0xfa00b000
700001de:	e1a0      	b.n	0x70000522
700001e0:	0541      	lsls	r1, r0, #21
700001e2:	eb00 000b 	add.w	r0, r0, fp
700001e6:	e1a0      	b.n	0x7000052a
700001e8:	100a      	asrs	r2, r1, #32
700001ea:	e1a0      	b.n	0x7000052e
700001ec:	0028      	movs	r0, r5
700001ee:	fa00 001e 			@ <UNDEFINED> instruction: 0xfa00001e
700001f2:	fa00 007d 			@ <UNDEFINED> instruction: 0xfa00007d
700001f6:	fa00 0001 			@ <UNDEFINED> instruction: 0xfa000001
700001fa:	e370      	b.n	0x700008de
700001fc:	0004      	movs	r4, r0
700001fe:	0a00      	lsrs	r0, r0, #8
70000200:	4000      	ands	r0, r0
70000202:	e1a0      	b.n	0x70000546
70000204:	009b      	lsls	r3, r3, #2
70000206:	fa00 0000 			@ <UNDEFINED> instruction: 0xfa000000
7000020a:	e350      	b.n	0x700008ae
7000020c:	0004      	movs	r4, r0
7000020e:	e1a0      	b.n	0x70000552
70000210:	0045      	lsls	r5, r0, #1
70000212:	1b00      	subs	r0, r0, r4
70000214:	0095      	lsls	r5, r2, #2
70000216:	fa00 fffd 			@ <UNDEFINED> instruction: 0xfa00fffd
7000021a:	eaff 4811 			@ <UNDEFINED> instruction: 0xeaff4811
7000021e:	7800      	ldrb	r0, [r0, #0]
70000220:	4770      	bx	lr
70000222:	b510      	push	{r4, lr}
70000224:	4910      	ldr	r1, [pc, #64]	@ (0x70000268)
70000226:	4a11      	ldr	r2, [pc, #68]	@ (0x7000026c)
70000228:	2400      	movs	r4, #0
7000022a:	6091      	str	r1, [r2, #8]
7000022c:	490d      	ldr	r1, [pc, #52]	@ (0x70000264)
7000022e:	2211      	movs	r2, #17
70000230:	01d2      	lsls	r2, r2, #7
70000232:	1880      	adds	r0, r0, r2
70000234:	700c      	strb	r4, [r1, #0]
70000236:	6a80      	ldr	r0, [r0, #40]	@ 0x28
70000238:	0780      	lsls	r0, r0, #30
7000023a:	d501      	bpl.n	0x70000240
7000023c:	2401      	movs	r4, #1
7000023e:	700c      	strb	r4, [r1, #0]
70000240:	f000 face 	bl	0x700007e0
70000244:	2000      	movs	r0, #0
70000246:	f000 fa3f 	bl	0x700006c8
7000024a:	f000 fd8b 	bl	0x70000d64
7000024e:	f000 fb17 	bl	0x70000880
70000252:	0020      	movs	r0, r4
70000254:	f000 ff6a 	bl	0x7000112c
70000258:	f000 fe06 	bl	0x70000e68
7000025c:	f000 fb34 	bl	0x700008c8
70000260:	bd10      	pop	{r4, pc}
70000262:	0000      	movs	r0, r0
70000264:	4fb0      	ldr	r7, [pc, #704]	@ (0x70000528)
70000266:	7000      	strb	r0, [r0, #0]
70000268:	1971      	adds	r1, r6, r5
7000026a:	0000      	movs	r0, r0
7000026c:	0000      	movs	r0, r0
7000026e:	a003      	add	r0, pc, #12	@ (adr r0, 0x7000027c)
70000270:	4770      	bx	lr
70000272:	0000      	movs	r0, r0
70000274:	4a05      	ldr	r2, [pc, #20]	@ (0x7000028c)
70000276:	2001      	movs	r0, #1
70000278:	0280      	lsls	r0, r0, #10
7000027a:	1a11      	subs	r1, r2, r0
7000027c:	2000      	movs	r0, #0
7000027e:	e001      	b.n	0x70000284
70000280:	c908      	ldmia	r1!, {r3}
70000282:	4058      	eors	r0, r3
70000284:	4291      	cmp	r1, r2
70000286:	d3fb      	bcc.n	0x70000280
70000288:	4770      	bx	lr
7000028a:	0000      	movs	r0, r0
7000028c:	a000      	add	r0, pc, #0	@ (adr r0, 0x70000290)
7000028e:	7000      	strb	r0, [r0, #0]
70000290:	2000      	movs	r0, #0
70000292:	4770      	bx	lr
70000294:	b5f8      	push	{r3, r4, r5, r6, r7, lr}
70000296:	0007      	movs	r7, r0
70000298:	000c      	movs	r4, r1
7000029a:	f000 facb 	bl	0x70000834
7000029e:	4818      	ldr	r0, [pc, #96]	@ (0x70000300)
700002a0:	7800      	ldrb	r0, [r0, #0]
700002a2:	f000 fac5 	bl	0x70000830
700002a6:	4d17      	ldr	r5, [pc, #92]	@ (0x70000304)
700002a8:	4e17      	ldr	r6, [pc, #92]	@ (0x70000308)
700002aa:	60b5      	str	r5, [r6, #8]
700002ac:	f000 f8f2 	bl	0x70000494
700002b0:	f000 f9c8 	bl	0x70000644
700002b4:	60b5      	str	r5, [r6, #8]
700002b6:	f000 f8e5 	bl	0x70000484
700002ba:	0740      	lsls	r0, r0, #29
700002bc:	d502      	bpl.n	0x700002c4
700002be:	4913      	ldr	r1, [pc, #76]	@ (0x7000030c)
700002c0:	2002      	movs	r0, #2
700002c2:	6248      	str	r0, [r1, #36]	@ 0x24
700002c4:	4812      	ldr	r0, [pc, #72]	@ (0x70000310)
700002c6:	a114      	add	r1, pc, #80	@ (adr r1, 0x70000318)
700002c8:	6007      	str	r7, [r0, #0]
700002ca:	4812      	ldr	r0, [pc, #72]	@ (0x70000314)
700002cc:	6802      	ldr	r2, [r0, #0]
700002ce:	2005      	movs	r0, #5
700002d0:	f000 f9f8 	bl	0x700006c4
700002d4:	4811      	ldr	r0, [pc, #68]	@ (0x7000031c)
700002d6:	6004      	str	r4, [r0, #0]
700002d8:	2023      	movs	r0, #35	@ 0x23
700002da:	0180      	lsls	r0, r0, #6
700002dc:	1820      	adds	r0, r4, r0
700002de:	69c4      	ldr	r4, [r0, #28]
700002e0:	f000 f9c8 	bl	0x70000674
700002e4:	490e      	ldr	r1, [pc, #56]	@ (0x70000320)
700002e6:	7008      	strb	r0, [r1, #0]
700002e8:	f000 f8de 	bl	0x700004a8
700002ec:	2100      	movs	r1, #0
700002ee:	0022      	movs	r2, r4
700002f0:	0008      	movs	r0, r1
700002f2:	f000 f8f1 	bl	0x700004d8
700002f6:	480b      	ldr	r0, [pc, #44]	@ (0x70000324)
700002f8:	f000 f8fa 	bl	0x700004f0
700002fc:	bdf8      	pop	{r3, r4, r5, r6, r7, pc}
700002fe:	0000      	movs	r0, r0
70000300:	7c20      	ldrb	r0, [r4, #16]
70000302:	7000      	strb	r0, [r0, #0]
70000304:	1971      	adds	r1, r6, r5
70000306:	0000      	movs	r0, r0
70000308:	0000      	movs	r0, r0
7000030a:	a003      	add	r0, pc, #12	@ (adr r0, 0x70000318)
7000030c:	0300      	lsls	r0, r0, #12
7000030e:	a001      	add	r0, pc, #4	@ (adr r0, 0x70000314)
70000310:	7e90      	ldrb	r0, [r2, #26]
70000312:	7000      	strb	r0, [r0, #0]
70000314:	6160      	str	r0, [r4, #20]
70000316:	7000      	strb	r0, [r0, #0]
70000318:	0000      	movs	r0, r0
7000031a:	0000      	movs	r0, r0
7000031c:	7e94      	ldrb	r4, [r2, #26]
7000031e:	7000      	strb	r0, [r0, #0]
70000320:	7e98      	ldrb	r0, [r3, #26]
70000322:	7000      	strb	r0, [r0, #0]
70000324:	6000      	str	r0, [r0, #0]
70000326:	7000      	strb	r0, [r0, #0]
70000328:	4770      	bx	lr
7000032a:	0000      	movs	r0, r0
7000032c:	c001      	stmia	r0!, {r0}
7000032e:	e28f      	b.n	0x70000850
70000330:	ff1c e12f 	vrhadd.u16	d14, d12, d31
70000334:	b570      	push	{r4, r5, r6, lr}
70000336:	0004      	movs	r4, r0
70000338:	f000 f990 	bl	0x7000065c
7000033c:	4d26      	ldr	r5, [pc, #152]	@ (0x700003d8)
7000033e:	4827      	ldr	r0, [pc, #156]	@ (0x700003dc)
70000340:	0029      	movs	r1, r5
70000342:	f000 fe03 	bl	0x70000f4c
70000346:	4e26      	ldr	r6, [pc, #152]	@ (0x700003e0)
70000348:	002a      	movs	r2, r5
7000034a:	68b1      	ldr	r1, [r6, #8]
7000034c:	f000 ee70 	blx	0x70001030
70000350:	2104      	movs	r1, #4
70000352:	0288      	lsls	r0, r1, #10
70000354:	f000 fdfa 	bl	0x70000f4c
70000358:	4d22      	ldr	r5, [pc, #136]	@ (0x700003e4)
7000035a:	6b69      	ldr	r1, [r5, #52]	@ 0x34
7000035c:	6001      	str	r1, [r0, #0]
7000035e:	481f      	ldr	r0, [pc, #124]	@ (0x700003dc)
70000360:	2104      	movs	r1, #4
70000362:	1e80      	subs	r0, r0, #2
70000364:	f000 fdf2 	bl	0x70000f4c
70000368:	6ba9      	ldr	r1, [r5, #56]	@ 0x38
7000036a:	6001      	str	r1, [r0, #0]
7000036c:	481b      	ldr	r0, [pc, #108]	@ (0x700003dc)
7000036e:	2104      	movs	r1, #4
70000370:	1e40      	subs	r0, r0, #1
70000372:	f000 fdeb 	bl	0x70000f4c
70000376:	6871      	ldr	r1, [r6, #4]
70000378:	6001      	str	r1, [r0, #0]
7000037a:	4818      	ldr	r0, [pc, #96]	@ (0x700003dc)
7000037c:	2140      	movs	r1, #64	@ 0x40
7000037e:	1c40      	adds	r0, r0, #1
70000380:	f000 fde4 	bl	0x70000f4c
70000384:	4918      	ldr	r1, [pc, #96]	@ (0x700003e8)
70000386:	2240      	movs	r2, #64	@ 0x40
70000388:	f000 ee52 	blx	0x70001030
7000038c:	f000 f8ac 	bl	0x700004e8
70000390:	0005      	movs	r5, r0
70000392:	4812      	ldr	r0, [pc, #72]	@ (0x700003dc)
70000394:	2120      	movs	r1, #32
70000396:	1c80      	adds	r0, r0, #2
70000398:	f000 fdd8 	bl	0x70000f4c
7000039c:	2220      	movs	r2, #32
7000039e:	0029      	movs	r1, r5
700003a0:	f000 ee46 	blx	0x70001030
700003a4:	480d      	ldr	r0, [pc, #52]	@ (0x700003dc)
700003a6:	2102      	movs	r1, #2
700003a8:	1d00      	adds	r0, r0, #4
700003aa:	f000 fdcf 	bl	0x70000f4c
700003ae:	8831      	ldrh	r1, [r6, #0]
700003b0:	8001      	strh	r1, [r0, #0]
700003b2:	480a      	ldr	r0, [pc, #40]	@ (0x700003dc)
700003b4:	2104      	movs	r1, #4
700003b6:	1d80      	adds	r0, r0, #6
700003b8:	f000 fdc8 	bl	0x70000f4c
700003bc:	490b      	ldr	r1, [pc, #44]	@ (0x700003ec)
700003be:	6809      	ldr	r1, [r1, #0]
700003c0:	6001      	str	r1, [r0, #0]
700003c2:	1c60      	adds	r0, r4, #1
700003c4:	d001      	beq.n	0x700003ca
700003c6:	6b20      	ldr	r0, [r4, #48]	@ 0x30
700003c8:	1904      	adds	r4, r0, r4
700003ca:	f000 f861 	bl	0x70000490
700003ce:	0020      	movs	r0, r4
700003d0:	f7fd ee30 	blx	0x6fffe034
700003d4:	bd70      	pop	{r4, r5, r6, pc}
700003d6:	0000      	movs	r0, r0
700003d8:	08f4      	lsrs	r4, r6, #3
700003da:	0000      	movs	r0, r0
700003dc:	1003      	asrs	r3, r0, #32
700003de:	0000      	movs	r0, r0
700003e0:	7e8c      	ldrb	r4, [r1, #26]
700003e2:	7000      	strb	r0, [r0, #0]
700003e4:	6080      	str	r0, [r0, #8]
700003e6:	7000      	strb	r0, [r0, #0]
700003e8:	7e48      	ldrb	r0, [r1, #25]
700003ea:	7000      	strb	r0, [r0, #0]
700003ec:	7df8      	ldrb	r0, [r7, #23]
700003ee:	7000      	strb	r0, [r0, #0]
700003f0:	b5f8      	push	{r3, r4, r5, r6, r7, lr}
700003f2:	2600      	movs	r6, #0
700003f4:	43f6      	mvns	r6, r6
700003f6:	0035      	movs	r5, r6
700003f8:	f000 f860 	bl	0x700004bc
700003fc:	4818      	ldr	r0, [pc, #96]	@ (0x70000460)
700003fe:	2141      	movs	r1, #65	@ 0x41
70000400:	6800      	ldr	r0, [r0, #0]
70000402:	00c9      	lsls	r1, r1, #3
70000404:	1847      	adds	r7, r0, r1
70000406:	0038      	movs	r0, r7
70000408:	a116      	add	r1, pc, #88	@ (adr r1, 0x70000464)
7000040a:	f001 ea06 	blx	0x70001818
7000040e:	2800      	cmp	r0, #0
70000410:	d121      	bne.n	0x70000456
70000412:	2400      	movs	r4, #0
70000414:	2014      	movs	r0, #20
70000416:	4360      	muls	r0, r4
70000418:	19c0      	adds	r0, r0, r7
7000041a:	8b40      	ldrh	r0, [r0, #26]
7000041c:	2802      	cmp	r0, #2
7000041e:	d115      	bne.n	0x7000044c
70000420:	2014      	movs	r0, #20
70000422:	4360      	muls	r0, r4
70000424:	4a11      	ldr	r2, [pc, #68]	@ (0x7000046c)
70000426:	19c0      	adds	r0, r0, r7
70000428:	6941      	ldr	r1, [r0, #20]
7000042a:	4291      	cmp	r1, r2
7000042c:	d113      	bne.n	0x70000456
7000042e:	6a41      	ldr	r1, [r0, #36]	@ 0x24
70000430:	07c9      	lsls	r1, r1, #31
70000432:	d110      	bne.n	0x70000456
70000434:	7e02      	ldrb	r2, [r0, #24]
70000436:	6a01      	ldr	r1, [r0, #32]
70000438:	69c0      	ldr	r0, [r0, #28]
7000043a:	f000 f929 	bl	0x70000690
7000043e:	0005      	movs	r5, r0
70000440:	1c40      	adds	r0, r0, #1
70000442:	d008      	beq.n	0x70000456
70000444:	69e8      	ldr	r0, [r5, #28]
70000446:	42a8      	cmp	r0, r5
70000448:	d105      	bne.n	0x70000456
7000044a:	e002      	b.n	0x70000452
7000044c:	1c64      	adds	r4, r4, #1
7000044e:	2c08      	cmp	r4, #8
70000450:	d3e0      	bcc.n	0x70000414
70000452:	2c08      	cmp	r4, #8
70000454:	d101      	bne.n	0x7000045a
70000456:	0030      	movs	r0, r6
70000458:	bdf8      	pop	{r3, r4, r5, r6, r7, pc}
7000045a:	0028      	movs	r0, r5
7000045c:	bdf8      	pop	{r3, r4, r5, r6, r7, pc}
7000045e:	0000      	movs	r0, r0
70000460:	7e94      	ldrb	r4, [r2, #26]
70000462:	7000      	strb	r0, [r0, #0]
70000464:	5242      	strh	r2, [r0, r1]
70000466:	594c      	ldr	r4, [r1, r5]
70000468:	0054      	lsls	r4, r2, #1
7000046a:	0000      	movs	r0, r0
7000046c:	4242      	negs	r2, r0
7000046e:	4242      	negs	r2, r0
70000470:	4770      	bx	lr
70000472:	4770      	bx	lr
70000474:	4770      	bx	lr
70000476:	4770      	bx	lr
70000478:	2001      	movs	r0, #1
7000047a:	4770      	bx	lr
7000047c:	2000      	movs	r0, #0
7000047e:	43c0      	mvns	r0, r0
70000480:	4770      	bx	lr
70000482:	0000      	movs	r0, r0
70000484:	4801      	ldr	r0, [pc, #4]	@ (0x7000048c)
70000486:	6b40      	ldr	r0, [r0, #52]	@ 0x34
70000488:	4770      	bx	lr
7000048a:	0000      	movs	r0, r0
7000048c:	6080      	str	r0, [r0, #8]
7000048e:	7000      	strb	r0, [r0, #0]
70000490:	4770      	bx	lr
70000492:	0000      	movs	r0, r0
70000494:	4903      	ldr	r1, [pc, #12]	@ (0x700004a4)
70000496:	b510      	push	{r4, lr}
70000498:	2000      	movs	r0, #0
7000049a:	6008      	str	r0, [r1, #0]
7000049c:	f000 fa22 	bl	0x700008e4
700004a0:	2000      	movs	r0, #0
700004a2:	bd10      	pop	{r4, pc}
700004a4:	7e9c      	ldrb	r4, [r3, #26]
700004a6:	7000      	strb	r0, [r0, #0]
700004a8:	4801      	ldr	r0, [pc, #4]	@ (0x700004b0)
700004aa:	4902      	ldr	r1, [pc, #8]	@ (0x700004b4)
700004ac:	1840      	adds	r0, r0, r1
700004ae:	4770      	bx	lr
700004b0:	6000      	str	r0, [r0, #0]
700004b2:	7000      	strb	r0, [r0, #0]
700004b4:	a004      	add	r0, pc, #16	@ (adr r0, 0x700004c8)
700004b6:	7000      	strb	r0, [r0, #0]
700004b8:	4770      	bx	lr
700004ba:	0000      	movs	r0, r0
700004bc:	4804      	ldr	r0, [pc, #16]	@ (0x700004d0)
700004be:	4905      	ldr	r1, [pc, #20]	@ (0x700004d4)
700004c0:	b510      	push	{r4, lr}
700004c2:	6008      	str	r0, [r1, #0]
700004c4:	6801      	ldr	r1, [r0, #0]
700004c6:	2000      	movs	r0, #0
700004c8:	4788      	blx	r1
700004ca:	2000      	movs	r0, #0
700004cc:	bd10      	pop	{r4, pc}
700004ce:	0000      	movs	r0, r0
700004d0:	7dc4      	ldrb	r4, [r0, #23]
700004d2:	7000      	strb	r0, [r0, #0]
700004d4:	7e88      	ldrb	r0, [r1, #26]
700004d6:	7000      	strb	r0, [r0, #0]
700004d8:	4b02      	ldr	r3, [pc, #8]	@ (0x700004e4)
700004da:	b510      	push	{r4, lr}
700004dc:	601a      	str	r2, [r3, #0]
700004de:	f7fd fd8f 	bl	0x6fffe000
700004e2:	bd10      	pop	{r4, pc}
700004e4:	7ec8      	ldrb	r0, [r1, #27]
700004e6:	7000      	strb	r0, [r0, #0]
700004e8:	4800      	ldr	r0, [pc, #0]	@ (0x700004ec)
700004ea:	4770      	bx	lr
700004ec:	7ea8      	ldrb	r0, [r5, #26]
700004ee:	7000      	strb	r0, [r0, #0]
700004f0:	b570      	push	{r4, r5, r6, lr}
700004f2:	0004      	movs	r4, r0
700004f4:	4835      	ldr	r0, [pc, #212]	@ (0x700005cc)
700004f6:	b086      	sub	sp, #24
700004f8:	2600      	movs	r6, #0
700004fa:	9003      	str	r0, [sp, #12]
700004fc:	4834      	ldr	r0, [pc, #208]	@ (0x700005d0)
700004fe:	9605      	str	r6, [sp, #20]
70000500:	9604      	str	r6, [sp, #16]
70000502:	6800      	ldr	r0, [r0, #0]
70000504:	2805      	cmp	r0, #5
70000506:	d35d      	bcc.n	0x700005c4
70000508:	2102      	movs	r1, #2
7000050a:	0020      	movs	r0, r4
7000050c:	aa04      	add	r2, sp, #16
7000050e:	f000 fa47 	bl	0x700009a0
70000512:	2800      	cmp	r0, #0
70000514:	d10f      	bne.n	0x70000536
70000516:	9804      	ldr	r0, [sp, #16]
70000518:	2800      	cmp	r0, #0
7000051a:	d104      	bne.n	0x70000526
7000051c:	22cf      	movs	r2, #207	@ 0xcf
7000051e:	a12d      	add	r1, pc, #180	@ (adr r1, 0x700005d4)
70000520:	a035      	add	r0, pc, #212	@ (adr r0, 0x700005f8)
70000522:	f001 f887 	bl	0x70001634
70000526:	9804      	ldr	r0, [sp, #16]
70000528:	7a41      	ldrb	r1, [r0, #9]
7000052a:	2900      	cmp	r1, #0
7000052c:	d107      	bne.n	0x7000053e
7000052e:	7a00      	ldrb	r0, [r0, #8]
70000530:	2800      	cmp	r0, #0
70000532:	d047      	beq.n	0x700005c4
70000534:	e003      	b.n	0x7000053e
70000536:	4836      	ldr	r0, [pc, #216]	@ (0x70000610)
70000538:	7800      	ldrb	r0, [r0, #0]
7000053a:	2801      	cmp	r0, #1
7000053c:	d142      	bne.n	0x700005c4
7000053e:	2100      	movs	r1, #0
70000540:	0020      	movs	r0, r4
70000542:	aa05      	add	r2, sp, #20
70000544:	f000 fa2c 	bl	0x700009a0
70000548:	2800      	cmp	r0, #0
7000054a:	d004      	beq.n	0x70000556
7000054c:	22df      	movs	r2, #223	@ 0xdf
7000054e:	a121      	add	r1, pc, #132	@ (adr r1, 0x700005d4)
70000550:	a030      	add	r0, pc, #192	@ (adr r0, 0x70000614)
70000552:	f001 f86f 	bl	0x70001634
70000556:	9805      	ldr	r0, [sp, #20]
70000558:	69c1      	ldr	r1, [r0, #28]
7000055a:	6a80      	ldr	r0, [r0, #40]	@ 0x28
7000055c:	180d      	adds	r5, r1, r0
7000055e:	3524      	adds	r5, #36	@ 0x24
70000560:	0028      	movs	r0, r5
70000562:	3840      	subs	r0, #64	@ 0x40
70000564:	6bc4      	ldr	r4, [r0, #60]	@ 0x3c
70000566:	9804      	ldr	r0, [sp, #16]
70000568:	2800      	cmp	r0, #0
7000056a:	d00d      	beq.n	0x70000588
7000056c:	2c00      	cmp	r4, #0
7000056e:	d006      	beq.n	0x7000057e
70000570:	6902      	ldr	r2, [r0, #16]
70000572:	68c1      	ldr	r1, [r0, #12]
70000574:	0020      	movs	r0, r4
70000576:	3024      	adds	r0, #36	@ 0x24
70000578:	1889      	adds	r1, r1, r2
7000057a:	4281      	cmp	r1, r0
7000057c:	d204      	bcs.n	0x70000588
7000057e:	4826      	ldr	r0, [pc, #152]	@ (0x70000618)
70000580:	22e6      	movs	r2, #230	@ 0xe6
70000582:	a114      	add	r1, pc, #80	@ (adr r1, 0x700005d4)
70000584:	f001 f856 	bl	0x70001634
70000588:	2c20      	cmp	r4, #32
7000058a:	d904      	bls.n	0x70000596
7000058c:	22e9      	movs	r2, #233	@ 0xe9
7000058e:	a111      	add	r1, pc, #68	@ (adr r1, 0x700005d4)
70000590:	a022      	add	r0, pc, #136	@ (adr r0, 0x7000061c)
70000592:	f001 f84f 	bl	0x70001634
70000596:	482a      	ldr	r0, [pc, #168]	@ (0x70000640)
70000598:	0022      	movs	r2, r4
7000059a:	0029      	movs	r1, r5
7000059c:	f000 ed48 	blx	0x70001030
700005a0:	4a27      	ldr	r2, [pc, #156]	@ (0x70000640)
700005a2:	2100      	movs	r1, #0
700005a4:	9201      	str	r2, [sp, #4]
700005a6:	9100      	str	r1, [sp, #0]
700005a8:	4925      	ldr	r1, [pc, #148]	@ (0x70000640)
700005aa:	0022      	movs	r2, r4
700005ac:	2001      	movs	r0, #1
700005ae:	ab03      	add	r3, sp, #12
700005b0:	f000 fa4e 	bl	0x70000a50
700005b4:	2000      	movs	r0, #0
700005b6:	08a1      	lsrs	r1, r4, #2
700005b8:	e002      	b.n	0x700005c0
700005ba:	0082      	lsls	r2, r0, #2
700005bc:	1c40      	adds	r0, r0, #1
700005be:	50ae      	str	r6, [r5, r2]
700005c0:	4281      	cmp	r1, r0
700005c2:	d8fa      	bhi.n	0x700005ba
700005c4:	2001      	movs	r0, #1
700005c6:	b006      	add	sp, #24
700005c8:	bd70      	pop	{r4, r5, r6, pc}
700005ca:	0000      	movs	r0, r0
700005cc:	5678      	ldrsb	r0, [r7, r1]
700005ce:	1234      	asrs	r4, r6, #8
700005d0:	7db8      	ldrb	r0, [r7, #22]
700005d2:	7000      	strb	r0, [r0, #0]
700005d4:	7373      	strb	r3, [r6, #13]
700005d6:	5c73      	ldrb	r3, [r6, r1]
700005d8:	6f63      	ldr	r3, [r4, #116]	@ 0x74
700005da:	706d      	strb	r5, [r5, #1]
700005dc:	6e6f      	ldr	r7, [r5, #100]	@ 0x64
700005de:	6e65      	ldr	r5, [r4, #100]	@ 0x64
700005e0:	7374      	strb	r4, [r6, #13]
700005e2:	735c      	strb	r4, [r3, #13]
700005e4:	6372      	str	r2, [r6, #52]	@ 0x34
700005e6:	625c      	str	r4, [r3, #36]	@ 0x24
700005e8:	5f6c      	ldrsh	r4, [r5, r5]
700005ea:	6553      	str	r3, [r2, #84]	@ 0x54
700005ec:	7563      	strb	r3, [r4, #21]
700005ee:	6572      	str	r2, [r6, #84]	@ 0x54
700005f0:	765f      	strb	r7, [r3, #25]
700005f2:	2e35      	cmp	r6, #53	@ 0x35
700005f4:	0063      	lsls	r3, r4, #1
700005f6:	0000      	movs	r0, r0
700005f8:	4770      	bx	lr
700005fa:	6866      	ldr	r6, [r4, #4]
700005fc:	6e41      	ldr	r1, [r0, #100]	@ 0x64
700005fe:	6974      	ldr	r4, [r6, #20]
70000600:	6c63      	ldr	r3, [r4, #68]	@ 0x44
70000602:	6e6f      	ldr	r7, [r5, #100]	@ 0x64
70000604:	2065      	movs	r0, #101	@ 0x65
70000606:	3d21      	subs	r5, #33	@ 0x21
70000608:	4e20      	ldr	r6, [pc, #128]	@ (0x7000068c)
7000060a:	4c55      	ldr	r4, [pc, #340]	@ (0x70000760)
7000060c:	004c      	lsls	r4, r1, #1
7000060e:	0000      	movs	r0, r0
70000610:	7db6      	ldrb	r6, [r6, #22]
70000612:	7000      	strb	r0, [r0, #0]
70000614:	0030      	movs	r0, r6
70000616:	0000      	movs	r0, r0
70000618:	7d2c      	ldrb	r4, [r5, #20]
7000061a:	7000      	strb	r0, [r0, #0]
7000061c:	6361      	str	r1, [r4, #52]	@ 0x34
7000061e:	6552      	str	r2, [r2, #84]	@ 0x54
70000620:	6967      	ldr	r7, [r4, #20]
70000622:	6e6f      	ldr	r7, [r5, #100]	@ 0x64
70000624:	654c      	str	r4, [r1, #84]	@ 0x54
70000626:	206e      	movs	r0, #110	@ 0x6e
70000628:	3d3c      	subs	r5, #60	@ 0x3c
7000062a:	7320      	strb	r0, [r4, #12]
7000062c:	7a69      	ldrb	r1, [r5, #9]
7000062e:	6f65      	ldr	r5, [r4, #116]	@ 0x74
70000630:	2866      	cmp	r0, #102	@ 0x66
70000632:	5f67      	ldrsh	r7, [r4, r5]
70000634:	5353      	strh	r3, [r2, r5]
70000636:	5f53      	ldrsh	r3, [r2, r5]
70000638:	6f74      	ldr	r4, [r6, #116]	@ 0x74
7000063a:	656b      	str	r3, [r5, #84]	@ 0x54
7000063c:	296e      	cmp	r1, #110	@ 0x6e
7000063e:	0000      	movs	r0, r0
70000640:	7ea8      	ldrb	r0, [r5, #26]
70000642:	7000      	strb	r0, [r0, #0]
70000644:	b510      	push	{r4, lr}
70000646:	f000 f9b4 	bl	0x700009b2
7000064a:	2000      	movs	r0, #0
7000064c:	217d      	movs	r1, #125	@ 0x7d
7000064e:	00c9      	lsls	r1, r1, #3
70000650:	1c40      	adds	r0, r0, #1
70000652:	4288      	cmp	r0, r1
70000654:	d3fc      	bcc.n	0x70000650
70000656:	f000 f9b1 	bl	0x700009bc
7000065a:	bd10      	pop	{r4, pc}
7000065c:	2101      	movs	r1, #1
7000065e:	b510      	push	{r4, lr}
70000660:	4a02      	ldr	r2, [pc, #8]	@ (0x7000066c)
70000662:	4803      	ldr	r0, [pc, #12]	@ (0x70000670)
70000664:	03c9      	lsls	r1, r1, #15
70000666:	f000 fac5 	bl	0x70000bf4
7000066a:	bd10      	pop	{r4, pc}
7000066c:	7c0c      	ldrb	r4, [r1, #16]
7000066e:	7000      	strb	r0, [r0, #0]
70000670:	2000      	movs	r0, #0
70000672:	0000      	movs	r0, r0
70000674:	4804      	ldr	r0, [pc, #16]	@ (0x70000688)
70000676:	6ac0      	ldr	r0, [r0, #44]	@ 0x2c
70000678:	4904      	ldr	r1, [pc, #16]	@ (0x7000068c)
7000067a:	4288      	cmp	r0, r1
7000067c:	d101      	bne.n	0x70000682
7000067e:	2001      	movs	r0, #1
70000680:	4770      	bx	lr
70000682:	2000      	movs	r0, #0
70000684:	4770      	bx	lr
70000686:	0000      	movs	r0, r0
70000688:	6110      	str	r0, [r2, #16]
7000068a:	7000      	strb	r0, [r0, #0]
7000068c:	e033      	b.n	0x700006f6
7000068e:	c975      	ldmia	r1!, {r0, r2, r4, r5, r6}
70000690:	b570      	push	{r4, r5, r6, lr}
70000692:	2500      	movs	r5, #0
70000694:	43ed      	mvns	r5, r5
70000696:	2a01      	cmp	r2, #1
70000698:	d001      	beq.n	0x7000069e
7000069a:	2a07      	cmp	r2, #7
7000069c:	d110      	bne.n	0x700006c0
7000069e:	f000 f9c7 	bl	0x70000a30
700006a2:	0004      	movs	r4, r0
700006a4:	f000 f94a 	bl	0x7000093c
700006a8:	2800      	cmp	r0, #0
700006aa:	d100      	bne.n	0x700006ae
700006ac:	0025      	movs	r5, r4
700006ae:	6b60      	ldr	r0, [r4, #52]	@ 0x34
700006b0:	0780      	lsls	r0, r0, #30
700006b2:	d405      	bmi.n	0x700006c0
700006b4:	6a22      	ldr	r2, [r4, #32]
700006b6:	69e0      	ldr	r0, [r4, #28]
700006b8:	0021      	movs	r1, r4
700006ba:	f000 ec52 	blx	0x70000f60
700006be:	69e5      	ldr	r5, [r4, #28]
700006c0:	0028      	movs	r0, r5
700006c2:	bd70      	pop	{r4, r5, r6, pc}
700006c4:	4770      	bx	lr
700006c6:	0000      	movs	r0, r0
700006c8:	b5f8      	push	{r3, r4, r5, r6, r7, lr}
700006ca:	4938      	ldr	r1, [pc, #224]	@ (0x700007ac)
700006cc:	6a4a      	ldr	r2, [r1, #36]	@ 0x24
700006ce:	4938      	ldr	r1, [pc, #224]	@ (0x700007b0)
700006d0:	4d38      	ldr	r5, [pc, #224]	@ (0x700007b4)
700006d2:	8129      	strh	r1, [r5, #8]
700006d4:	2601      	movs	r6, #1
700006d6:	82ae      	strh	r6, [r5, #20]
700006d8:	4c36      	ldr	r4, [pc, #216]	@ (0x700007b4)
700006da:	3c60      	subs	r4, #96	@ 0x60
700006dc:	8821      	ldrh	r1, [r4, #0]
700006de:	0649      	lsls	r1, r1, #25
700006e0:	d4fc      	bmi.n	0x700006dc
700006e2:	4935      	ldr	r1, [pc, #212]	@ (0x700007b8)
700006e4:	8129      	strh	r1, [r5, #8]
700006e6:	82ae      	strh	r6, [r5, #20]
700006e8:	8821      	ldrh	r1, [r4, #0]
700006ea:	0649      	lsls	r1, r1, #25
700006ec:	d4fc      	bmi.n	0x700006e8
700006ee:	4f31      	ldr	r7, [pc, #196]	@ (0x700007b4)
700006f0:	0411      	lsls	r1, r2, #16
700006f2:	0f09      	lsrs	r1, r1, #28
700006f4:	3f20      	subs	r7, #32
700006f6:	2901      	cmp	r1, #1
700006f8:	d001      	beq.n	0x700006fe
700006fa:	2800      	cmp	r0, #0
700006fc:	d03b      	beq.n	0x70000776
700006fe:	482f      	ldr	r0, [pc, #188]	@ (0x700007bc)
70000700:	8a00      	ldrh	r0, [r0, #16]
70000702:	07c0      	lsls	r0, r0, #31
70000704:	d137      	bne.n	0x70000776
70000706:	482e      	ldr	r0, [pc, #184]	@ (0x700007c0)
70000708:	8980      	ldrh	r0, [r0, #12]
7000070a:	0400      	lsls	r0, r0, #16
7000070c:	d433      	bmi.n	0x70000776
7000070e:	8a39      	ldrh	r1, [r7, #16]
70000710:	482c      	ldr	r0, [pc, #176]	@ (0x700007c4)
70000712:	4a2d      	ldr	r2, [pc, #180]	@ (0x700007c8)
70000714:	4281      	cmp	r1, r0
70000716:	d102      	bne.n	0x7000071e
70000718:	8ab9      	ldrh	r1, [r7, #20]
7000071a:	4291      	cmp	r1, r2
7000071c:	d00f      	beq.n	0x7000073e
7000071e:	8a39      	ldrh	r1, [r7, #16]
70000720:	4291      	cmp	r1, r2
70000722:	d102      	bne.n	0x7000072a
70000724:	8ab9      	ldrh	r1, [r7, #20]
70000726:	4281      	cmp	r1, r0
70000728:	d009      	beq.n	0x7000073e
7000072a:	823a      	strh	r2, [r7, #16]
7000072c:	82b8      	strh	r0, [r7, #20]
7000072e:	8838      	ldrh	r0, [r7, #0]
70000730:	0600      	lsls	r0, r0, #24
70000732:	0e00      	lsrs	r0, r0, #24
70000734:	8038      	strh	r0, [r7, #0]
70000736:	82ae      	strh	r6, [r5, #20]
70000738:	8820      	ldrh	r0, [r4, #0]
7000073a:	0640      	lsls	r0, r0, #25
7000073c:	d4fc      	bmi.n	0x70000738
7000073e:	8838      	ldrh	r0, [r7, #0]
70000740:	4922      	ldr	r1, [pc, #136]	@ (0x700007cc)
70000742:	880a      	ldrh	r2, [r1, #0]
70000744:	0a00      	lsrs	r0, r0, #8
70000746:	0692      	lsls	r2, r2, #26
70000748:	d501      	bpl.n	0x7000074e
7000074a:	2800      	cmp	r0, #0
7000074c:	d004      	beq.n	0x70000758
7000074e:	8809      	ldrh	r1, [r1, #0]
70000750:	0689      	lsls	r1, r1, #26
70000752:	d410      	bmi.n	0x70000776
70000754:	2805      	cmp	r0, #5
70000756:	d20e      	bcs.n	0x70000776
70000758:	8839      	ldrh	r1, [r7, #0]
7000075a:	1c40      	adds	r0, r0, #1
7000075c:	0400      	lsls	r0, r0, #16
7000075e:	0c00      	lsrs	r0, r0, #16
70000760:	060a      	lsls	r2, r1, #24
70000762:	0e12      	lsrs	r2, r2, #24
70000764:	0201      	lsls	r1, r0, #8
70000766:	4311      	orrs	r1, r2
70000768:	8039      	strh	r1, [r7, #0]
7000076a:	82ae      	strh	r6, [r5, #20]
7000076c:	8821      	ldrh	r1, [r4, #0]
7000076e:	0649      	lsls	r1, r1, #25
70000770:	d4fc      	bmi.n	0x7000076c
70000772:	f000 fd2f 	bl	0x700011d4
70000776:	4811      	ldr	r0, [pc, #68]	@ (0x700007bc)
70000778:	8a00      	ldrh	r0, [r0, #16]
7000077a:	07c0      	lsls	r0, r0, #31
7000077c:	d00d      	beq.n	0x7000079a
7000077e:	4814      	ldr	r0, [pc, #80]	@ (0x700007d0)
70000780:	2111      	movs	r1, #17
70000782:	0409      	lsls	r1, r1, #16
70000784:	6081      	str	r1, [r0, #8]
70000786:	2101      	movs	r1, #1
70000788:	0549      	lsls	r1, r1, #21
7000078a:	6041      	str	r1, [r0, #4]
7000078c:	4911      	ldr	r1, [pc, #68]	@ (0x700007d4)
7000078e:	2031      	movs	r0, #49	@ 0x31
70000790:	0400      	lsls	r0, r0, #16
70000792:	6048      	str	r0, [r1, #4]
70000794:	4810      	ldr	r0, [pc, #64]	@ (0x700007d8)
70000796:	4911      	ldr	r1, [pc, #68]	@ (0x700007dc)
70000798:	6288      	str	r0, [r1, #40]	@ 0x28
7000079a:	8838      	ldrh	r0, [r7, #0]
7000079c:	0600      	lsls	r0, r0, #24
7000079e:	0e00      	lsrs	r0, r0, #24
700007a0:	8038      	strh	r0, [r7, #0]
700007a2:	82ae      	strh	r6, [r5, #20]
700007a4:	8820      	ldrh	r0, [r4, #0]
700007a6:	0640      	lsls	r0, r0, #25
700007a8:	d4fc      	bmi.n	0x700007a4
700007aa:	bdf8      	pop	{r3, r4, r5, r6, r7, pc}
700007ac:	0200      	lsls	r0, r0, #8
700007ae:	a001      	add	r0, pc, #4	@ (adr r0, 0x700007b4)
700007b0:	586a      	ldr	r2, [r5, r1]
700007b2:	0000      	movs	r0, r0
700007b4:	0060      	lsls	r0, r4, #1
700007b6:	a071      	add	r0, pc, #452	@ (adr r0, 0x7000097c)
700007b8:	9136      	str	r1, [sp, #216]	@ 0xd8
700007ba:	0000      	movs	r0, r0
700007bc:	0000      	movs	r0, r0
700007be:	a001      	add	r0, pc, #4	@ (adr r0, 0x700007c4)
700007c0:	0000      	movs	r0, r0
700007c2:	a003      	add	r0, pc, #12	@ (adr r0, 0x700007d0)
700007c4:	a357      	add	r3, pc, #348	@ (adr r3, 0x70000924)
700007c6:	0000      	movs	r0, r0
700007c8:	67d2      	str	r2, [r2, #124]	@ 0x7c
700007ca:	0000      	movs	r0, r0
700007cc:	0a00      	lsrs	r0, r0, #8
700007ce:	a070      	add	r0, pc, #448	@ (adr r0, 0x70000990)
700007d0:	0300      	lsls	r0, r0, #12
700007d2:	a002      	add	r0, pc, #8	@ (adr r0, 0x700007dc)
700007d4:	0000      	movs	r0, r0
700007d6:	a002      	add	r0, pc, #8	@ (adr r0, 0x700007e0)
700007d8:	0007      	movs	r7, r0
700007da:	0077      	lsls	r7, r6, #1
700007dc:	0c00      	lsrs	r0, r0, #16
700007de:	a002      	add	r0, pc, #8	@ (adr r0, 0x700007e8)
700007e0:	b57c      	push	{r2, r3, r4, r5, r6, lr}
700007e2:	a00f      	add	r0, pc, #60	@ (adr r0, 0x70000820)
700007e4:	6801      	ldr	r1, [r0, #0]
700007e6:	6840      	ldr	r0, [r0, #4]
700007e8:	4a0f      	ldr	r2, [pc, #60]	@ (0x70000828)
700007ea:	9100      	str	r1, [sp, #0]
700007ec:	9001      	str	r0, [sp, #4]
700007ee:	6a50      	ldr	r0, [r2, #36]	@ 0x24
700007f0:	466b      	mov	r3, sp
700007f2:	0400      	lsls	r0, r0, #16
700007f4:	0f00      	lsrs	r0, r0, #28
700007f6:	3030      	adds	r0, #48	@ 0x30
700007f8:	70d8      	strb	r0, [r3, #3]
700007fa:	480c      	ldr	r0, [pc, #48]	@ (0x7000082c)
700007fc:	8800      	ldrh	r0, [r0, #0]
700007fe:	466d      	mov	r5, sp
70000800:	0a00      	lsrs	r0, r0, #8
70000802:	3041      	adds	r0, #65	@ 0x41
70000804:	2400      	movs	r4, #0
70000806:	7098      	strb	r0, [r3, #2]
70000808:	5d28      	ldrb	r0, [r5, r4]
7000080a:	f000 f917 	bl	0x70000a3c
7000080e:	1c64      	adds	r4, r4, #1
70000810:	2c06      	cmp	r4, #6
70000812:	d3f9      	bcc.n	0x70000808
70000814:	207d      	movs	r0, #125	@ 0x7d
70000816:	0100      	lsls	r0, r0, #4
70000818:	f000 fc6a 	bl	0x700010f0
7000081c:	bd7c      	pop	{r2, r3, r4, r5, r6, pc}
7000081e:	0000      	movs	r0, r0
70000820:	3a6d      	subs	r2, #109	@ 0x6d
70000822:	2020      	movs	r0, #32
70000824:	0020      	movs	r0, r4
70000826:	0000      	movs	r0, r0
70000828:	0200      	lsls	r0, r0, #8
7000082a:	a001      	add	r0, pc, #4	@ (adr r0, 0x70000830)
7000082c:	0040      	lsls	r0, r0, #1
7000082e:	a071      	add	r0, pc, #452	@ (adr r0, 0x700009f4)
70000830:	4770      	bx	lr
70000832:	0000      	movs	r0, r0
70000834:	4910      	ldr	r1, [pc, #64]	@ (0x70000878)
70000836:	2203      	movs	r2, #3
70000838:	700a      	strb	r2, [r1, #0]
7000083a:	7808      	ldrb	r0, [r1, #0]
7000083c:	2380      	movs	r3, #128	@ 0x80
7000083e:	4318      	orrs	r0, r3
70000840:	7008      	strb	r0, [r1, #0]
70000842:	480e      	ldr	r0, [pc, #56]	@ (0x7000087c)
70000844:	4b0c      	ldr	r3, [pc, #48]	@ (0x70000878)
70000846:	8a40      	ldrh	r0, [r0, #18]
70000848:	3b0c      	subs	r3, #12
7000084a:	7018      	strb	r0, [r3, #0]
7000084c:	0a00      	lsrs	r0, r0, #8
7000084e:	1d1b      	adds	r3, r3, #4
70000850:	7018      	strb	r0, [r3, #0]
70000852:	700a      	strb	r2, [r1, #0]
70000854:	2047      	movs	r0, #71	@ 0x47
70000856:	1f09      	subs	r1, r1, #4
70000858:	7008      	strb	r0, [r1, #0]
7000085a:	4807      	ldr	r0, [pc, #28]	@ (0x70000878)
7000085c:	1d00      	adds	r0, r0, #4
7000085e:	7002      	strb	r2, [r0, #0]
70000860:	200d      	movs	r0, #13
70000862:	7018      	strb	r0, [r3, #0]
70000864:	4904      	ldr	r1, [pc, #16]	@ (0x70000878)
70000866:	2000      	movs	r0, #0
70000868:	3118      	adds	r1, #24
7000086a:	7008      	strb	r0, [r1, #0]
7000086c:	1c40      	adds	r0, r0, #1
7000086e:	0400      	lsls	r0, r0, #16
70000870:	0c00      	lsrs	r0, r0, #16
70000872:	28ff      	cmp	r0, #255	@ 0xff
70000874:	d3fa      	bcc.n	0x7000086c
70000876:	4770      	bx	lr
70000878:	000c      	movs	r4, r1
7000087a:	a008      	add	r0, pc, #32	@ (adr r0, 0x7000089c)
7000087c:	7dfc      	ldrb	r4, [r7, #23]
7000087e:	7000      	strb	r0, [r0, #0]
70000880:	4812      	ldr	r0, [pc, #72]	@ (0x700008cc)
70000882:	6802      	ldr	r2, [r0, #0]
70000884:	4912      	ldr	r1, [pc, #72]	@ (0x700008d0)
70000886:	400a      	ands	r2, r1
70000888:	6002      	str	r2, [r0, #0]
7000088a:	6842      	ldr	r2, [r0, #4]
7000088c:	400a      	ands	r2, r1
7000088e:	6042      	str	r2, [r0, #4]
70000890:	6882      	ldr	r2, [r0, #8]
70000892:	400a      	ands	r2, r1
70000894:	6082      	str	r2, [r0, #8]
70000896:	480f      	ldr	r0, [pc, #60]	@ (0x700008d4)
70000898:	6800      	ldr	r0, [r0, #0]
7000089a:	0740      	lsls	r0, r0, #29
7000089c:	0f40      	lsrs	r0, r0, #29
7000089e:	2802      	cmp	r0, #2
700008a0:	d110      	bne.n	0x700008c4
700008a2:	480d      	ldr	r0, [pc, #52]	@ (0x700008d8)
700008a4:	6901      	ldr	r1, [r0, #16]
700008a6:	223f      	movs	r2, #63	@ 0x3f
700008a8:	0352      	lsls	r2, r2, #13
700008aa:	4391      	bics	r1, r2
700008ac:	6101      	str	r1, [r0, #16]
700008ae:	6b01      	ldr	r1, [r0, #48]	@ 0x30
700008b0:	4391      	bics	r1, r2
700008b2:	6301      	str	r1, [r0, #48]	@ 0x30
700008b4:	4909      	ldr	r1, [pc, #36]	@ (0x700008dc)
700008b6:	6908      	ldr	r0, [r1, #16]
700008b8:	2303      	movs	r3, #3
700008ba:	4a09      	ldr	r2, [pc, #36]	@ (0x700008e0)
700008bc:	051b      	lsls	r3, r3, #20
700008be:	4018      	ands	r0, r3
700008c0:	1880      	adds	r0, r0, r2
700008c2:	6108      	str	r0, [r1, #16]
700008c4:	2000      	movs	r0, #0
700008c6:	4770      	bx	lr
700008c8:	2000      	movs	r0, #0
700008ca:	4770      	bx	lr
700008cc:	0600      	lsls	r0, r0, #24
700008ce:	a001      	add	r0, pc, #4	@ (adr r0, 0x700008d4)
700008d0:	ffcf ffcf 	vqrdmlsh.s<illegal width 8>	<illegal reg q15.5>, <illegal reg q15.5>, d3[3]
700008d4:	0000      	movs	r0, r0
700008d6:	a011      	add	r0, pc, #68	@ (adr r0, 0x7000091c)
700008d8:	0b00      	lsrs	r0, r0, #12
700008da:	a002      	add	r0, pc, #8	@ (adr r0, 0x700008e4)
700008dc:	0800      	lsrs	r0, r0, #32
700008de:	a002      	add	r0, pc, #8	@ (adr r0, 0x700008e8)
700008e0:	ffff ff8f 			@ <UNDEFINED> instruction: 0xffffff8f
700008e4:	b570      	push	{r4, r5, r6, lr}
700008e6:	4c11      	ldr	r4, [pc, #68]	@ (0x7000092c)
700008e8:	8a21      	ldrh	r1, [r4, #16]
700008ea:	8aa2      	ldrh	r2, [r4, #20]
700008ec:	480f      	ldr	r0, [pc, #60]	@ (0x7000092c)
700008ee:	3020      	adds	r0, #32
700008f0:	8b03      	ldrh	r3, [r0, #24]
700008f2:	4d0e      	ldr	r5, [pc, #56]	@ (0x7000092c)
700008f4:	2000      	movs	r0, #0
700008f6:	0bdb      	lsrs	r3, r3, #15
700008f8:	03db      	lsls	r3, r3, #15
700008fa:	3d40      	subs	r5, #64	@ 0x40
700008fc:	882e      	ldrh	r6, [r5, #0]
700008fe:	0676      	lsls	r6, r6, #25
70000900:	d502      	bpl.n	0x70000908
70000902:	1c40      	adds	r0, r0, #1
70000904:	1c46      	adds	r6, r0, #1
70000906:	d1f9      	bne.n	0x700008fc
70000908:	4809      	ldr	r0, [pc, #36]	@ (0x70000930)
7000090a:	4281      	cmp	r1, r0
7000090c:	d104      	bne.n	0x70000918
7000090e:	4809      	ldr	r0, [pc, #36]	@ (0x70000934)
70000910:	4282      	cmp	r2, r0
70000912:	d101      	bne.n	0x70000918
70000914:	2b00      	cmp	r3, #0
70000916:	d008      	beq.n	0x7000092a
70000918:	89a0      	ldrh	r0, [r4, #12]
7000091a:	0680      	lsls	r0, r0, #26
7000091c:	d401      	bmi.n	0x70000922
7000091e:	4806      	ldr	r0, [pc, #24]	@ (0x70000938)
70000920:	e001      	b.n	0x70000926
70000922:	4805      	ldr	r0, [pc, #20]	@ (0x70000938)
70000924:	3008      	adds	r0, #8
70000926:	f000 fcf5 	bl	0x70001314
7000092a:	bd70      	pop	{r4, r5, r6, pc}
7000092c:	0040      	lsls	r0, r0, #1
7000092e:	a071      	add	r0, pc, #452	@ (adr r0, 0x70000af4)
70000930:	a357      	add	r3, pc, #348	@ (adr r3, 0x70000a90)
70000932:	0000      	movs	r0, r0
70000934:	67d2      	str	r2, [r2, #124]	@ 0x7c
70000936:	0000      	movs	r0, r0
70000938:	0407      	lsls	r7, r0, #16
7000093a:	0000      	movs	r0, r0
7000093c:	b510      	push	{r4, lr}
7000093e:	0004      	movs	r4, r0
70000940:	f000 fe9c 	bl	0x7000167c
70000944:	28ff      	cmp	r0, #255	@ 0xff
70000946:	d206      	bcs.n	0x70000956
70000948:	6a60      	ldr	r0, [r4, #36]	@ 0x24
7000094a:	1c41      	adds	r1, r0, #1
7000094c:	d004      	beq.n	0x70000958
7000094e:	6a21      	ldr	r1, [r4, #32]
70000950:	4288      	cmp	r0, r1
70000952:	d201      	bcs.n	0x70000958
70000954:	4811      	ldr	r0, [pc, #68]	@ (0x7000099c)
70000956:	bd10      	pop	{r4, pc}
70000958:	7ee2      	ldrb	r2, [r4, #27]
7000095a:	4810      	ldr	r0, [pc, #64]	@ (0x7000099c)
7000095c:	6ae1      	ldr	r1, [r4, #44]	@ 0x2c
7000095e:	1e40      	subs	r0, r0, #1
70000960:	2a00      	cmp	r2, #0
70000962:	d102      	bne.n	0x7000096a
70000964:	2900      	cmp	r1, #0
70000966:	d1f6      	bne.n	0x70000956
70000968:	e008      	b.n	0x7000097c
7000096a:	2900      	cmp	r1, #0
7000096c:	d0f3      	beq.n	0x70000956
7000096e:	6a22      	ldr	r2, [r4, #32]
70000970:	428a      	cmp	r2, r1
70000972:	d9f0      	bls.n	0x70000956
70000974:	6aa3      	ldr	r3, [r4, #40]	@ 0x28
70000976:	1a52      	subs	r2, r2, r1
70000978:	4293      	cmp	r3, r2
7000097a:	d8ec      	bhi.n	0x70000956
7000097c:	6b20      	ldr	r0, [r4, #48]	@ 0x30
7000097e:	2800      	cmp	r0, #0
70000980:	d009      	beq.n	0x70000996
70000982:	6aa2      	ldr	r2, [r4, #40]	@ 0x28
70000984:	4282      	cmp	r2, r0
70000986:	d803      	bhi.n	0x70000990
70000988:	6a22      	ldr	r2, [r4, #32]
7000098a:	1a51      	subs	r1, r2, r1
7000098c:	4281      	cmp	r1, r0
7000098e:	d802      	bhi.n	0x70000996
70000990:	4802      	ldr	r0, [pc, #8]	@ (0x7000099c)
70000992:	1c40      	adds	r0, r0, #1
70000994:	bd10      	pop	{r4, pc}
70000996:	2000      	movs	r0, #0
70000998:	bd10      	pop	{r4, pc}
7000099a:	0000      	movs	r0, r0
7000099c:	8009      	strh	r1, [r1, #0]
7000099e:	0000      	movs	r0, r0
700009a0:	b508      	push	{r3, lr}
700009a2:	0013      	movs	r3, r2
700009a4:	2200      	movs	r2, #0
700009a6:	9200      	str	r2, [sp, #0]
700009a8:	000a      	movs	r2, r1
700009aa:	2100      	movs	r1, #0
700009ac:	f000 fd68 	bl	0x70001480
700009b0:	bd08      	pop	{r3, pc}
700009b2:	2001      	movs	r0, #1
700009b4:	2183      	movs	r1, #131	@ 0x83
700009b6:	0609      	lsls	r1, r1, #24
700009b8:	6188      	str	r0, [r1, #24]
700009ba:	4770      	bx	lr
700009bc:	b5f0      	push	{r4, r5, r6, r7, lr}
700009be:	4818      	ldr	r0, [pc, #96]	@ (0x70000a20)
700009c0:	4f18      	ldr	r7, [pc, #96]	@ (0x70000a24)
700009c2:	4e16      	ldr	r6, [pc, #88]	@ (0x70000a1c)
700009c4:	2200      	movs	r2, #0
700009c6:	6038      	str	r0, [r7, #0]
700009c8:	2002      	movs	r0, #2
700009ca:	6278      	str	r0, [r7, #36]	@ 0x24
700009cc:	2011      	movs	r0, #17
700009ce:	6238      	str	r0, [r7, #32]
700009d0:	6a38      	ldr	r0, [r7, #32]
700009d2:	07c0      	lsls	r0, r0, #31
700009d4:	d1fc      	bne.n	0x700009d0
700009d6:	6ab8      	ldr	r0, [r7, #40]	@ 0x28
700009d8:	6abb      	ldr	r3, [r7, #40]	@ 0x28
700009da:	6af9      	ldr	r1, [r7, #44]	@ 0x2c
700009dc:	0200      	lsls	r0, r0, #8
700009de:	0a00      	lsrs	r0, r0, #8
700009e0:	0e1c      	lsrs	r4, r3, #24
700009e2:	6afb      	ldr	r3, [r7, #44]	@ 0x2c
700009e4:	0209      	lsls	r1, r1, #8
700009e6:	0a09      	lsrs	r1, r1, #8
700009e8:	0e1d      	lsrs	r5, r3, #24
700009ea:	4281      	cmp	r1, r0
700009ec:	d802      	bhi.n	0x700009f4
700009ee:	2301      	movs	r3, #1
700009f0:	061b      	lsls	r3, r3, #24
700009f2:	18c9      	adds	r1, r1, r3
700009f4:	231a      	movs	r3, #26
700009f6:	4359      	muls	r1, r3
700009f8:	4358      	muls	r0, r3
700009fa:	1949      	adds	r1, r1, r5
700009fc:	1900      	adds	r0, r0, r4
700009fe:	1a08      	subs	r0, r1, r0
70000a00:	4909      	ldr	r1, [pc, #36]	@ (0x70000a28)
70000a02:	1840      	adds	r0, r0, r1
70000a04:	4909      	ldr	r1, [pc, #36]	@ (0x70000a2c)
70000a06:	4288      	cmp	r0, r1
70000a08:	d203      	bcs.n	0x70000a12
70000a0a:	20ff      	movs	r0, #255	@ 0xff
70000a0c:	3011      	adds	r0, #17
70000a0e:	6238      	str	r0, [r7, #32]
70000a10:	bdf0      	pop	{r4, r5, r6, r7, pc}
70000a12:	1c52      	adds	r2, r2, #1
70000a14:	42b2      	cmp	r2, r6
70000a16:	dbd9      	blt.n	0x700009cc
70000a18:	bdf0      	pop	{r4, r5, r6, r7, pc}
70000a1a:	0000      	movs	r0, r0
70000a1c:	3880      	subs	r0, #128	@ 0x80
70000a1e:	0001      	movs	r1, r0
70000a20:	0001      	movs	r1, r0
70000a22:	1153      	asrs	r3, r2, #5
70000a24:	0080      	lsls	r0, r0, #2
70000a26:	a018      	add	r0, pc, #96	@ (adr r0, 0x70000a88)
70000a28:	faeb ffff 			@ <UNDEFINED> instruction: 0xfaebffff
70000a2c:	0257      	lsls	r7, r2, #9
70000a2e:	0000      	movs	r0, r0
70000a30:	b510      	push	{r4, lr}
70000a32:	0004      	movs	r4, r0
70000a34:	f000 fd98 	bl	0x70001568
70000a38:	4320      	orrs	r0, r4
70000a3a:	bd10      	pop	{r4, pc}
70000a3c:	4a03      	ldr	r2, [pc, #12]	@ (0x70000a4c)
70000a3e:	7811      	ldrb	r1, [r2, #0]
70000a40:	0689      	lsls	r1, r1, #26
70000a42:	d5fc      	bpl.n	0x70000a3e
70000a44:	4901      	ldr	r1, [pc, #4]	@ (0x70000a4c)
70000a46:	3914      	subs	r1, #20
70000a48:	7008      	strb	r0, [r1, #0]
70000a4a:	4770      	bx	lr
70000a4c:	0014      	movs	r4, r2
70000a4e:	a008      	add	r0, pc, #32	@ (adr r0, 0x70000a70)
70000a50:	b5ff      	push	{r0, r1, r2, r3, r4, r5, r6, r7, lr}
70000a52:	0004      	movs	r4, r0
70000a54:	4829      	ldr	r0, [pc, #164]	@ (0x70000afc)
70000a56:	000e      	movs	r6, r1
70000a58:	6801      	ldr	r1, [r0, #0]
70000a5a:	b091      	sub	sp, #68	@ 0x44
70000a5c:	9d1b      	ldr	r5, [sp, #108]	@ 0x6c
70000a5e:	2905      	cmp	r1, #5
70000a60:	d206      	bcs.n	0x70000a70
70000a62:	22ff      	movs	r2, #255	@ 0xff
70000a64:	32ba      	adds	r2, #186	@ 0xba
70000a66:	a126      	add	r1, pc, #152	@ (adr r1, 0x70000b00)
70000a68:	a030      	add	r0, pc, #192	@ (adr r0, 0x70000b2c)
70000a6a:	f000 fde3 	bl	0x70001634
70000a6e:	e020      	b.n	0x70000ab2
70000a70:	2905      	cmp	r1, #5
70000a72:	d11e      	bne.n	0x70000ab2
70000a74:	7859      	ldrb	r1, [r3, #1]
70000a76:	7818      	ldrb	r0, [r3, #0]
70000a78:	78da      	ldrb	r2, [r3, #3]
70000a7a:	0209      	lsls	r1, r1, #8
70000a7c:	4308      	orrs	r0, r1
70000a7e:	7899      	ldrb	r1, [r3, #2]
70000a80:	2710      	movs	r7, #16
70000a82:	0409      	lsls	r1, r1, #16
70000a84:	0612      	lsls	r2, r2, #24
70000a86:	4311      	orrs	r1, r2
70000a88:	4308      	orrs	r0, r1
70000a8a:	43c1      	mvns	r1, r0
70000a8c:	9001      	str	r0, [sp, #4]
70000a8e:	41f8      	rors	r0, r7
70000a90:	9003      	str	r0, [sp, #12]
70000a92:	43c0      	mvns	r0, r0
70000a94:	9004      	str	r0, [sp, #16]
70000a96:	2000      	movs	r0, #0
70000a98:	9102      	str	r1, [sp, #8]
70000a9a:	900d      	str	r0, [sp, #52]	@ 0x34
70000a9c:	f7fd fac8 	bl	0x6fffe030
70000aa0:	900f      	str	r0, [sp, #60]	@ 0x3c
70000aa2:	2001      	movs	r0, #1
70000aa4:	ab10      	add	r3, sp, #64	@ 0x40
70000aa6:	7018      	strb	r0, [r3, #0]
70000aa8:	a801      	add	r0, sp, #4
70000aaa:	900e      	str	r0, [sp, #56]	@ 0x38
70000aac:	a80d      	add	r0, sp, #52	@ 0x34
70000aae:	9708      	str	r7, [sp, #32]
70000ab0:	9007      	str	r0, [sp, #28]
70000ab2:	42ae      	cmp	r6, r5
70000ab4:	d004      	beq.n	0x70000ac0
70000ab6:	9a13      	ldr	r2, [sp, #76]	@ 0x4c
70000ab8:	0031      	movs	r1, r6
70000aba:	0028      	movs	r0, r5
70000abc:	f000 ea50 	blx	0x70000f60
70000ac0:	9813      	ldr	r0, [sp, #76]	@ 0x4c
70000ac2:	9505      	str	r5, [sp, #20]
70000ac4:	9006      	str	r0, [sp, #24]
70000ac6:	4820      	ldr	r0, [pc, #128]	@ (0x70000b48)
70000ac8:	4a20      	ldr	r2, [pc, #128]	@ (0x70000b4c)
70000aca:	9009      	str	r0, [sp, #36]	@ 0x24
70000acc:	3010      	adds	r0, #16
70000ace:	900a      	str	r0, [sp, #40]	@ 0x28
70000ad0:	3010      	adds	r0, #16
70000ad2:	900b      	str	r0, [sp, #44]	@ 0x2c
70000ad4:	2003      	movs	r0, #3
70000ad6:	900c      	str	r0, [sp, #48]	@ 0x30
70000ad8:	491d      	ldr	r1, [pc, #116]	@ (0x70000b50)
70000ada:	481e      	ldr	r0, [pc, #120]	@ (0x70000b54)
70000adc:	2c00      	cmp	r4, #0
70000ade:	d102      	bne.n	0x70000ae6
70000ae0:	6812      	ldr	r2, [r2, #0]
70000ae2:	6913      	ldr	r3, [r2, #16]
70000ae4:	e003      	b.n	0x70000aee
70000ae6:	2c01      	cmp	r4, #1
70000ae8:	d105      	bne.n	0x70000af6
70000aea:	6812      	ldr	r2, [r2, #0]
70000aec:	6953      	ldr	r3, [r2, #20]
70000aee:	6809      	ldr	r1, [r1, #0]
70000af0:	6800      	ldr	r0, [r0, #0]
70000af2:	aa05      	add	r2, sp, #20
70000af4:	4798      	blx	r3
70000af6:	b015      	add	sp, #84	@ 0x54
70000af8:	bdf0      	pop	{r4, r5, r6, r7, pc}
70000afa:	0000      	movs	r0, r0
70000afc:	7db8      	ldrb	r0, [r7, #22]
70000afe:	7000      	strb	r0, [r0, #0]
70000b00:	7373      	strb	r3, [r6, #13]
70000b02:	5c73      	ldrb	r3, [r6, r1]
70000b04:	6f63      	ldr	r3, [r4, #116]	@ 0x74
70000b06:	706d      	strb	r5, [r5, #1]
70000b08:	6e6f      	ldr	r7, [r5, #100]	@ 0x64
70000b0a:	6e65      	ldr	r5, [r4, #100]	@ 0x64
70000b0c:	7374      	strb	r4, [r6, #13]
70000b0e:	735c      	strb	r4, [r3, #13]
70000b10:	6372      	str	r2, [r6, #52]	@ 0x34
70000b12:	535c      	strh	r4, [r3, r5]
70000b14:	5353      	strh	r3, [r2, r5]
70000b16:	735f      	strb	r7, [r3, #13]
70000b18:	6365      	str	r5, [r4, #52]	@ 0x34
70000b1a:	7275      	strb	r5, [r6, #9]
70000b1c:	5f65      	ldrsh	r5, [r4, r5]
70000b1e:	6873      	ldr	r3, [r6, #4]
70000b20:	7261      	strb	r1, [r4, #9]
70000b22:	6465      	str	r5, [r4, #68]	@ 0x44
70000b24:	765f      	strb	r7, [r3, #25]
70000b26:	2e35      	cmp	r6, #53	@ 0x35
70000b28:	0063      	lsls	r3, r4, #1
70000b2a:	0000      	movs	r0, r0
70000b2c:	5f67      	ldrsh	r7, [r4, r5]
70000b2e:	5353      	strh	r3, [r2, r5]
70000b30:	5f54      	ldrsh	r4, [r2, r5]
70000b32:	6f42      	ldr	r2, [r0, #116]	@ 0x74
70000b34:	746f      	strb	r7, [r5, #17]
70000b36:	4f52      	ldr	r7, [pc, #328]	@ (0x70000c80)
70000b38:	5f4d      	ldrsh	r5, [r1, r5]
70000b3a:	6576      	str	r6, [r6, #84]	@ 0x54
70000b3c:	7372      	strb	r2, [r6, #13]
70000b3e:	6f69      	ldr	r1, [r5, #116]	@ 0x74
70000b40:	206e      	movs	r0, #110	@ 0x6e
70000b42:	3d3e      	subs	r5, #62	@ 0x3e
70000b44:	3520      	adds	r5, #32
70000b46:	0000      	movs	r0, r0
70000b48:	7c24      	ldrb	r4, [r4, #16]
70000b4a:	7000      	strb	r0, [r0, #0]
70000b4c:	7ec8      	ldrb	r0, [r1, #27]
70000b4e:	7000      	strb	r0, [r0, #0]
70000b50:	403c      	ands	r4, r7
70000b52:	7000      	strb	r0, [r0, #0]
70000b54:	4038      	ands	r0, r7
70000b56:	7000      	strb	r0, [r0, #0]
70000b58:	0008      	movs	r0, r1
70000b5a:	2300      	movs	r3, #0
70000b5c:	000a      	movs	r2, r1
70000b5e:	4770      	bx	lr
70000b60:	b5f0      	push	{r4, r5, r6, r7, lr}
70000b62:	6ac6      	ldr	r6, [r0, #44]	@ 0x2c
70000b64:	000d      	movs	r5, r1
70000b66:	0017      	movs	r7, r2
70000b68:	0004      	movs	r4, r0
70000b6a:	2900      	cmp	r1, #0
70000b6c:	b085      	sub	sp, #20
70000b6e:	d10b      	bne.n	0x70000b88
70000b70:	2200      	movs	r2, #0
70000b72:	9201      	str	r2, [sp, #4]
70000b74:	9202      	str	r2, [sp, #8]
70000b76:	9203      	str	r2, [sp, #12]
70000b78:	9200      	str	r2, [sp, #0]
70000b7a:	22f5      	movs	r2, #245	@ 0xf5
70000b7c:	0092      	lsls	r2, r2, #2
70000b7e:	2300      	movs	r3, #0
70000b80:	a10d      	add	r1, pc, #52	@ (adr r1, 0x70000bb8)
70000b82:	a016      	add	r0, pc, #88	@ (adr r0, 0x70000bdc)
70000b84:	f000 fa9c 	bl	0x700010c0
70000b88:	1cff      	adds	r7, r7, #3
70000b8a:	08b9      	lsrs	r1, r7, #2
70000b8c:	0089      	lsls	r1, r1, #2
70000b8e:	0008      	movs	r0, r1
70000b90:	6a22      	ldr	r2, [r4, #32]
70000b92:	3008      	adds	r0, #8
70000b94:	0003      	movs	r3, r0
70000b96:	1810      	adds	r0, r2, r0
70000b98:	42b0      	cmp	r0, r6
70000b9a:	d902      	bls.n	0x70000ba2
70000b9c:	2000      	movs	r0, #0
70000b9e:	b005      	add	sp, #20
70000ba0:	bdf0      	pop	{r4, r5, r6, r7, pc}
70000ba2:	0890      	lsrs	r0, r2, #2
70000ba4:	0080      	lsls	r0, r0, #2
70000ba6:	1900      	adds	r0, r0, r4
70000ba8:	3024      	adds	r0, #36	@ 0x24
70000baa:	6005      	str	r5, [r0, #0]
70000bac:	6041      	str	r1, [r0, #4]
70000bae:	6a21      	ldr	r1, [r4, #32]
70000bb0:	18c9      	adds	r1, r1, r3
70000bb2:	3008      	adds	r0, #8
70000bb4:	6221      	str	r1, [r4, #32]
70000bb6:	e7f2      	b.n	0x70000b9e
70000bb8:	6168      	str	r0, [r5, #20]
70000bba:	5c6c      	ldrb	r4, [r5, r1]
70000bbc:	7973      	ldrb	r3, [r6, #5]
70000bbe:	7473      	strb	r3, [r6, #17]
70000bc0:	6d65      	ldr	r5, [r4, #84]	@ 0x54
70000bc2:	625c      	str	r4, [r3, #36]	@ 0x24
70000bc4:	6f6f      	ldr	r7, [r5, #116]	@ 0x74
70000bc6:	6c74      	ldr	r4, [r6, #68]	@ 0x44
70000bc8:	616f      	str	r7, [r5, #20]
70000bca:	6564      	str	r4, [r4, #84]	@ 0x54
70000bcc:	5c72      	ldrb	r2, [r6, r1]
70000bce:	7273      	strb	r3, [r6, #9]
70000bd0:	5c63      	ldrb	r3, [r4, r1]
70000bd2:	6c62      	ldr	r2, [r4, #68]	@ 0x44
70000bd4:	4d5f      	ldr	r5, [pc, #380]	@ (0x70000d54)
70000bd6:	6961      	ldr	r1, [r4, #20]
70000bd8:	2e6e      	cmp	r6, #110	@ 0x6e
70000bda:	0063      	lsls	r3, r4, #1
70000bdc:	7974      	ldrb	r4, [r6, #5]
70000bde:	6570      	str	r0, [r6, #84]	@ 0x54
70000be0:	2120      	movs	r1, #32
70000be2:	203d      	movs	r0, #61	@ 0x3d
70000be4:	4c54      	ldr	r4, [pc, #336]	@ (0x70000d38)
70000be6:	5f56      	ldrsh	r6, [r2, r5]
70000be8:	4953      	ldr	r1, [pc, #332]	@ (0x70000d38)
70000bea:	455a      	cmp	r2, fp
70000bec:	525f      	strh	r7, [r3, r1]
70000bee:	4345      	muls	r5, r0
70000bf0:	524f      	strh	r7, [r1, r1]
70000bf2:	0044      	lsls	r4, r0, #1
70000bf4:	b57f      	push	{r0, r1, r2, r3, r4, r5, r6, lr}
70000bf6:	000d      	movs	r5, r1
70000bf8:	0016      	movs	r6, r2
70000bfa:	0004      	movs	r4, r0
70000bfc:	2930      	cmp	r1, #48	@ 0x30
70000bfe:	d80b      	bhi.n	0x70000c18
70000c00:	2200      	movs	r2, #0
70000c02:	9201      	str	r2, [sp, #4]
70000c04:	9202      	str	r2, [sp, #8]
70000c06:	9203      	str	r2, [sp, #12]
70000c08:	9200      	str	r2, [sp, #0]
70000c0a:	2207      	movs	r2, #7
70000c0c:	01d2      	lsls	r2, r2, #7
70000c0e:	2300      	movs	r3, #0
70000c10:	a10a      	add	r1, pc, #40	@ (adr r1, 0x70000c3c)
70000c12:	a013      	add	r0, pc, #76	@ (adr r0, 0x70000c60)
70000c14:	f000 fa54 	bl	0x700010c0
70000c18:	2120      	movs	r1, #32
70000c1a:	0020      	movs	r0, r4
70000c1c:	f000 ee92 	blx	0x70001944
70000c20:	0031      	movs	r1, r6
70000c22:	0020      	movs	r0, r4
70000c24:	f000 fb50 	bl	0x700012c8
70000c28:	2000      	movs	r0, #0
70000c2a:	6260      	str	r0, [r4, #36]	@ 0x24
70000c2c:	2004      	movs	r0, #4
70000c2e:	62e5      	str	r5, [r4, #44]	@ 0x2c
70000c30:	62a0      	str	r0, [r4, #40]	@ 0x28
70000c32:	200c      	movs	r0, #12
70000c34:	6220      	str	r0, [r4, #32]
70000c36:	2001      	movs	r0, #1
70000c38:	b004      	add	sp, #16
70000c3a:	bd70      	pop	{r4, r5, r6, pc}
70000c3c:	6168      	str	r0, [r5, #20]
70000c3e:	5c6c      	ldrb	r4, [r5, r1]
70000c40:	7973      	ldrb	r3, [r6, #5]
70000c42:	7473      	strb	r3, [r6, #17]
70000c44:	6d65      	ldr	r5, [r4, #84]	@ 0x54
70000c46:	625c      	str	r4, [r3, #36]	@ 0x24
70000c48:	6f6f      	ldr	r7, [r5, #116]	@ 0x74
70000c4a:	6c74      	ldr	r4, [r6, #68]	@ 0x44
70000c4c:	616f      	str	r7, [r5, #20]
70000c4e:	6564      	str	r4, [r4, #84]	@ 0x54
70000c50:	5c72      	ldrb	r2, [r6, r1]
70000c52:	7273      	strb	r3, [r6, #9]
70000c54:	5c63      	ldrb	r3, [r4, r1]
70000c56:	6c62      	ldr	r2, [r4, #68]	@ 0x44
70000c58:	4d5f      	ldr	r5, [pc, #380]	@ (0x70000dd8)
70000c5a:	6961      	ldr	r1, [r4, #20]
70000c5c:	2e6e      	cmp	r6, #110	@ 0x6e
70000c5e:	0063      	lsls	r3, r4, #1
70000c60:	7562      	strb	r2, [r4, #21]
70000c62:	6666      	str	r6, [r4, #100]	@ 0x64
70000c64:	6953      	ldr	r3, [r2, #20]
70000c66:	657a      	str	r2, [r7, #84]	@ 0x54
70000c68:	3e20      	subs	r6, #32
70000c6a:	7320      	strb	r0, [r4, #12]
70000c6c:	7a69      	ldrb	r1, [r5, #9]
70000c6e:	6f65      	ldr	r5, [r4, #116]	@ 0x74
70000c70:	2866      	cmp	r0, #102	@ 0x66
70000c72:	4c42      	ldr	r4, [pc, #264]	@ (0x70000d7c)
70000c74:	445f      	add	r7, fp
70000c76:	5f41      	ldrsh	r1, [r0, r5]
70000c78:	4853      	ldr	r0, [pc, #332]	@ (0x70000dc8)
70000c7a:	5241      	strh	r1, [r0, r1]
70000c7c:	4445      	add	r5, r8
70000c7e:	445f      	add	r7, fp
70000c80:	5441      	strb	r1, [r0, r1]
70000c82:	5f41      	ldrsh	r1, [r0, r5]
70000c84:	4548      	cmp	r0, r9
70000c86:	4441      	add	r1, r8
70000c88:	5245      	strh	r5, [r0, r1]
70000c8a:	0029      	movs	r1, r5
70000c8c:	0002      	movs	r2, r0
70000c8e:	e151      	b.n	0x70000f34
70000c90:	3004      	adds	r0, #4
70000c92:	3490      	adds	r4, #144	@ 0x90
70000c94:	3004      	adds	r0, #4
70000c96:	3481      	adds	r4, #129	@ 0x81
70000c98:	fffb 3aff 			@ <UNDEFINED> instruction: 0xfffb3aff
70000c9c:	f00e e1a0 	blx	0x7040efe0
70000ca0:	0001      	movs	r1, r0
70000ca2:	e150      	b.n	0x70000f46
70000ca4:	fff8 8aff 			@ <UNDEFINED> instruction: 0xfff88aff
70000ca8:	f00e 01a0 	and.w	r1, lr, #160	@ 0xa0
70000cac:	3001      	adds	r0, #1
70000cae:	e042      	b.n	0x70000d36
70000cb0:	3004      	adds	r0, #4
70000cb2:	e243      	b.n	0x7000113c
70000cb4:	2001      	movs	r0, #1
70000cb6:	e1a0      	b.n	0x70000ffa
70000cb8:	0003      	movs	r3, r0
70000cba:	e080      	b.n	0x70000dbe
70000cbc:	1003      	asrs	r3, r0, #32
70000cbe:	e081      	b.n	0x70000dc4
70000cc0:	0002      	movs	r2, r0
70000cc2:	e151      	b.n	0x70000f68
70000cc4:	3004      	adds	r0, #4
70000cc6:	a410      	add	r4, pc, #64	@ (adr r4, 0x70000d08)
70000cc8:	3004      	adds	r0, #4
70000cca:	a401      	add	r4, pc, #4	@ (adr r4, 0x70000cd0)
70000ccc:	fffb aaff 			@ <UNDEFINED> instruction: 0xfffbaaff
70000cd0:	f00e e1a0 	blx	0x7040f014
70000cd4:	2000      	movs	r0, #0
70000cd6:	e3a0      	b.n	0x7000141a
70000cd8:	0001      	movs	r1, r0
70000cda:	e150      	b.n	0x70000f7e
70000cdc:	2004      	movs	r0, #4
70000cde:	3480      	adds	r4, #128	@ 0x80
70000ce0:	fffb 3aff 			@ <UNDEFINED> instruction: 0xfffb3aff
70000ce4:	f00e e1a0 	blx	0x7040f028
70000ce8:	488a      	ldr	r0, [pc, #552]	@ (0x70000f14)
70000cea:	6881      	ldr	r1, [r0, #8]
70000cec:	488a      	ldr	r0, [pc, #552]	@ (0x70000f18)
70000cee:	06c9      	lsls	r1, r1, #27
70000cf0:	0ec9      	lsrs	r1, r1, #27
70000cf2:	6001      	str	r1, [r0, #0]
70000cf4:	4770      	bx	lr
70000cf6:	0609      	lsls	r1, r1, #24
70000cf8:	0500      	lsls	r0, r0, #20
70000cfa:	4301      	orrs	r1, r0
70000cfc:	2001      	movs	r0, #1
70000cfe:	0440      	lsls	r0, r0, #17
70000d00:	1808      	adds	r0, r1, r0
70000d02:	4986      	ldr	r1, [pc, #536]	@ (0x70000f1c)
70000d04:	6208      	str	r0, [r1, #32]
70000d06:	6a08      	ldr	r0, [r1, #32]
70000d08:	2201      	movs	r2, #1
70000d0a:	0412      	lsls	r2, r2, #16
70000d0c:	4310      	orrs	r0, r2
70000d0e:	6208      	str	r0, [r1, #32]
70000d10:	2000      	movs	r0, #0
70000d12:	46c0      	nop			@ (mov r8, r8)
70000d14:	1c40      	adds	r0, r0, #1
70000d16:	287f      	cmp	r0, #127	@ 0x7f
70000d18:	dbfb      	blt.n	0x70000d12
70000d1a:	6a08      	ldr	r0, [r1, #32]
70000d1c:	07c0      	lsls	r0, r0, #31
70000d1e:	d0fc      	beq.n	0x70000d1a
70000d20:	4770      	bx	lr
70000d22:	497f      	ldr	r1, [pc, #508]	@ (0x70000f20)
70000d24:	233c      	movs	r3, #60	@ 0x3c
70000d26:	680a      	ldr	r2, [r1, #0]
70000d28:	487e      	ldr	r0, [pc, #504]	@ (0x70000f24)
70000d2a:	435a      	muls	r2, r3
70000d2c:	1810      	adds	r0, r2, r0
70000d2e:	6982      	ldr	r2, [r0, #24]
70000d30:	604a      	str	r2, [r1, #4]
70000d32:	69c2      	ldr	r2, [r0, #28]
70000d34:	608a      	str	r2, [r1, #8]
70000d36:	6a02      	ldr	r2, [r0, #32]
70000d38:	60ca      	str	r2, [r1, #12]
70000d3a:	6a42      	ldr	r2, [r0, #36]	@ 0x24
70000d3c:	610a      	str	r2, [r1, #16]
70000d3e:	6a82      	ldr	r2, [r0, #40]	@ 0x28
70000d40:	614a      	str	r2, [r1, #20]
70000d42:	6ac2      	ldr	r2, [r0, #44]	@ 0x2c
70000d44:	618a      	str	r2, [r1, #24]
70000d46:	6b02      	ldr	r2, [r0, #48]	@ 0x30
70000d48:	61ca      	str	r2, [r1, #28]
70000d4a:	6b42      	ldr	r2, [r0, #52]	@ 0x34
70000d4c:	620a      	str	r2, [r1, #32]
70000d4e:	6b82      	ldr	r2, [r0, #56]	@ 0x38
70000d50:	624a      	str	r2, [r1, #36]	@ 0x24
70000d52:	6bc2      	ldr	r2, [r0, #60]	@ 0x3c
70000d54:	628a      	str	r2, [r1, #40]	@ 0x28
70000d56:	6c02      	ldr	r2, [r0, #64]	@ 0x40
70000d58:	62ca      	str	r2, [r1, #44]	@ 0x2c
70000d5a:	6c42      	ldr	r2, [r0, #68]	@ 0x44
70000d5c:	630a      	str	r2, [r1, #48]	@ 0x30
70000d5e:	6c80      	ldr	r0, [r0, #72]	@ 0x48
70000d60:	6348      	str	r0, [r1, #52]	@ 0x34
70000d62:	4770      	bx	lr
70000d64:	496e      	ldr	r1, [pc, #440]	@ (0x70000f20)
70000d66:	b500      	push	{lr}
70000d68:	2000      	movs	r0, #0
70000d6a:	6008      	str	r0, [r1, #0]
70000d6c:	f7ff ffd9 	bl	0x70000d22
70000d70:	496d      	ldr	r1, [pc, #436]	@ (0x70000f28)
70000d72:	2002      	movs	r0, #2
70000d74:	8008      	strh	r0, [r1, #0]
70000d76:	2000      	movs	r0, #0
70000d78:	bd00      	pop	{pc}
70000d7a:	496c      	ldr	r1, [pc, #432]	@ (0x70000f2c)
70000d7c:	4867      	ldr	r0, [pc, #412]	@ (0x70000f1c)
70000d7e:	6301      	str	r1, [r0, #48]	@ 0x30
70000d80:	496b      	ldr	r1, [pc, #428]	@ (0x70000f30)
70000d82:	6381      	str	r1, [r0, #56]	@ 0x38
70000d84:	486a      	ldr	r0, [pc, #424]	@ (0x70000f30)
70000d86:	4965      	ldr	r1, [pc, #404]	@ (0x70000f1c)
70000d88:	303d      	adds	r0, #61	@ 0x3d
70000d8a:	3140      	adds	r1, #64	@ 0x40
70000d8c:	6008      	str	r0, [r1, #0]
70000d8e:	2000      	movs	r0, #0
70000d90:	4770      	bx	lr
70000d92:	b5fc      	push	{r2, r3, r4, r5, r6, r7, lr}
70000d94:	4867      	ldr	r0, [pc, #412]	@ (0x70000f34)
70000d96:	2400      	movs	r4, #0
70000d98:	6802      	ldr	r2, [r0, #0]
70000d9a:	6841      	ldr	r1, [r0, #4]
70000d9c:	2001      	movs	r0, #1
70000d9e:	9101      	str	r1, [sp, #4]
70000da0:	495c      	ldr	r1, [pc, #368]	@ (0x70000f14)
70000da2:	0500      	lsls	r0, r0, #20
70000da4:	9200      	str	r2, [sp, #0]
70000da6:	1182      	asrs	r2, r0, #6
70000da8:	3940      	subs	r1, #64	@ 0x40
70000daa:	600c      	str	r4, [r1, #0]
70000dac:	0a00      	lsrs	r0, r0, #8
70000dae:	0407      	lsls	r7, r0, #16
70000db0:	0a10      	lsrs	r0, r2, #8
70000db2:	4d61      	ldr	r5, [pc, #388]	@ (0x70000f38)
70000db4:	0023      	movs	r3, r4
70000db6:	1e40      	subs	r0, r0, #1
70000db8:	4307      	orrs	r7, r0
70000dba:	2100      	movs	r1, #0
70000dbc:	0318      	lsls	r0, r3, #12
70000dbe:	4684      	mov	ip, r0
70000dc0:	008a      	lsls	r2, r1, #2
70000dc2:	466c      	mov	r4, sp
70000dc4:	58a2      	ldr	r2, [r4, r2]
70000dc6:	2000      	movs	r0, #0
70000dc8:	0416      	lsls	r6, r2, #16
70000dca:	4662      	mov	r2, ip
70000dcc:	4316      	orrs	r6, r2
70000dce:	4a51      	ldr	r2, [pc, #324]	@ (0x70000f14)
70000dd0:	2400      	movs	r4, #0
70000dd2:	3a40      	subs	r2, #64	@ 0x40
70000dd4:	6014      	str	r4, [r2, #0]
70000dd6:	6097      	str	r7, [r2, #8]
70000dd8:	0344      	lsls	r4, r0, #13
70000dda:	4334      	orrs	r4, r6
70000ddc:	6014      	str	r4, [r2, #0]
70000dde:	6814      	ldr	r4, [r2, #0]
70000de0:	432c      	orrs	r4, r5
70000de2:	6014      	str	r4, [r2, #0]
70000de4:	6994      	ldr	r4, [r2, #24]
70000de6:	07a4      	lsls	r4, r4, #30
70000de8:	d5fc      	bpl.n	0x70000de4
70000dea:	6992      	ldr	r2, [r2, #24]
70000dec:	07d2      	lsls	r2, r2, #31
70000dee:	d005      	beq.n	0x70000dfc
70000df0:	4948      	ldr	r1, [pc, #288]	@ (0x70000f14)
70000df2:	2000      	movs	r0, #0
70000df4:	3940      	subs	r1, #64	@ 0x40
70000df6:	6008      	str	r0, [r1, #0]
70000df8:	1e40      	subs	r0, r0, #1
70000dfa:	bdfc      	pop	{r2, r3, r4, r5, r6, r7, pc}
70000dfc:	1c40      	adds	r0, r0, #1
70000dfe:	2801      	cmp	r0, #1
70000e00:	d9e5      	bls.n	0x70000dce
70000e02:	1c49      	adds	r1, r1, #1
70000e04:	2901      	cmp	r1, #1
70000e06:	d9db      	bls.n	0x70000dc0
70000e08:	1c5b      	adds	r3, r3, #1
70000e0a:	2b01      	cmp	r3, #1
70000e0c:	d9d5      	bls.n	0x70000dba
70000e0e:	4941      	ldr	r1, [pc, #260]	@ (0x70000f14)
70000e10:	2000      	movs	r0, #0
70000e12:	3940      	subs	r1, #64	@ 0x40
70000e14:	6008      	str	r0, [r1, #0]
70000e16:	bdfc      	pop	{r2, r3, r4, r5, r6, r7, pc}
70000e18:	b500      	push	{lr}
70000e1a:	f7ff ffba 	bl	0x70000d92
70000e1e:	2800      	cmp	r0, #0
70000e20:	d001      	beq.n	0x70000e26
70000e22:	2000      	movs	r0, #0
70000e24:	43c0      	mvns	r0, r0
70000e26:	bd00      	pop	{pc}
70000e28:	b530      	push	{r4, r5, lr}
70000e2a:	4d3c      	ldr	r5, [pc, #240]	@ (0x70000f1c)
70000e2c:	241f      	movs	r4, #31
70000e2e:	3d80      	subs	r5, #128	@ 0x80
70000e30:	0620      	lsls	r0, r4, #24
70000e32:	0421      	lsls	r1, r4, #16
70000e34:	4308      	orrs	r0, r1
70000e36:	0221      	lsls	r1, r4, #8
70000e38:	4308      	orrs	r0, r1
70000e3a:	4320      	orrs	r0, r4
70000e3c:	61a8      	str	r0, [r5, #24]
70000e3e:	6128      	str	r0, [r5, #16]
70000e40:	f7ff ffea 	bl	0x70000e18
70000e44:	2800      	cmp	r0, #0
70000e46:	d002      	beq.n	0x70000e4e
70000e48:	1e64      	subs	r4, r4, #1
70000e4a:	d5f1      	bpl.n	0x70000e30
70000e4c:	e001      	b.n	0x70000e52
70000e4e:	2c00      	cmp	r4, #0
70000e50:	da09      	bge.n	0x70000e66
70000e52:	2401      	movs	r4, #1
70000e54:	0420      	lsls	r0, r4, #16
70000e56:	6228      	str	r0, [r5, #32]
70000e58:	f7ff ffde 	bl	0x70000e18
70000e5c:	2800      	cmp	r0, #0
70000e5e:	d002      	beq.n	0x70000e66
70000e60:	1c64      	adds	r4, r4, #1
70000e62:	2c1f      	cmp	r4, #31
70000e64:	ddf6      	ble.n	0x70000e54
70000e66:	bd30      	pop	{r4, r5, pc}
70000e68:	b530      	push	{r4, r5, lr}
70000e6a:	2400      	movs	r4, #0
70000e6c:	0020      	movs	r0, r4
70000e6e:	1c40      	adds	r0, r0, #1
70000e70:	28ff      	cmp	r0, #255	@ 0xff
70000e72:	dbfc      	blt.n	0x70000e6e
70000e74:	492c      	ldr	r1, [pc, #176]	@ (0x70000f28)
70000e76:	2002      	movs	r0, #2
70000e78:	8008      	strh	r0, [r1, #0]
70000e7a:	2000      	movs	r0, #0
70000e7c:	46c0      	nop			@ (mov r8, r8)
70000e7e:	1c40      	adds	r0, r0, #1
70000e80:	28ff      	cmp	r0, #255	@ 0xff
70000e82:	dbfb      	blt.n	0x70000e7c
70000e84:	8808      	ldrh	r0, [r1, #0]
70000e86:	2201      	movs	r2, #1
70000e88:	4310      	orrs	r0, r2
70000e8a:	8008      	strh	r0, [r1, #0]
70000e8c:	2000      	movs	r0, #0
70000e8e:	46c0      	nop			@ (mov r8, r8)
70000e90:	1c40      	adds	r0, r0, #1
70000e92:	287f      	cmp	r0, #127	@ 0x7f
70000e94:	dbfb      	blt.n	0x70000e8e
70000e96:	4922      	ldr	r1, [pc, #136]	@ (0x70000f20)
70000e98:	4a20      	ldr	r2, [pc, #128]	@ (0x70000f1c)
70000e9a:	6a88      	ldr	r0, [r1, #40]	@ 0x28
70000e9c:	3a40      	subs	r2, #64	@ 0x40
70000e9e:	6310      	str	r0, [r2, #48]	@ 0x30
70000ea0:	6acb      	ldr	r3, [r1, #44]	@ 0x2c
70000ea2:	2000      	movs	r0, #0
70000ea4:	6393      	str	r3, [r2, #56]	@ 0x38
70000ea6:	46c0      	nop			@ (mov r8, r8)
70000ea8:	1c40      	adds	r0, r0, #1
70000eaa:	287f      	cmp	r0, #127	@ 0x7f
70000eac:	dbfb      	blt.n	0x70000ea6
70000eae:	4b23      	ldr	r3, [pc, #140]	@ (0x70000f3c)
70000eb0:	6848      	ldr	r0, [r1, #4]
70000eb2:	6318      	str	r0, [r3, #48]	@ 0x30
70000eb4:	4d21      	ldr	r5, [pc, #132]	@ (0x70000f3c)
70000eb6:	6888      	ldr	r0, [r1, #8]
70000eb8:	3540      	adds	r5, #64	@ 0x40
70000eba:	60a8      	str	r0, [r5, #8]
70000ebc:	4817      	ldr	r0, [pc, #92]	@ (0x70000f1c)
70000ebe:	6b0b      	ldr	r3, [r1, #48]	@ 0x30
70000ec0:	6103      	str	r3, [r0, #16]
70000ec2:	6b4b      	ldr	r3, [r1, #52]	@ 0x34
70000ec4:	6183      	str	r3, [r0, #24]
70000ec6:	4815      	ldr	r0, [pc, #84]	@ (0x70000f1c)
70000ec8:	68cb      	ldr	r3, [r1, #12]
70000eca:	3880      	subs	r0, #128	@ 0x80
70000ecc:	6103      	str	r3, [r0, #16]
70000ece:	690b      	ldr	r3, [r1, #16]
70000ed0:	6183      	str	r3, [r0, #24]
70000ed2:	694b      	ldr	r3, [r1, #20]
70000ed4:	6203      	str	r3, [r0, #32]
70000ed6:	698b      	ldr	r3, [r1, #24]
70000ed8:	6383      	str	r3, [r0, #56]	@ 0x38
70000eda:	69c8      	ldr	r0, [r1, #28]
70000edc:	6010      	str	r0, [r2, #0]
70000ede:	6a08      	ldr	r0, [r1, #32]
70000ee0:	6090      	str	r0, [r2, #8]
70000ee2:	6a49      	ldr	r1, [r1, #36]	@ 0x24
70000ee4:	2000      	movs	r0, #0
70000ee6:	6111      	str	r1, [r2, #16]
70000ee8:	46c0      	nop			@ (mov r8, r8)
70000eea:	1c40      	adds	r0, r0, #1
70000eec:	287f      	cmp	r0, #127	@ 0x7f
70000eee:	dbfb      	blt.n	0x70000ee8
70000ef0:	f7ff ff9a 	bl	0x70000e28
70000ef4:	4812      	ldr	r0, [pc, #72]	@ (0x70000f40)
70000ef6:	6128      	str	r0, [r5, #16]
70000ef8:	6928      	ldr	r0, [r5, #16]
70000efa:	0600      	lsls	r0, r0, #24
70000efc:	d5fc      	bpl.n	0x70000ef8
70000efe:	4811      	ldr	r0, [pc, #68]	@ (0x70000f44)
70000f00:	6128      	str	r0, [r5, #16]
70000f02:	6928      	ldr	r0, [r5, #16]
70000f04:	0600      	lsls	r0, r0, #24
70000f06:	d4fc      	bmi.n	0x70000f02
70000f08:	480f      	ldr	r0, [pc, #60]	@ (0x70000f48)
70000f0a:	6128      	str	r0, [r5, #16]
70000f0c:	f7ff ff35 	bl	0x70000d7a
70000f10:	0020      	movs	r0, r4
70000f12:	bd30      	pop	{r4, r5, pc}
70000f14:	0340      	lsls	r0, r0, #13
70000f16:	a005      	add	r0, pc, #20	@ (adr r0, 0x70000f2c)
70000f18:	4fb4      	ldr	r7, [pc, #720]	@ (0x700011ec)
70000f1a:	7000      	strb	r0, [r0, #0]
70000f1c:	0140      	lsls	r0, r0, #5
70000f1e:	a005      	add	r0, pc, #20	@ (adr r0, 0x70000f34)
70000f20:	7e10      	ldrb	r0, [r2, #24]
70000f22:	7000      	strb	r0, [r0, #0]
70000f24:	60c4      	str	r4, [r0, #12]
70000f26:	7000      	strb	r0, [r0, #0]
70000f28:	0000      	movs	r0, r0
70000f2a:	a051      	add	r0, pc, #324	@ (adr r0, 0x70001070)
70000f2c:	5431      	strb	r1, [r6, r0]
70000f2e:	0000      	movs	r0, r0
70000f30:	5009      	str	r1, [r1, r0]
70000f32:	0000      	movs	r0, r0
70000f34:	7dbc      	ldrb	r4, [r7, #22]
70000f36:	7000      	strb	r0, [r0, #0]
70000f38:	0325      	lsls	r5, r4, #12
70000f3a:	0000      	movs	r0, r0
70000f3c:	0040      	lsls	r0, r0, #1
70000f3e:	a005      	add	r0, pc, #20	@ (adr r0, 0x70000f54)
70000f40:	0000      	movs	r0, r0
70000f42:	300f      	adds	r0, #15
70000f44:	0000      	movs	r0, r0
70000f46:	700f      	strb	r7, [r1, #0]
70000f48:	0000      	movs	r0, r0
70000f4a:	100f      	asrs	r7, r1, #32
70000f4c:	000a      	movs	r2, r1
70000f4e:	0001      	movs	r1, r0
70000f50:	b510      	push	{r4, lr}
70000f52:	4802      	ldr	r0, [pc, #8]	@ (0x70000f5c)
70000f54:	f7ff fe04 	bl	0x70000b60
70000f58:	bd10      	pop	{r4, pc}
70000f5a:	0000      	movs	r0, r0
70000f5c:	2000      	movs	r0, #0
70000f5e:	0000      	movs	r0, r0
70000f60:	0003      	movs	r3, r0
70000f62:	e352      	b.n	0x7000160a
70000f64:	0029      	movs	r1, r5
70000f66:	9a00      	ldr	r2, [sp, #0]
70000f68:	c003      	stmia	r0!, {r0, r1}
70000f6a:	e210      	b.n	0x7000138e
70000f6c:	0008      	movs	r0, r1
70000f6e:	0a00      	lsrs	r0, r0, #8
70000f70:	3001      	adds	r0, #1
70000f72:	e4d1      	b.n	0x70000918
70000f74:	0002      	movs	r2, r0
70000f76:	e35c      	b.n	0x70001632
70000f78:	200c      	movs	r0, #12
70000f7a:	e082      	b.n	0x70001082
70000f7c:	c001      	stmia	r0!, {r0}
70000f7e:	94d1      	str	r4, [sp, #836]	@ 0x344
70000f80:	3001      	adds	r0, #1
70000f82:	e4c0      	b.n	0x70000906
70000f84:	3001      	adds	r0, #1
70000f86:	34d1      	adds	r4, #209	@ 0xd1
70000f88:	c001      	stmia	r0!, {r0}
70000f8a:	94c0      	str	r4, [sp, #768]	@ 0x300
70000f8c:	2004      	movs	r0, #4
70000f8e:	e242      	b.n	0x70001416
70000f90:	3001      	adds	r0, #1
70000f92:	34c0      	adds	r4, #192	@ 0xc0
70000f94:	3003      	adds	r0, #3
70000f96:	e211      	b.n	0x700013bc
70000f98:	0024      	movs	r4, r4
70000f9a:	0a00      	lsrs	r0, r0, #8
70000f9c:	2004      	movs	r0, #4
70000f9e:	e252      	b.n	0x70001446
70000fa0:	001a      	movs	r2, r3
70000fa2:	3a00      	subs	r2, #0
70000fa4:	c003      	stmia	r0!, {r0, r1}
70000fa6:	e731      	b.n	0x70000e0c
70000fa8:	0002      	movs	r2, r0
70000faa:	e353      	b.n	0x70001654
70000fac:	0008      	movs	r0, r1
70000fae:	0a00      	lsrs	r0, r0, #8
70000fb0:	000f      	movs	r7, r1
70000fb2:	8a00      	ldrh	r0, [r0, #16]
70000fb4:	342c      	adds	r4, #44	@ 0x2c
70000fb6:	e1a0      	b.n	0x700012fa
70000fb8:	c004      	stmia	r0!, {r2}
70000fba:	e5b1      	b.n	0x70000b20
70000fbc:	2004      	movs	r0, #4
70000fbe:	e252      	b.n	0x70001466
70000fc0:	3c0c      	subs	r4, #12
70000fc2:	e183      	b.n	0x700012cc
70000fc4:	3004      	adds	r0, #4
70000fc6:	e480      	b.n	0x700008ca
70000fc8:	fff9 2aff 			@ <UNDEFINED> instruction: 0xfff92aff
70000fcc:	1001      	asrs	r1, r0, #32
70000fce:	e281      	b.n	0x700014d4
70000fd0:	000e      	movs	r6, r1
70000fd2:	ea00 382c 	and.w	r8, r0, ip, asr #12
70000fd6:	e1a0      	b.n	0x7000131a
70000fd8:	c004      	stmia	r0!, {r2}
70000fda:	e5b1      	b.n	0x70000b40
70000fdc:	2004      	movs	r0, #4
70000fde:	e252      	b.n	0x70001486
70000fe0:	380c      	subs	r0, #12
70000fe2:	e183      	b.n	0x700012ec
70000fe4:	3004      	adds	r0, #4
70000fe6:	e480      	b.n	0x700008ea
70000fe8:	fff9 2aff 			@ <UNDEFINED> instruction: 0xfff92aff
70000fec:	1002      	asrs	r2, r0, #32
70000fee:	e281      	b.n	0x700014f4
70000ff0:	0006      	movs	r6, r0
70000ff2:	ea00 3c2c 	and.w	ip, r0, ip, asr #12
70000ff6:	e1a0      	b.n	0x7000133a
70000ff8:	c004      	stmia	r0!, {r2}
70000ffa:	e5b1      	b.n	0x70000b60
70000ffc:	2004      	movs	r0, #4
70000ffe:	e252      	b.n	0x700014a6
70001000:	340c      	adds	r4, #12
70001002:	e183      	b.n	0x7000130c
70001004:	3004      	adds	r0, #4
70001006:	e480      	b.n	0x7000090a
70001008:	fff9 2aff 			@ <UNDEFINED> instruction: 0xfff92aff
7000100c:	1003      	asrs	r3, r0, #32
7000100e:	e281      	b.n	0x70001514
70001010:	2f82      	cmp	r7, #130	@ 0x82
70001012:	e1b0      	b.n	0x70001376
70001014:	3001      	adds	r0, #1
70001016:	24d1      	movs	r4, #209	@ 0xd1
70001018:	c001      	stmia	r0!, {r0}
7000101a:	24d1      	movs	r4, #209	@ 0xd1
7000101c:	2001      	movs	r0, #1
7000101e:	44d1      	add	r9, sl
70001020:	3001      	adds	r0, #1
70001022:	24c0      	movs	r4, #192	@ 0xc0
70001024:	c001      	stmia	r0!, {r0}
70001026:	24c0      	movs	r4, #192	@ 0xc0
70001028:	2001      	movs	r0, #1
7000102a:	44c0      	add	r8, r8
7000102c:	ff1e e12f 	vrhadd.u16	d14, d14, d31
70001030:	0020      	movs	r0, r4
70001032:	e352      	b.n	0x700016da
70001034:	41f0      	rors	r0, r6
70001036:	292d      	cmp	r1, #45	@ 0x2d
70001038:	4010      	ands	r0, r2
7000103a:	392d      	subs	r1, #45	@ 0x2d
7000103c:	2020      	movs	r0, #32
7000103e:	e252      	b.n	0x700014e6
70001040:	000e      	movs	r6, r1
70001042:	3a00      	subs	r2, #0
70001044:	51f8      	str	r0, [r7, r7]
70001046:	28b1      	cmp	r0, #177	@ 0xb1
70001048:	51f8      	str	r0, [r7, r7]
7000104a:	28a0      	cmp	r0, #160	@ 0xa0
7000104c:	2020      	movs	r0, #32
7000104e:	2252      	movs	r2, #82	@ 0x52
70001050:	fffb 2aff 			@ <UNDEFINED> instruction: 0xfffb2aff
70001054:	ce02      	ldmia	r6!, {r1}
70001056:	e1b0      	b.n	0x700013ba
70001058:	5018      	str	r0, [r3, r0]
7000105a:	28b1      	cmp	r0, #177	@ 0xb1
7000105c:	5018      	str	r0, [r3, r0]
7000105e:	28a0      	cmp	r0, #160	@ 0xa0
70001060:	0018      	movs	r0, r3
70001062:	48b1      	ldr	r0, [pc, #708]	@ (0x70001328)
70001064:	0018      	movs	r0, r3
70001066:	48a0      	ldr	r0, [pc, #640]	@ (0x700012e8)
70001068:	41f0      	rors	r0, r6
7000106a:	e8bd cf02 	ldmia.w	sp!, {r1, r8, r9, sl, fp, lr, pc}
7000106e:	e1b0      	b.n	0x700013d2
70001070:	3004      	adds	r0, #4
70001072:	2491      	movs	r4, #145	@ 0x91
70001074:	3004      	adds	r0, #4
70001076:	2480      	movs	r4, #128	@ 0x80
70001078:	ff1e 012f 	vrhadd.u16	d0, d14, d31
7000107c:	0009      	movs	r1, r1
7000107e:	ea00 ce02 			@ <UNDEFINED> instruction: 0xea00ce02
70001082:	e1b0      	b.n	0x700013e6
70001084:	5018      	str	r0, [r3, r0]
70001086:	28b1      	cmp	r0, #177	@ 0xb1
70001088:	5018      	str	r0, [r3, r0]
7000108a:	28a0      	cmp	r0, #160	@ 0xa0
7000108c:	0018      	movs	r0, r3
7000108e:	48b1      	ldr	r0, [pc, #708]	@ (0x70001354)
70001090:	0018      	movs	r0, r3
70001092:	48a0      	ldr	r0, [pc, #640]	@ (0x70001314)
70001094:	4010      	ands	r0, r2
70001096:	e8bd cf02 	ldmia.w	sp!, {r1, r8, r9, sl, fp, lr, pc}
7000109a:	e1b0      	b.n	0x700013fe
7000109c:	3004      	adds	r0, #4
7000109e:	2491      	movs	r4, #145	@ 0x91
700010a0:	3004      	adds	r0, #4
700010a2:	2480      	movs	r4, #128	@ 0x80
700010a4:	ff1e 012f 	vrhadd.u16	d0, d14, d31
700010a8:	2f82      	cmp	r7, #130	@ 0x82
700010aa:	e1b0      	b.n	0x7000140e
700010ac:	30b2      	adds	r0, #178	@ 0xb2
700010ae:	20d1      	movs	r0, #209	@ 0xd1
700010b0:	2001      	movs	r0, #1
700010b2:	44d1      	add	r9, sl
700010b4:	30b2      	adds	r0, #178	@ 0xb2
700010b6:	20c0      	movs	r0, #192	@ 0xc0
700010b8:	2001      	movs	r0, #1
700010ba:	44c0      	add	r8, r8
700010bc:	ff1e e12f 	vrhadd.u16	d14, d14, d31
700010c0:	b570      	push	{r4, r5, r6, lr}
700010c2:	4c05      	ldr	r4, [pc, #20]	@ (0x700010d8)
700010c4:	9d03      	ldr	r5, [sp, #12]
700010c6:	a005      	add	r0, pc, #20	@ (adr r0, 0x700010dc)
700010c8:	0029      	movs	r1, r5
700010ca:	f000 fb0d 	bl	0x700016e8
700010ce:	0020      	movs	r0, r4
700010d0:	1e40      	subs	r0, r0, #1
700010d2:	d1fd      	bne.n	0x700010d0
700010d4:	e7f7      	b.n	0x700010c6
700010d6:	0000      	movs	r0, r0
700010d8:	ffff 000f 	vaddl.u<illegal width 64>	q8, d15, d15
700010dc:	7361      	strb	r1, [r4, #13]
700010de:	6573      	str	r3, [r6, #84]	@ 0x54
700010e0:	7472      	strb	r2, [r6, #17]
700010e2:	6620      	str	r0, [r4, #96]	@ 0x60
700010e4:	6961      	ldr	r1, [r4, #20]
700010e6:	206c      	movs	r0, #108	@ 0x6c
700010e8:	7461      	strb	r1, [r4, #17]
700010ea:	2520      	movs	r5, #32
700010ec:	0a78      	lsrs	r0, r7, #9
700010ee:	000d      	movs	r5, r1
700010f0:	b570      	push	{r4, r5, r6, lr}
700010f2:	4c2f      	ldr	r4, [pc, #188]	@ (0x700011b0)
700010f4:	0005      	movs	r5, r0
700010f6:	2000      	movs	r0, #0
700010f8:	62a0      	str	r0, [r4, #40]	@ 0x28
700010fa:	6aa0      	ldr	r0, [r4, #40]	@ 0x28
700010fc:	2101      	movs	r1, #1
700010fe:	4308      	orrs	r0, r1
70001100:	62a0      	str	r0, [r4, #40]	@ 0x28
70001102:	202a      	movs	r0, #42	@ 0x2a
70001104:	4368      	muls	r0, r5
70001106:	492b      	ldr	r1, [pc, #172]	@ (0x700011b4)
70001108:	1840      	adds	r0, r0, r1
7000110a:	1c49      	adds	r1, r1, #1
7000110c:	f000 ec54 	blx	0x700019b8
70001110:	211a      	movs	r1, #26
70001112:	4369      	muls	r1, r5
70001114:	1842      	adds	r2, r0, r1
70001116:	6ae1      	ldr	r1, [r4, #44]	@ 0x2c
70001118:	6ae0      	ldr	r0, [r4, #44]	@ 0x2c
7000111a:	4281      	cmp	r1, r0
7000111c:	d801      	bhi.n	0x70001122
7000111e:	1a40      	subs	r0, r0, r1
70001120:	e001      	b.n	0x70001126
70001122:	1a40      	subs	r0, r0, r1
70001124:	1e40      	subs	r0, r0, #1
70001126:	4282      	cmp	r2, r0
70001128:	d8f6      	bhi.n	0x70001118
7000112a:	bd70      	pop	{r4, r5, r6, pc}
7000112c:	b5f8      	push	{r3, r4, r5, r6, r7, lr}
7000112e:	4f22      	ldr	r7, [pc, #136]	@ (0x700011b8)
70001130:	4c22      	ldr	r4, [pc, #136]	@ (0x700011bc)
70001132:	2800      	cmp	r0, #0
70001134:	d00c      	beq.n	0x70001150
70001136:	2801      	cmp	r0, #1
70001138:	d10a      	bne.n	0x70001150
7000113a:	60a7      	str	r7, [r4, #8]
7000113c:	68a0      	ldr	r0, [r4, #8]
7000113e:	68a0      	ldr	r0, [r4, #8]
70001140:	2508      	movs	r5, #8
70001142:	0780      	lsls	r0, r0, #30
70001144:	2800      	cmp	r0, #0
70001146:	db02      	blt.n	0x7000114e
70001148:	2001      	movs	r0, #1
7000114a:	f7ff ffd1 	bl	0x700010f0
7000114e:	60a5      	str	r5, [r4, #8]
70001150:	4e1b      	ldr	r6, [pc, #108]	@ (0x700011c0)
70001152:	2500      	movs	r5, #0
70001154:	8135      	strh	r5, [r6, #8]
70001156:	81b5      	strh	r5, [r6, #12]
70001158:	481a      	ldr	r0, [pc, #104]	@ (0x700011c4)
7000115a:	8005      	strh	r5, [r0, #0]
7000115c:	2001      	movs	r0, #1
7000115e:	f7ff ffc7 	bl	0x700010f0
70001162:	4a19      	ldr	r2, [pc, #100]	@ (0x700011c8)
70001164:	8810      	ldrh	r0, [r2, #0]
70001166:	2101      	movs	r1, #1
70001168:	4308      	orrs	r0, r1
7000116a:	8010      	strh	r0, [r2, #0]
7000116c:	4816      	ldr	r0, [pc, #88]	@ (0x700011c8)
7000116e:	2205      	movs	r2, #5
70001170:	0292      	lsls	r2, r2, #10
70001172:	3840      	subs	r0, #64	@ 0x40
70001174:	8002      	strh	r2, [r0, #0]
70001176:	8085      	strh	r5, [r0, #4]
70001178:	4a12      	ldr	r2, [pc, #72]	@ (0x700011c4)
7000117a:	3ac0      	subs	r2, #192	@ 0xc0
7000117c:	8011      	strh	r1, [r2, #0]
7000117e:	8802      	ldrh	r2, [r0, #0]
70001180:	430a      	orrs	r2, r1
70001182:	8002      	strh	r2, [r0, #0]
70001184:	2032      	movs	r0, #50	@ 0x32
70001186:	f7ff ffb3 	bl	0x700010f0
7000118a:	8a30      	ldrh	r0, [r6, #16]
7000118c:	1f69      	subs	r1, r5, #5
7000118e:	4008      	ands	r0, r1
70001190:	8230      	strh	r0, [r6, #16]
70001192:	6820      	ldr	r0, [r4, #0]
70001194:	21ff      	movs	r1, #255	@ 0xff
70001196:	3101      	adds	r1, #1
70001198:	4308      	orrs	r0, r1
7000119a:	6020      	str	r0, [r4, #0]
7000119c:	480b      	ldr	r0, [pc, #44]	@ (0x700011cc)
7000119e:	61e0      	str	r0, [r4, #28]
700011a0:	60a7      	str	r7, [r4, #8]
700011a2:	2002      	movs	r0, #2
700011a4:	f7ff ffa4 	bl	0x700010f0
700011a8:	4809      	ldr	r0, [pc, #36]	@ (0x700011d0)
700011aa:	60a0      	str	r0, [r4, #8]
700011ac:	bdf8      	pop	{r3, r4, r5, r6, r7, pc}
700011ae:	0000      	movs	r0, r0
700011b0:	0000      	movs	r0, r0
700011b2:	a00c      	add	r0, pc, #48	@ (adr r0, 0x700011e4)
700011b4:	03e7      	lsls	r7, r4, #15
700011b6:	0000      	movs	r0, r0
700011b8:	8008      	strh	r0, [r1, #0]
700011ba:	0000      	movs	r0, r0
700011bc:	0100      	lsls	r0, r0, #4
700011be:	a001      	add	r0, pc, #4	@ (adr r0, 0x700011c4)
700011c0:	0040      	lsls	r0, r0, #1
700011c2:	a017      	add	r0, pc, #92	@ (adr r0, 0x70001220)
700011c4:	0700      	lsls	r0, r0, #28
700011c6:	a017      	add	r0, pc, #92	@ (adr r0, 0x70001224)
700011c8:	0140      	lsls	r0, r0, #5
700011ca:	a017      	add	r0, pc, #92	@ (adr r0, 0x70001228)
700011cc:	d001      	beq.n	0x700011d2
700011ce:	0000      	movs	r0, r0
700011d0:	b620      			@ <UNDEFINED> instruction: 0xb620
700011d2:	0000      	movs	r0, r0
700011d4:	b5f8      	push	{r3, r4, r5, r6, r7, lr}
700011d6:	0004      	movs	r4, r0
700011d8:	f000 f9ca 	bl	0x70001570
700011dc:	f7ff fdc2 	bl	0x70000d64
700011e0:	f7ff fb4e 	bl	0x70000880
700011e4:	f7ff fe40 	bl	0x70000e68
700011e8:	f7ff fb6e 	bl	0x700008c8
700011ec:	492d      	ldr	r1, [pc, #180]	@ (0x700012a4)
700011ee:	482e      	ldr	r0, [pc, #184]	@ (0x700012a8)
700011f0:	6081      	str	r1, [r0, #8]
700011f2:	492e      	ldr	r1, [pc, #184]	@ (0x700012ac)
700011f4:	6001      	str	r1, [r0, #0]
700011f6:	4d2e      	ldr	r5, [pc, #184]	@ (0x700012b0)
700011f8:	4a2d      	ldr	r2, [pc, #180]	@ (0x700012b0)
700011fa:	0023      	movs	r3, r4
700011fc:	21ff      	movs	r1, #255	@ 0xff
700011fe:	482c      	ldr	r0, [pc, #176]	@ (0x700012b0)
70001200:	31f1      	adds	r1, #241	@ 0xf1
70001202:	3de0      	subs	r5, #224	@ 0xe0
70001204:	24f0      	movs	r4, #240	@ 0xf0
70001206:	2680      	movs	r6, #128	@ 0x80
70001208:	3a20      	subs	r2, #32
7000120a:	2770      	movs	r7, #112	@ 0x70
7000120c:	f000 eaf8 	blx	0x70001800
70001210:	4806      	ldr	r0, [pc, #24]	@ (0x7000122c)
70001212:	0904      	lsrs	r4, r0, #4
70001214:	2f26      	cmp	r7, #38	@ 0x26
70001216:	483c      	ldr	r0, [pc, #240]	@ (0x70001308)
70001218:	8a03      	ldrh	r3, [r0, #16]
7000121a:	438b      	bics	r3, r1
7000121c:	2160      	movs	r1, #96	@ 0x60
7000121e:	430b      	orrs	r3, r1
70001220:	e035      	b.n	0x7000128e
70001222:	8a03      	ldrh	r3, [r0, #16]
70001224:	438b      	bics	r3, r1
70001226:	4333      	orrs	r3, r6
70001228:	e025      	b.n	0x70001276
7000122a:	8090      	strh	r0, [r2, #4]
7000122c:	2004      	movs	r0, #4
7000122e:	f7ff ff5f 	bl	0x700010f0
70001232:	4920      	ldr	r1, [pc, #128]	@ (0x700012b4)
70001234:	2001      	movs	r0, #1
70001236:	0340      	lsls	r0, r0, #13
70001238:	6188      	str	r0, [r1, #24]
7000123a:	491f      	ldr	r1, [pc, #124]	@ (0x700012b8)
7000123c:	6148      	str	r0, [r1, #20]
7000123e:	481f      	ldr	r0, [pc, #124]	@ (0x700012bc)
70001240:	6841      	ldr	r1, [r0, #4]
70001242:	4a1f      	ldr	r2, [pc, #124]	@ (0x700012c0)
70001244:	4011      	ands	r1, r2
70001246:	6041      	str	r1, [r0, #4]
70001248:	200a      	movs	r0, #10
7000124a:	f7ff ff51 	bl	0x700010f0
7000124e:	491d      	ldr	r1, [pc, #116]	@ (0x700012c4)
70001250:	6a08      	ldr	r0, [r1, #32]
70001252:	4a1b      	ldr	r2, [pc, #108]	@ (0x700012c0)
70001254:	1dd2      	adds	r2, r2, #7
70001256:	4010      	ands	r0, r2
70001258:	6208      	str	r0, [r1, #32]
7000125a:	e022      	b.n	0x700012a2
7000125c:	8a03      	ldrh	r3, [r0, #16]
7000125e:	438b      	bics	r3, r1
70001260:	2140      	movs	r1, #64	@ 0x40
70001262:	430b      	orrs	r3, r1
70001264:	8203      	strh	r3, [r0, #16]
70001266:	8aa8      	ldrh	r0, [r5, #20]
70001268:	43a0      	bics	r0, r4
7000126a:	4330      	orrs	r0, r6
7000126c:	e007      	b.n	0x7000127e
7000126e:	8a03      	ldrh	r3, [r0, #16]
70001270:	438b      	bics	r3, r1
70001272:	2160      	movs	r1, #96	@ 0x60
70001274:	430b      	orrs	r3, r1
70001276:	8203      	strh	r3, [r0, #16]
70001278:	8aa8      	ldrh	r0, [r5, #20]
7000127a:	43a0      	bics	r0, r4
7000127c:	4338      	orrs	r0, r7
7000127e:	82a8      	strh	r0, [r5, #20]
70001280:	8890      	ldrh	r0, [r2, #4]
70001282:	43a0      	bics	r0, r4
70001284:	4338      	orrs	r0, r7
70001286:	e7d0      	b.n	0x7000122a
70001288:	8a03      	ldrh	r3, [r0, #16]
7000128a:	438b      	bics	r3, r1
7000128c:	4333      	orrs	r3, r6
7000128e:	8203      	strh	r3, [r0, #16]
70001290:	8aa8      	ldrh	r0, [r5, #20]
70001292:	43a0      	bics	r0, r4
70001294:	4330      	orrs	r0, r6
70001296:	82a8      	strh	r0, [r5, #20]
70001298:	8890      	ldrh	r0, [r2, #4]
7000129a:	43a0      	bics	r0, r4
7000129c:	4330      	orrs	r0, r6
7000129e:	e7c4      	b.n	0x7000122a
700012a0:	e7fe      	b.n	0x700012a0
700012a2:	e7fe      	b.n	0x700012a2
700012a4:	2fff      	cmp	r7, #255	@ 0xff
700012a6:	1000      	asrs	r0, r0, #32
700012a8:	0300      	lsls	r0, r0, #12
700012aa:	a005      	add	r0, pc, #20	@ (adr r0, 0x700012c0)
700012ac:	2321      	movs	r3, #33	@ 0x21
700012ae:	a55a      	add	r5, pc, #360	@ (adr r5, 0x70001418)
700012b0:	0220      	lsls	r0, r4, #8
700012b2:	a070      	add	r0, pc, #448	@ (adr r0, 0x70001474)
700012b4:	0300      	lsls	r0, r0, #12
700012b6:	a002      	add	r0, pc, #8	@ (adr r0, 0x700012c0)
700012b8:	0000      	movs	r0, r0
700012ba:	a002      	add	r0, pc, #8	@ (adr r0, 0x700012c4)
700012bc:	0a80      	lsrs	r0, r0, #10
700012be:	a070      	add	r0, pc, #448	@ (adr r0, 0x70001480)
700012c0:	fff7 0000 	vcvta.s16.f16	d16, d0
700012c4:	0100      	lsls	r0, r0, #4
700012c6:	a070      	add	r0, pc, #448	@ (adr r0, 0x70001488)
700012c8:	0003      	movs	r3, r0
700012ca:	430b      	orrs	r3, r1
700012cc:	0002      	movs	r2, r0
700012ce:	b570      	push	{r4, r5, r6, lr}
700012d0:	079b      	lsls	r3, r3, #30
700012d2:	d110      	bne.n	0x700012f6
700012d4:	4c0e      	ldr	r4, [pc, #56]	@ (0x70001310)
700012d6:	01e5      	lsls	r5, r4, #7
700012d8:	e000      	b.n	0x700012dc
700012da:	c208      	stmia	r2!, {r3}
700012dc:	c908      	ldmia	r1!, {r3}
700012de:	1b1e      	subs	r6, r3, r4
700012e0:	439e      	bics	r6, r3
700012e2:	422e      	tst	r6, r5
700012e4:	d0f9      	beq.n	0x700012da
700012e6:	0619      	lsls	r1, r3, #24
700012e8:	0e09      	lsrs	r1, r1, #24
700012ea:	7011      	strb	r1, [r2, #0]
700012ec:	1c52      	adds	r2, r2, #1
700012ee:	2900      	cmp	r1, #0
700012f0:	d00d      	beq.n	0x7000130e
700012f2:	0a1b      	lsrs	r3, r3, #8
700012f4:	e7f7      	b.n	0x700012e6
700012f6:	780c      	ldrb	r4, [r1, #0]
700012f8:	1c49      	adds	r1, r1, #1
700012fa:	1c53      	adds	r3, r2, #1
700012fc:	2c00      	cmp	r4, #0
700012fe:	7014      	strb	r4, [r2, #0]
70001300:	d005      	beq.n	0x7000130e
70001302:	780c      	ldrb	r4, [r1, #0]
70001304:	1c49      	adds	r1, r1, #1
70001306:	1c5a      	adds	r2, r3, #1
70001308:	2c00      	cmp	r4, #0
7000130a:	701c      	strb	r4, [r3, #0]
7000130c:	d1f3      	bne.n	0x700012f6
7000130e:	bd70      	pop	{r4, r5, r6, pc}
70001310:	0101      	lsls	r1, r0, #4
70001312:	0101      	lsls	r1, r0, #4
70001314:	b530      	push	{r4, r5, lr}
70001316:	4a0f      	ldr	r2, [pc, #60]	@ (0x70001354)
70001318:	4c0f      	ldr	r4, [pc, #60]	@ (0x70001358)
7000131a:	2100      	movs	r1, #0
7000131c:	81a2      	strh	r2, [r4, #12]
7000131e:	4a0e      	ldr	r2, [pc, #56]	@ (0x70001358)
70001320:	4b0e      	ldr	r3, [pc, #56]	@ (0x7000135c)
70001322:	3a40      	subs	r2, #64	@ 0x40
70001324:	8815      	ldrh	r5, [r2, #0]
70001326:	066d      	lsls	r5, r5, #25
70001328:	d502      	bpl.n	0x70001330
7000132a:	1c49      	adds	r1, r1, #1
7000132c:	4299      	cmp	r1, r3
7000132e:	d3f9      	bcc.n	0x70001324
70001330:	4d0b      	ldr	r5, [pc, #44]	@ (0x70001360)
70001332:	2100      	movs	r1, #0
70001334:	81a5      	strh	r5, [r4, #12]
70001336:	8815      	ldrh	r5, [r2, #0]
70001338:	066d      	lsls	r5, r5, #25
7000133a:	d502      	bpl.n	0x70001342
7000133c:	1c49      	adds	r1, r1, #1
7000133e:	4299      	cmp	r1, r3
70001340:	d3f9      	bcc.n	0x70001336
70001342:	2100      	movs	r1, #0
70001344:	81a0      	strh	r0, [r4, #12]
70001346:	8810      	ldrh	r0, [r2, #0]
70001348:	0640      	lsls	r0, r0, #25
7000134a:	d502      	bpl.n	0x70001352
7000134c:	1c49      	adds	r1, r1, #1
7000134e:	4299      	cmp	r1, r3
70001350:	d3f9      	bcc.n	0x70001346
70001352:	bd30      	pop	{r4, r5, pc}
70001354:	1a57      	subs	r7, r2, r1
70001356:	0000      	movs	r0, r0
70001358:	0040      	lsls	r0, r0, #1
7000135a:	a071      	add	r0, pc, #452	@ (adr r0, 0x70001520)
7000135c:	ffff 0000 	vaddl.u<illegal width 64>	q8, d15, d0
70001360:	2b68      	cmp	r3, #104	@ 0x68
70001362:	0000      	movs	r0, r0
70001364:	b51f      	push	{r0, r1, r2, r3, r4, lr}
70001366:	2200      	movs	r2, #0
70001368:	9201      	str	r2, [sp, #4]
7000136a:	9202      	str	r2, [sp, #8]
7000136c:	9203      	str	r2, [sp, #12]
7000136e:	9200      	str	r2, [sp, #0]
70001370:	22db      	movs	r2, #219	@ 0xdb
70001372:	2300      	movs	r3, #0
70001374:	a103      	add	r1, pc, #12	@ (adr r1, 0x70001384)
70001376:	a00c      	add	r0, pc, #48	@ (adr r0, 0x700013a8)
70001378:	f7ff fea2 	bl	0x700010c0
7000137c:	2000      	movs	r0, #0
7000137e:	b004      	add	sp, #16
70001380:	bd10      	pop	{r4, pc}
70001382:	0000      	movs	r0, r0
70001384:	6168      	str	r0, [r5, #20]
70001386:	5c6c      	ldrb	r4, [r5, r1]
70001388:	7973      	ldrb	r3, [r6, #5]
7000138a:	7473      	strb	r3, [r6, #17]
7000138c:	6d65      	ldr	r5, [r4, #84]	@ 0x54
7000138e:	625c      	str	r4, [r3, #36]	@ 0x24
70001390:	6f6f      	ldr	r7, [r5, #116]	@ 0x74
70001392:	6c74      	ldr	r4, [r6, #68]	@ 0x44
70001394:	616f      	str	r7, [r5, #20]
70001396:	6564      	str	r4, [r4, #84]	@ 0x54
70001398:	5c72      	ldrb	r2, [r6, r1]
7000139a:	7273      	strb	r3, [r6, #9]
7000139c:	5c63      	ldrb	r3, [r4, r1]
7000139e:	6c62      	ldr	r2, [r4, #68]	@ 0x44
700013a0:	465f      	mov	r7, fp
700013a2:	4c54      	ldr	r4, [pc, #336]	@ (0x700014f4)
700013a4:	632e      	str	r6, [r5, #48]	@ 0x30
700013a6:	0000      	movs	r0, r0
700013a8:	0030      	movs	r0, r6
700013aa:	0000      	movs	r0, r0
700013ac:	b51f      	push	{r0, r1, r2, r3, r4, lr}
700013ae:	2200      	movs	r2, #0
700013b0:	9201      	str	r2, [sp, #4]
700013b2:	9202      	str	r2, [sp, #8]
700013b4:	9203      	str	r2, [sp, #12]
700013b6:	9200      	str	r2, [sp, #0]
700013b8:	22e1      	movs	r2, #225	@ 0xe1
700013ba:	2300      	movs	r3, #0
700013bc:	a103      	add	r1, pc, #12	@ (adr r1, 0x700013cc)
700013be:	a00c      	add	r0, pc, #48	@ (adr r0, 0x700013f0)
700013c0:	f7ff fe7e 	bl	0x700010c0
700013c4:	2000      	movs	r0, #0
700013c6:	b004      	add	sp, #16
700013c8:	bd10      	pop	{r4, pc}
700013ca:	0000      	movs	r0, r0
700013cc:	6168      	str	r0, [r5, #20]
700013ce:	5c6c      	ldrb	r4, [r5, r1]
700013d0:	7973      	ldrb	r3, [r6, #5]
700013d2:	7473      	strb	r3, [r6, #17]
700013d4:	6d65      	ldr	r5, [r4, #84]	@ 0x54
700013d6:	625c      	str	r4, [r3, #36]	@ 0x24
700013d8:	6f6f      	ldr	r7, [r5, #116]	@ 0x74
700013da:	6c74      	ldr	r4, [r6, #68]	@ 0x44
700013dc:	616f      	str	r7, [r5, #20]
700013de:	6564      	str	r4, [r4, #84]	@ 0x54
700013e0:	5c72      	ldrb	r2, [r6, r1]
700013e2:	7273      	strb	r3, [r6, #9]
700013e4:	5c63      	ldrb	r3, [r4, r1]
700013e6:	6c62      	ldr	r2, [r4, #68]	@ 0x44
700013e8:	465f      	mov	r7, fp
700013ea:	4c54      	ldr	r4, [pc, #336]	@ (0x7000153c)
700013ec:	632e      	str	r6, [r5, #48]	@ 0x30
700013ee:	0000      	movs	r0, r0
700013f0:	0030      	movs	r0, r6
700013f2:	0000      	movs	r0, r0
700013f4:	2000      	movs	r0, #0
700013f6:	4770      	bx	lr
700013f8:	2000      	movs	r0, #0
700013fa:	4770      	bx	lr
700013fc:	2000      	movs	r0, #0
700013fe:	4770      	bx	lr
70001400:	2001      	movs	r0, #1
70001402:	0400      	lsls	r0, r0, #16
70001404:	4770      	bx	lr
70001406:	2001      	movs	r0, #1
70001408:	0240      	lsls	r0, r0, #9
7000140a:	4770      	bx	lr
7000140c:	2000      	movs	r0, #0
7000140e:	4770      	bx	lr
70001410:	2000      	movs	r0, #0
70001412:	4770      	bx	lr
70001414:	b570      	push	{r4, r5, r6, lr}
70001416:	0006      	movs	r6, r0
70001418:	000d      	movs	r5, r1
7000141a:	0014      	movs	r4, r2
7000141c:	f000 f962 	bl	0x700016e4
70001420:	0431      	lsls	r1, r6, #16
70001422:	026a      	lsls	r2, r5, #9
70001424:	1889      	adds	r1, r1, r2
70001426:	4301      	orrs	r1, r0
70001428:	2201      	movs	r2, #1
7000142a:	0252      	lsls	r2, r2, #9
7000142c:	0020      	movs	r0, r4
7000142e:	f7ff ed98 	blx	0x70000f60
70001432:	2000      	movs	r0, #0
70001434:	bd70      	pop	{r4, r5, r6, pc}
70001436:	0000      	movs	r0, r0
70001438:	b51f      	push	{r0, r1, r2, r3, r4, lr}
7000143a:	2200      	movs	r2, #0
7000143c:	9201      	str	r2, [sp, #4]
7000143e:	9202      	str	r2, [sp, #8]
70001440:	9203      	str	r2, [sp, #12]
70001442:	9200      	str	r2, [sp, #0]
70001444:	22bc      	movs	r2, #188	@ 0xbc
70001446:	2300      	movs	r3, #0
70001448:	a103      	add	r1, pc, #12	@ (adr r1, 0x70001458)
7000144a:	a00c      	add	r0, pc, #48	@ (adr r0, 0x7000147c)
7000144c:	f7ff fe38 	bl	0x700010c0
70001450:	2000      	movs	r0, #0
70001452:	b004      	add	sp, #16
70001454:	bd10      	pop	{r4, pc}
70001456:	0000      	movs	r0, r0
70001458:	6168      	str	r0, [r5, #20]
7000145a:	5c6c      	ldrb	r4, [r5, r1]
7000145c:	7973      	ldrb	r3, [r6, #5]
7000145e:	7473      	strb	r3, [r6, #17]
70001460:	6d65      	ldr	r5, [r4, #84]	@ 0x54
70001462:	625c      	str	r4, [r3, #36]	@ 0x24
70001464:	6f6f      	ldr	r7, [r5, #116]	@ 0x74
70001466:	6c74      	ldr	r4, [r6, #68]	@ 0x44
70001468:	616f      	str	r7, [r5, #20]
7000146a:	6564      	str	r4, [r4, #84]	@ 0x54
7000146c:	5c72      	ldrb	r2, [r6, r1]
7000146e:	7273      	strb	r3, [r6, #9]
70001470:	5c63      	ldrb	r3, [r4, r1]
70001472:	6c62      	ldr	r2, [r4, #68]	@ 0x44
70001474:	465f      	mov	r7, fp
70001476:	4c54      	ldr	r4, [pc, #336]	@ (0x700015c8)
70001478:	632e      	str	r6, [r5, #48]	@ 0x30
7000147a:	0000      	movs	r0, r0
7000147c:	0030      	movs	r0, r6
7000147e:	0000      	movs	r0, r0
70001480:	b5ff      	push	{r0, r1, r2, r3, r4, r5, r6, r7, lr}
70001482:	2400      	movs	r4, #0
70001484:	0005      	movs	r5, r0
70001486:	0026      	movs	r6, r4
70001488:	b081      	sub	sp, #4
7000148a:	2900      	cmp	r1, #0
7000148c:	9400      	str	r4, [sp, #0]
7000148e:	d000      	beq.n	0x70001492
70001490:	2601      	movs	r6, #1
70001492:	07a8      	lsls	r0, r5, #30
70001494:	d002      	beq.n	0x7000149c
70001496:	481a      	ldr	r0, [pc, #104]	@ (0x70001500)
70001498:	b005      	add	sp, #20
7000149a:	bdf0      	pop	{r4, r5, r6, r7, pc}
7000149c:	0028      	movs	r0, r5
7000149e:	f000 f8ed 	bl	0x7000167c
700014a2:	28ff      	cmp	r0, #255	@ 0xff
700014a4:	d2f8      	bcs.n	0x70001498
700014a6:	6aab      	ldr	r3, [r5, #40]	@ 0x28
700014a8:	2000      	movs	r0, #0
700014aa:	e01c      	b.n	0x700014e6
700014ac:	1829      	adds	r1, r5, r0
700014ae:	4f15      	ldr	r7, [pc, #84]	@ (0x70001504)
700014b0:	680a      	ldr	r2, [r1, #0]
700014b2:	42ba      	cmp	r2, r7
700014b4:	d019      	beq.n	0x700014ea
700014b6:	4f14      	ldr	r7, [pc, #80]	@ (0x70001508)
700014b8:	0212      	lsls	r2, r2, #8
700014ba:	42ba      	cmp	r2, r7
700014bc:	d11c      	bne.n	0x700014f8
700014be:	888a      	ldrh	r2, [r1, #4]
700014c0:	1810      	adds	r0, r2, r0
700014c2:	2a08      	cmp	r2, #8
700014c4:	d301      	bcc.n	0x700014ca
700014c6:	4283      	cmp	r3, r0
700014c8:	d202      	bcs.n	0x700014d0
700014ca:	480d      	ldr	r0, [pc, #52]	@ (0x70001500)
700014cc:	3808      	subs	r0, #8
700014ce:	e7e3      	b.n	0x70001498
700014d0:	88ca      	ldrh	r2, [r1, #6]
700014d2:	9f03      	ldr	r7, [sp, #12]
700014d4:	42ba      	cmp	r2, r7
700014d6:	d106      	bne.n	0x700014e6
700014d8:	9a0a      	ldr	r2, [sp, #40]	@ 0x28
700014da:	4294      	cmp	r4, r2
700014dc:	d102      	bne.n	0x700014e4
700014de:	9804      	ldr	r0, [sp, #16]
700014e0:	6001      	str	r1, [r0, #0]
700014e2:	e007      	b.n	0x700014f4
700014e4:	1c64      	adds	r4, r4, #1
700014e6:	4298      	cmp	r0, r3
700014e8:	d3e0      	bcc.n	0x700014ac
700014ea:	2e00      	cmp	r6, #0
700014ec:	d004      	beq.n	0x700014f8
700014ee:	9800      	ldr	r0, [sp, #0]
700014f0:	2800      	cmp	r0, #0
700014f2:	d001      	beq.n	0x700014f8
700014f4:	2000      	movs	r0, #0
700014f6:	e7cf      	b.n	0x70001498
700014f8:	4801      	ldr	r0, [pc, #4]	@ (0x70001500)
700014fa:	380b      	subs	r0, #11
700014fc:	e7cc      	b.n	0x70001498
700014fe:	0000      	movs	r0, r0
70001500:	800c      	strh	r4, [r1, #0]
70001502:	0000      	movs	r0, r0
70001504:	4545      	cmp	r5, r8
70001506:	4545      	cmp	r5, r8
70001508:	4d00      	ldr	r5, [pc, #0]	@ (0x7000150c)
7000150a:	4d4d      	ldr	r5, [pc, #308]	@ (0x70001640)
7000150c:	b538      	push	{r3, r4, r5, lr}
7000150e:	0015      	movs	r5, r2
70001510:	9a04      	ldr	r2, [sp, #16]
70001512:	9200      	str	r2, [sp, #0]
70001514:	4a02      	ldr	r2, [pc, #8]	@ (0x70001520)
70001516:	6812      	ldr	r2, [r2, #0]
70001518:	6854      	ldr	r4, [r2, #4]
7000151a:	002a      	movs	r2, r5
7000151c:	47a0      	blx	r4
7000151e:	bd38      	pop	{r3, r4, r5, pc}
70001520:	7ec8      	ldrb	r0, [r1, #27]
70001522:	7000      	strb	r0, [r0, #0]
70001524:	b5f8      	push	{r3, r4, r5, r6, r7, lr}
70001526:	4c0f      	ldr	r4, [pc, #60]	@ (0x70001564)
70001528:	000d      	movs	r5, r1
7000152a:	6821      	ldr	r1, [r4, #0]
7000152c:	0016      	movs	r6, r2
7000152e:	680a      	ldr	r2, [r1, #0]
70001530:	001f      	movs	r7, r3
70001532:	2100      	movs	r1, #0
70001534:	4790      	blx	r2
70001536:	2800      	cmp	r0, #0
70001538:	d112      	bne.n	0x70001560
7000153a:	6820      	ldr	r0, [r4, #0]
7000153c:	2100      	movs	r1, #0
7000153e:	6882      	ldr	r2, [r0, #8]
70001540:	0028      	movs	r0, r5
70001542:	4790      	blx	r2
70001544:	2800      	cmp	r0, #0
70001546:	d10b      	bne.n	0x70001560
70001548:	6820      	ldr	r0, [r4, #0]
7000154a:	2100      	movs	r1, #0
7000154c:	6982      	ldr	r2, [r0, #24]
7000154e:	0030      	movs	r0, r6
70001550:	4790      	blx	r2
70001552:	2800      	cmp	r0, #0
70001554:	d104      	bne.n	0x70001560
70001556:	6820      	ldr	r0, [r4, #0]
70001558:	2100      	movs	r1, #0
7000155a:	6b42      	ldr	r2, [r0, #52]	@ 0x34
7000155c:	0038      	movs	r0, r7
7000155e:	4790      	blx	r2
70001560:	bdf8      	pop	{r3, r4, r5, r6, r7, pc}
70001562:	0000      	movs	r0, r0
70001564:	7ec8      	ldrb	r0, [r1, #27]
70001566:	7000      	strb	r0, [r0, #0]
70001568:	2001      	movs	r0, #1
7000156a:	0700      	lsls	r0, r0, #28
7000156c:	4770      	bx	lr
7000156e:	0000      	movs	r0, r0
70001570:	b570      	push	{r4, r5, r6, lr}
70001572:	4e28      	ldr	r6, [pc, #160]	@ (0x70001614)
70001574:	0004      	movs	r4, r0
70001576:	2500      	movs	r5, #0
70001578:	8135      	strh	r5, [r6, #8]
7000157a:	81b5      	strh	r5, [r6, #12]
7000157c:	4826      	ldr	r0, [pc, #152]	@ (0x70001618)
7000157e:	8005      	strh	r5, [r0, #0]
70001580:	2001      	movs	r0, #1
70001582:	f7ff fdb5 	bl	0x700010f0
70001586:	4925      	ldr	r1, [pc, #148]	@ (0x7000161c)
70001588:	8808      	ldrh	r0, [r1, #0]
7000158a:	2201      	movs	r2, #1
7000158c:	4310      	orrs	r0, r2
7000158e:	8008      	strh	r0, [r1, #0]
70001590:	4822      	ldr	r0, [pc, #136]	@ (0x7000161c)
70001592:	2105      	movs	r1, #5
70001594:	0289      	lsls	r1, r1, #10
70001596:	3840      	subs	r0, #64	@ 0x40
70001598:	2c02      	cmp	r4, #2
7000159a:	d004      	beq.n	0x700015a6
7000159c:	2c05      	cmp	r4, #5
7000159e:	d002      	beq.n	0x700015a6
700015a0:	2c03      	cmp	r4, #3
700015a2:	d100      	bne.n	0x700015a6
700015a4:	02e1      	lsls	r1, r4, #11
700015a6:	8001      	strh	r1, [r0, #0]
700015a8:	8085      	strh	r5, [r0, #4]
700015aa:	491b      	ldr	r1, [pc, #108]	@ (0x70001618)
700015ac:	39c0      	subs	r1, #192	@ 0xc0
700015ae:	800a      	strh	r2, [r1, #0]
700015b0:	8801      	ldrh	r1, [r0, #0]
700015b2:	4311      	orrs	r1, r2
700015b4:	8001      	strh	r1, [r0, #0]
700015b6:	2032      	movs	r0, #50	@ 0x32
700015b8:	f7ff fd9a 	bl	0x700010f0
700015bc:	8a30      	ldrh	r0, [r6, #16]
700015be:	2104      	movs	r1, #4
700015c0:	43c9      	mvns	r1, r1
700015c2:	4008      	ands	r0, r1
700015c4:	8230      	strh	r0, [r6, #16]
700015c6:	4d16      	ldr	r5, [pc, #88]	@ (0x70001620)
700015c8:	2c02      	cmp	r4, #2
700015ca:	d003      	beq.n	0x700015d4
700015cc:	2c03      	cmp	r4, #3
700015ce:	d010      	beq.n	0x700015f2
700015d0:	2c05      	cmp	r4, #5
700015d2:	d11d      	bne.n	0x70001610
700015d4:	6828      	ldr	r0, [r5, #0]
700015d6:	21ff      	movs	r1, #255	@ 0xff
700015d8:	3101      	adds	r1, #1
700015da:	4308      	orrs	r0, r1
700015dc:	6028      	str	r0, [r5, #0]
700015de:	2c03      	cmp	r4, #3
700015e0:	d10d      	bne.n	0x700015fe
700015e2:	4810      	ldr	r0, [pc, #64]	@ (0x70001624)
700015e4:	61e8      	str	r0, [r5, #28]
700015e6:	6828      	ldr	r0, [r5, #0]
700015e8:	2101      	movs	r1, #1
700015ea:	0309      	lsls	r1, r1, #12
700015ec:	4308      	orrs	r0, r1
700015ee:	6028      	str	r0, [r5, #0]
700015f0:	e007      	b.n	0x70001602
700015f2:	6828      	ldr	r0, [r5, #0]
700015f4:	2181      	movs	r1, #129	@ 0x81
700015f6:	0209      	lsls	r1, r1, #8
700015f8:	4308      	orrs	r0, r1
700015fa:	6028      	str	r0, [r5, #0]
700015fc:	e7f1      	b.n	0x700015e2
700015fe:	480a      	ldr	r0, [pc, #40]	@ (0x70001628)
70001600:	61e8      	str	r0, [r5, #28]
70001602:	480a      	ldr	r0, [pc, #40]	@ (0x7000162c)
70001604:	60a8      	str	r0, [r5, #8]
70001606:	2002      	movs	r0, #2
70001608:	f7ff fd72 	bl	0x700010f0
7000160c:	4808      	ldr	r0, [pc, #32]	@ (0x70001630)
7000160e:	60a8      	str	r0, [r5, #8]
70001610:	bd70      	pop	{r4, r5, r6, pc}
70001612:	0000      	movs	r0, r0
70001614:	0040      	lsls	r0, r0, #1
70001616:	a017      	add	r0, pc, #92	@ (adr r0, 0x70001674)
70001618:	0700      	lsls	r0, r0, #28
7000161a:	a017      	add	r0, pc, #92	@ (adr r0, 0x70001678)
7000161c:	0140      	lsls	r0, r0, #5
7000161e:	a017      	add	r0, pc, #92	@ (adr r0, 0x7000167c)
70001620:	0100      	lsls	r0, r0, #4
70001622:	a001      	add	r0, pc, #4	@ (adr r0, 0x70001628)
70001624:	da12      	bge.n	0x7000164c
70001626:	0000      	movs	r0, r0
70001628:	d001      	beq.n	0x7000162e
7000162a:	0000      	movs	r0, r0
7000162c:	8008      	strh	r0, [r1, #0]
7000162e:	0000      	movs	r0, r0
70001630:	b621      			@ <UNDEFINED> instruction: 0xb621
70001632:	0000      	movs	r0, r0
70001634:	b5f8      	push	{r3, r4, r5, r6, r7, lr}
70001636:	4d07      	ldr	r5, [pc, #28]	@ (0x70001654)
70001638:	0006      	movs	r6, r0
7000163a:	000f      	movs	r7, r1
7000163c:	0014      	movs	r4, r2
7000163e:	0023      	movs	r3, r4
70001640:	003a      	movs	r2, r7
70001642:	0031      	movs	r1, r6
70001644:	a004      	add	r0, pc, #16	@ (adr r0, 0x70001658)
70001646:	f000 f84f 	bl	0x700016e8
7000164a:	0028      	movs	r0, r5
7000164c:	1e40      	subs	r0, r0, #1
7000164e:	d1fd      	bne.n	0x7000164c
70001650:	e7f5      	b.n	0x7000163e
70001652:	0000      	movs	r0, r0
70001654:	ffff 000f 	vaddl.u<illegal width 64>	q8, d15, d15
70001658:	7361      	strb	r1, [r4, #13]
7000165a:	6573      	str	r3, [r6, #84]	@ 0x54
7000165c:	7472      	strb	r2, [r6, #17]
7000165e:	6620      	str	r0, [r4, #96]	@ 0x60
70001660:	6961      	ldr	r1, [r4, #20]
70001662:	206c      	movs	r0, #108	@ 0x6c
70001664:	2528      	movs	r5, #40	@ 0x28
70001666:	2973      	cmp	r1, #115	@ 0x73
70001668:	6120      	str	r0, [r4, #16]
7000166a:	2074      	movs	r0, #116	@ 0x74
7000166c:	7325      	strb	r5, [r4, #12]
7000166e:	6c20      	ldr	r0, [r4, #64]	@ 0x40
70001670:	6e69      	ldr	r1, [r5, #100]	@ 0x64
70001672:	2065      	movs	r0, #101	@ 0x65
70001674:	6425      	str	r5, [r4, #64]	@ 0x40
70001676:	0d0a      	lsrs	r2, r1, #20
70001678:	0000      	movs	r0, r0
7000167a:	0000      	movs	r0, r0
7000167c:	b510      	push	{r4, lr}
7000167e:	6801      	ldr	r1, [r0, #0]
70001680:	0004      	movs	r4, r0
70001682:	4813      	ldr	r0, [pc, #76]	@ (0x700016d0)
70001684:	0209      	lsls	r1, r1, #8
70001686:	4281      	cmp	r1, r0
70001688:	d109      	bne.n	0x7000169e
7000168a:	88e0      	ldrh	r0, [r4, #6]
7000168c:	2800      	cmp	r0, #0
7000168e:	d106      	bne.n	0x7000169e
70001690:	0020      	movs	r0, r4
70001692:	3008      	adds	r0, #8
70001694:	a10f      	add	r1, pc, #60	@ (adr r1, 0x700016d4)
70001696:	f000 e8c0 	blx	0x70001818
7000169a:	2800      	cmp	r0, #0
7000169c:	d001      	beq.n	0x700016a2
7000169e:	4810      	ldr	r0, [pc, #64]	@ (0x700016e0)
700016a0:	bd10      	pop	{r4, pc}
700016a2:	480f      	ldr	r0, [pc, #60]	@ (0x700016e0)
700016a4:	6aa1      	ldr	r1, [r4, #40]	@ 0x28
700016a6:	1c40      	adds	r0, r0, #1
700016a8:	2900      	cmp	r1, #0
700016aa:	d0f9      	beq.n	0x700016a0
700016ac:	2201      	movs	r2, #1
700016ae:	0512      	lsls	r2, r2, #20
700016b0:	4291      	cmp	r1, r2
700016b2:	d8f5      	bhi.n	0x700016a0
700016b4:	6a22      	ldr	r2, [r4, #32]
700016b6:	2a00      	cmp	r2, #0
700016b8:	d002      	beq.n	0x700016c0
700016ba:	0783      	lsls	r3, r0, #30
700016bc:	429a      	cmp	r2, r3
700016be:	d902      	bls.n	0x700016c6
700016c0:	4807      	ldr	r0, [pc, #28]	@ (0x700016e0)
700016c2:	1c80      	adds	r0, r0, #2
700016c4:	bd10      	pop	{r4, pc}
700016c6:	4291      	cmp	r1, r2
700016c8:	d8fc      	bhi.n	0x700016c4
700016ca:	2000      	movs	r0, #0
700016cc:	bd10      	pop	{r4, pc}
700016ce:	0000      	movs	r0, r0
700016d0:	4d00      	ldr	r5, [pc, #0]	@ (0x700016d4)
700016d2:	4d4d      	ldr	r5, [pc, #308]	@ (0x70001808)
700016d4:	4946      	ldr	r1, [pc, #280]	@ (0x700017f0)
700016d6:	454c      	cmp	r4, r9
700016d8:	495f      	ldr	r1, [pc, #380]	@ (0x70001858)
700016da:	464e      	mov	r6, r9
700016dc:	004f      	lsls	r7, r1, #1
700016de:	0000      	movs	r0, r0
700016e0:	8005      	strh	r5, [r0, #0]
700016e2:	0000      	movs	r0, r0
700016e4:	2000      	movs	r0, #0
700016e6:	4770      	bx	lr
700016e8:	4770      	bx	lr
700016ea:	0000      	movs	r0, r0
700016ec:	700e      	strb	r6, [r1, #0]
700016ee:	e1a0      	b.n	0x70001a32
700016f0:	00b4      	lsls	r4, r6, #2
700016f2:	e59f      	b.n	0x70001234
700016f4:	10b4      	asrs	r4, r6, #2
700016f6:	e59f      	b.n	0x70001238
700016f8:	2001      	movs	r0, #1
700016fa:	e1a0      	b.n	0x70001a3e
700016fc:	30b0      	adds	r0, #176	@ 0xb0
700016fe:	e59f      	b.n	0x70001240
70001700:	2003      	movs	r0, #3
70001702:	e082      	b.n	0x7000180a
70001704:	fd65 ebff 	stc2l	11, cr14, [r5, #-1020]!	@ 0xfffffc04	@ <UNPREDICTABLE>
70001708:	20a8      	movs	r0, #168	@ 0xa8
7000170a:	e59f      	b.n	0x7000124c
7000170c:	00a8      	lsls	r0, r5, #2
7000170e:	e59f      	b.n	0x70001250
70001710:	1000      	asrs	r0, r0, #32
70001712:	e1a0      	b.n	0x70001a56
70001714:	1002      	asrs	r2, r0, #32
70001716:	e081      	b.n	0x7000181c
70001718:	fd6d ebff 	stc2l	11, cr14, [sp, #-1020]!	@ 0xfffffc04	@ <UNPREDICTABLE>
7000171c:	ff17 e12f 	vrhadd.u16	d14, d7, d31
70001720:	700e      	strb	r6, [r1, #0]
70001722:	e1a0      	b.n	0x70001a66
70001724:	0094      	lsls	r4, r2, #2
70001726:	e59f      	b.n	0x70001268
70001728:	1094      	asrs	r4, r2, #2
7000172a:	e59f      	b.n	0x7000126c
7000172c:	2001      	movs	r0, #1
7000172e:	e1a0      	b.n	0x70001a72
70001730:	3090      	adds	r0, #144	@ 0x90
70001732:	e59f      	b.n	0x70001274
70001734:	2003      	movs	r0, #3
70001736:	e082      	b.n	0x7000183e
70001738:	fd58 ebff 	ldc2l	11, cr14, [r8, #-1020]	@ 0xfffffc04	@ <UNPREDICTABLE>
7000173c:	2088      	movs	r0, #136	@ 0x88
7000173e:	e59f      	b.n	0x70001280
70001740:	0088      	lsls	r0, r1, #2
70001742:	e59f      	b.n	0x70001284
70001744:	1000      	asrs	r0, r0, #32
70001746:	e1a0      	b.n	0x70001a8a
70001748:	1002      	asrs	r2, r0, #32
7000174a:	e081      	b.n	0x70001850
7000174c:	fd60 ebff 	stc2l	11, cr14, [r0, #-1020]!	@ 0xfffffc04	@ <UNPREDICTABLE>
70001750:	007c      	lsls	r4, r7, #1
70001752:	e59f      	b.n	0x70001294
70001754:	107c      	asrs	r4, r7, #1
70001756:	e59f      	b.n	0x70001298
70001758:	2001      	movs	r0, #1
7000175a:	e1a0      	b.n	0x70001a9e
7000175c:	3078      	adds	r0, #120	@ 0x78
7000175e:	e59f      	b.n	0x700012a0
70001760:	2003      	movs	r0, #3
70001762:	e082      	b.n	0x7000186a
70001764:	fd4d ebff 	stc2l	11, cr14, [sp, #-1020]	@ 0xfffffc04	@ <UNPREDICTABLE>
70001768:	2070      	movs	r0, #112	@ 0x70
7000176a:	e59f      	b.n	0x700012ac
7000176c:	0070      	lsls	r0, r6, #1
7000176e:	e59f      	b.n	0x700012b0
70001770:	1000      	asrs	r0, r0, #32
70001772:	e1a0      	b.n	0x70001ab6
70001774:	1002      	asrs	r2, r0, #32
70001776:	e081      	b.n	0x7000187c
70001778:	fd55 ebff 	ldc2l	11, cr14, [r5, #-1020]	@ 0xfffffc04	@ <UNPREDICTABLE>
7000177c:	0064      	lsls	r4, r4, #1
7000177e:	e59f      	b.n	0x700012c0
70001780:	1064      	asrs	r4, r4, #1
70001782:	e59f      	b.n	0x700012c4
70001784:	2001      	movs	r0, #1
70001786:	e1a0      	b.n	0x70001aca
70001788:	3060      	adds	r0, #96	@ 0x60
7000178a:	e59f      	b.n	0x700012cc
7000178c:	2003      	movs	r0, #3
7000178e:	e082      	b.n	0x70001896
70001790:	fd42 ebff 	stc2l	11, cr14, [r2, #-1020]	@ 0xfffffc04	@ <UNPREDICTABLE>
70001794:	2058      	movs	r0, #88	@ 0x58
70001796:	e59f      	b.n	0x700012d8
70001798:	0058      	lsls	r0, r3, #1
7000179a:	e59f      	b.n	0x700012dc
7000179c:	1000      	asrs	r0, r0, #32
7000179e:	e1a0      	b.n	0x70001ae2
700017a0:	1002      	asrs	r2, r0, #32
700017a2:	e081      	b.n	0x700018a8
700017a4:	fd4a ebff 	stc2l	11, cr14, [sl, #-1020]	@ 0xfffffc04	@ <UNPREDICTABLE>
700017a8:	ff17 e12f 	vrhadd.u16	d14, d7, d31
700017ac:	7dc4      	ldrb	r4, [r0, #23]
700017ae:	7000      	strb	r0, [r0, #0]
700017b0:	7dc4      	ldrb	r4, [r0, #23]
700017b2:	7000      	strb	r0, [r0, #0]
700017b4:	0084      	lsls	r4, r0, #2
700017b6:	0000      	movs	r0, r0
700017b8:	0084      	lsls	r4, r0, #2
700017ba:	0000      	movs	r0, r0
700017bc:	7e48      	ldrb	r0, [r1, #25]
700017be:	7000      	strb	r0, [r0, #0]
700017c0:	7e88      	ldrb	r0, [r1, #26]
700017c2:	7000      	strb	r0, [r0, #0]
700017c4:	4fb0      	ldr	r7, [pc, #704]	@ (0x70001a88)
700017c6:	7000      	strb	r0, [r0, #0]
700017c8:	0000      	movs	r0, r0
700017ca:	0000      	movs	r0, r0
700017cc:	0008      	movs	r0, r1
700017ce:	0000      	movs	r0, r0
700017d0:	4fb0      	ldr	r7, [pc, #704]	@ (0x70001a94)
700017d2:	7000      	strb	r0, [r0, #0]
700017d4:	7e88      	ldrb	r0, [r1, #26]
700017d6:	7000      	strb	r0, [r0, #0]
700017d8:	4040      	eors	r0, r0
700017da:	7000      	strb	r0, [r0, #0]
700017dc:	0000      	movs	r0, r0
700017de:	0000      	movs	r0, r0
700017e0:	0f70      	lsrs	r0, r6, #29
700017e2:	0000      	movs	r0, r0
700017e4:	4040      	eors	r0, r0
700017e6:	7000      	strb	r0, [r0, #0]
700017e8:	7e48      	ldrb	r0, [r1, #25]
700017ea:	7000      	strb	r0, [r0, #0]
700017ec:	4000      	ands	r0, r0
700017ee:	7000      	strb	r0, [r0, #0]
700017f0:	0040      	lsls	r0, r0, #1
700017f2:	0000      	movs	r0, r0
700017f4:	0000      	movs	r0, r0
700017f6:	0000      	movs	r0, r0
700017f8:	4040      	eors	r0, r0
700017fa:	7000      	strb	r0, [r0, #0]
700017fc:	ff1e e12f 	vrhadd.u16	d14, d14, d31
70001800:	c001      	stmia	r0!, {r0}
70001802:	e55e      	b.n	0x700012c2
70001804:	000c      	movs	r4, r1
70001806:	e153      	b.n	0x70001ab0
70001808:	3003      	adds	r0, #3
7000180a:	37de      	adds	r7, #222	@ 0xde
7000180c:	300c      	adds	r0, #12
7000180e:	27de      	movs	r7, #222	@ 0xde
70001810:	c083      	stmia	r0!, {r0, r1, r7}
70001812:	e08e      	b.n	0x70001932
70001814:	ff1c e12f 	vrhadd.u16	d14, d12, d31
70001818:	0003      	movs	r3, r0
7000181a:	e310      	b.n	0x70001e3e
7000181c:	0003      	movs	r3, r0
7000181e:	0311      	lsls	r1, r2, #12
70001820:	001f      	movs	r7, r3
70001822:	1a00      	subs	r0, r0, r0
70001824:	4000      	ands	r0, r0
70001826:	e92d e070 	stmdb	sp!, {r4, r5, r6, sp, lr, pc}
7000182a:	e59f      	b.n	0x7000136c
7000182c:	2004      	movs	r0, #4
7000182e:	e490      	b.n	0x70001152
70001830:	3004      	adds	r0, #4
70001832:	e491      	b.n	0x70001158
70001834:	c00e      	stmia	r0!, {r1, r2, r3}
70001836:	e042      	b.n	0x700018be
70001838:	c002      	stmia	r0!, {r1}
7000183a:	e1cc      	b.n	0x70001bd6
7000183c:	c38e      	stmia	r3!, {r1, r2, r3, r7}
7000183e:	e01c      	b.n	0x7000187a
70001840:	0003      	movs	r3, r0
70001842:	0152      	lsls	r2, r2, #5
70001844:	0006      	movs	r6, r0
70001846:	1a00      	subs	r0, r0, r0
70001848:	2004      	movs	r0, #4
7000184a:	e490      	b.n	0x7000116e
7000184c:	3004      	adds	r0, #4
7000184e:	e491      	b.n	0x70001174
70001850:	c00e      	stmia	r0!, {r1, r2, r3}
70001852:	e042      	b.n	0x700018da
70001854:	c002      	stmia	r0!, {r1}
70001856:	e1cc      	b.n	0x70001bf2
70001858:	c38e      	stmia	r3!, {r1, r2, r3, r7}
7000185a:	e01c      	b.n	0x70001896
7000185c:	0003      	movs	r3, r0
7000185e:	0152      	lsls	r2, r2, #5
70001860:	fff1 0aff 			@ <UNDEFINED> instruction: 0xfff10aff
70001864:	4000      	ands	r0, r0
70001866:	e8bd 0c03 	ldmia.w	sp!, {r0, r1, sl, fp}
7000186a:	e1a0      	b.n	0x70001bae
7000186c:	0c02      	lsrs	r2, r0, #16
7000186e:	e050      	b.n	0x70001912
70001870:	0eff      	lsrs	r7, r7, #27
70001872:	031c      	lsls	r4, r3, #12
70001874:	0007      	movs	r7, r0
70001876:	1a00      	subs	r0, r0, r0
70001878:	0803      	lsrs	r3, r0, #32
7000187a:	e1a0      	b.n	0x70001bbe
7000187c:	0802      	lsrs	r2, r0, #32
7000187e:	e050      	b.n	0x70001922
70001880:	0cff      	lsrs	r7, r7, #19
70001882:	031c      	lsls	r4, r3, #12
70001884:	0003      	movs	r3, r0
70001886:	1a00      	subs	r0, r0, r0
70001888:	0403      	lsls	r3, r0, #16
7000188a:	e1a0      	b.n	0x70001bce
7000188c:	0402      	lsls	r2, r0, #16
7000188e:	e050      	b.n	0x70001932
70001890:	08ff      	lsrs	r7, r7, #3
70001892:	031c      	lsls	r4, r3, #12
70001894:	0002      	movs	r2, r0
70001896:	0053      	lsls	r3, r2, #1
70001898:	0060      	lsls	r0, r4, #1
7000189a:	11a0      	asrs	r0, r4, #6
7000189c:	ff1e e12f 	vrhadd.u16	d14, d14, d31
700018a0:	0101      	lsls	r1, r0, #4
700018a2:	0101      	lsls	r1, r0, #4
700018a4:	2001      	movs	r0, #1
700018a6:	e4d0      	b.n	0x7000124a
700018a8:	3001      	adds	r0, #1
700018aa:	e4d1      	b.n	0x70001250
700018ac:	0001      	movs	r1, r0
700018ae:	e352      	b.n	0x70001f56
700018b0:	0003      	movs	r3, r0
700018b2:	2152      	movs	r1, #82	@ 0x52
700018b4:	0004      	movs	r4, r0
700018b6:	1a00      	subs	r0, r0, r0
700018b8:	2001      	movs	r0, #1
700018ba:	e4d0      	b.n	0x7000125e
700018bc:	3001      	adds	r0, #1
700018be:	e4d1      	b.n	0x70001264
700018c0:	0001      	movs	r1, r0
700018c2:	e352      	b.n	0x70001f6a
700018c4:	0003      	movs	r3, r0
700018c6:	2152      	movs	r1, #82	@ 0x52
700018c8:	fff5 0aff 			@ <UNDEFINED> instruction: 0xfff50aff
700018cc:	0003      	movs	r3, r0
700018ce:	e042      	b.n	0x70001956
700018d0:	ff1e e12f 	vrhadd.u16	d14, d14, d31
700018d4:	30ff      	adds	r0, #255	@ 0xff
700018d6:	e201      	b.n	0x70001cdc
700018d8:	1002      	asrs	r2, r0, #32
700018da:	e1a0      	b.n	0x70001c1e
700018dc:	4001      	ands	r1, r0
700018de:	e92d 2403 	stmdb	sp!, {r0, r1, sl, sp}
700018e2:	e183      	b.n	0x70001bec
700018e4:	2802      	cmp	r0, #2
700018e6:	e182      	b.n	0x70001bee
700018e8:	0006      	movs	r6, r0
700018ea:	eb00 4001 	add.w	r0, r0, r1, lsl #16
700018ee:	e8bd ff1e 	ldmia.w	sp!, {r1, r2, r3, r4, r8, r9, sl, fp, ip, sp, lr, pc}
700018f2:	e12f      	b.n	0x70001b54
700018f4:	30ff      	adds	r0, #255	@ 0xff
700018f6:	e202      	b.n	0x70001cfe
700018f8:	2403      	movs	r4, #3
700018fa:	e183      	b.n	0x70001c04
700018fc:	2802      	cmp	r0, #2
700018fe:	e182      	b.n	0x70001c06
70001900:	0000      	movs	r0, r0
70001902:	ea00 2000 	and.w	r0, r0, r0, lsl #8
70001906:	e3a0      	b.n	0x7000204a
70001908:	0004      	movs	r4, r0
7000190a:	e351      	b.n	0x70001fb0
7000190c:	0007      	movs	r7, r0
7000190e:	3a00      	subs	r2, #0
70001910:	c003      	stmia	r0!, {r0, r1}
70001912:	e210      	b.n	0x70001d36
70001914:	000b      	movs	r3, r1
70001916:	0a00      	lsrs	r0, r0, #8
70001918:	c004      	stmia	r0!, {r2}
7000191a:	e26c      	b.n	0x70001df6
7000191c:	0002      	movs	r2, r0
7000191e:	e35c      	b.n	0x70001fda
70001920:	2001      	movs	r0, #1
70001922:	14c0      	asrs	r0, r0, #19
70001924:	100c      	asrs	r4, r1, #32
70001926:	e041      	b.n	0x700019ac
70001928:	20b2      	movs	r0, #178	@ 0xb2
7000192a:	a0c0      	add	r0, pc, #768	@ (adr r0, 0x70001c2c)
7000192c:	0005      	movs	r5, r0
7000192e:	ea00 cf81 			@ <UNDEFINED> instruction: 0xea00cf81
70001932:	e1b0      	b.n	0x70001c96
70001934:	2001      	movs	r0, #1
70001936:	24c0      	movs	r4, #192	@ 0xc0
70001938:	2001      	movs	r0, #1
7000193a:	24c0      	movs	r4, #192	@ 0xc0
7000193c:	2001      	movs	r0, #1
7000193e:	44c0      	add	r8, r8
70001940:	ff1e e12f 	vrhadd.u16	d14, d14, d31
70001944:	2000      	movs	r0, #0
70001946:	e3a0      	b.n	0x7000208a
70001948:	4000      	ands	r0, r0
7000194a:	e92d 3002 	stmdb	sp!, {r1, ip, sp}
7000194e:	e1a0      	b.n	0x70001c92
70001950:	c002      	stmia	r0!, {r1}
70001952:	e1a0      	b.n	0x70001c96
70001954:	e002      	b.n	0x7000195c
70001956:	e1a0      	b.n	0x70001c9a
70001958:	1020      	asrs	r0, r4, #32
7000195a:	e251      	b.n	0x70001e00
7000195c:	0008      	movs	r0, r1
7000195e:	3a00      	subs	r2, #0
70001960:	00f0      	lsls	r0, r6, #3
70001962:	e92d 4002 	stmdb	sp!, {r1, lr}
70001966:	e1a0      	b.n	0x70001caa
70001968:	5002      	str	r2, [r0, r0]
7000196a:	e1a0      	b.n	0x70001cae
7000196c:	6002      	str	r2, [r0, #0]
7000196e:	e1a0      	b.n	0x70001cb2
70001970:	7002      	strb	r2, [r0, #0]
70001972:	e1a0      	b.n	0x70001cb6
70001974:	50fc      	str	r4, [r7, r3]
70001976:	e8a0 1020 	stmia.w	r0!, {r5, ip}
7000197a:	e251      	b.n	0x70001e20
7000197c:	fffc 2aff 			@ <UNDEFINED> instruction: 0xfffc2aff
70001980:	00f0      	lsls	r0, r6, #3
70001982:	e8bd 1e01 	ldmia.w	sp!, {r0, r9, sl, fp, ip}
70001986:	e1b0      	b.n	0x70001cea
70001988:	500c      	str	r4, [r1, r0]
7000198a:	28a0      	cmp	r0, #160	@ 0xa0
7000198c:	000c      	movs	r4, r1
7000198e:	48a0      	ldr	r0, [pc, #640]	@ (0x70001c10)
70001990:	4000      	ands	r0, r0
70001992:	e8bd 1101 	ldmia.w	sp!, {r0, r8, ip}
70001996:	e1b0      	b.n	0x70001cfa
70001998:	2004      	movs	r0, #4
7000199a:	2480      	movs	r4, #128	@ 0x80
7000199c:	ff1e 012f 	vrhadd.u16	d0, d14, d31
700019a0:	20b2      	movs	r0, #178	@ 0xb2
700019a2:	40c0      	lsrs	r0, r0
700019a4:	0101      	lsls	r1, r0, #4
700019a6:	e311      	b.n	0x70001fcc
700019a8:	2001      	movs	r0, #1
700019aa:	14c0      	asrs	r0, r0, #19
700019ac:	ff1e e12f 	vrhadd.u16	d14, d14, d31
700019b0:	d000      	beq.n	0x700019b4
700019b2:	e1a0      	b.n	0x70001cf6
700019b4:	ff1e e12f 	vrhadd.u16	d14, d14, d31
700019b8:	2f11      	cmp	r7, #17
700019ba:	e16f      	b.n	0x70001c9c
700019bc:	3f7a      	subs	r7, #122	@ 0x7a
700019be:	e28f      	b.n	0x70001ee0
700019c0:	c211      	stmia	r2!, {r0, r4}
700019c2:	e1a0      	b.n	0x70001d06
700019c4:	cccc      	ldmia	r4!, {r2, r3, r6, r7}
700019c6:	e7d3      	b.n	0x70001970
700019c8:	2007      	movs	r0, #7
700019ca:	e252      	b.n	0x70001e72
700019cc:	3000      	adds	r0, #0
700019ce:	e261      	b.n	0x70001e94
700019d0:	121c      	asrs	r4, r3, #8
700019d2:	51a0      	str	r0, [r4, r6]
700019d4:	0391      	lsls	r1, r2, #14
700019d6:	500c      	str	r4, [r1, r0]
700019d8:	000f      	movs	r7, r1
700019da:	4a00      	ldr	r2, [pc, #0]	@ (0x700019dc)
700019dc:	1cc1      	adds	r1, r0, #3
700019de:	e121      	b.n	0x70001c24
700019e0:	00c3      	lsls	r3, r0, #3
700019e2:	e133      	b.n	0x70001c4c
700019e4:	2000      	movs	r0, #0
700019e6:	13a0      	asrs	r0, r4, #14
700019e8:	0391      	lsls	r1, r2, #14
700019ea:	100c      	asrs	r4, r1, #32
700019ec:	219c      	movs	r1, #156	@ 0x9c
700019ee:	10e1      	asrs	r1, r4, #3
700019f0:	0016      	movs	r6, r2
700019f2:	0a00      	lsrs	r0, r0, #8
700019f4:	2190      	movs	r1, #144	@ 0x90
700019f6:	e08c      	b.n	0x70001b12
700019f8:	0003      	movs	r3, r0
700019fa:	e080      	b.n	0x70001afe
700019fc:	039c      	lsls	r4, r3, #14
700019fe:	e021      	b.n	0x70001a44
70001a00:	000c      	movs	r4, r1
70001a02:	e1a0      	b.n	0x70001d46
70001a04:	0003      	movs	r3, r0
70001a06:	e171      	b.n	0x70001cec
70001a08:	1003      	asrs	r3, r0, #32
70001a0a:	2041      	movs	r0, #65	@ 0x41
70001a0c:	0001      	movs	r1, r0
70001a0e:	3280      	adds	r2, #128	@ 0x80
70001a10:	1083      	asrs	r3, r0, #2
70001a12:	5081      	str	r1, [r0, r2]
70001a14:	0002      	movs	r2, r0
70001a16:	5280      	strh	r0, [r0, r2]
70001a18:	ff1e e12f 	vrhadd.u16	d14, d14, d31
70001a1c:	2000      	movs	r0, #0
70001a1e:	e262      	b.n	0x70001ee6
70001a20:	1000      	asrs	r0, r0, #32
70001a22:	e1a0      	b.n	0x70001d66
70001a24:	c004      	stmia	r0!, {r2}
70001a26:	e24c      	b.n	0x70001ec2
70001a28:	023c      	lsls	r4, r7, #8
70001a2a:	e1a0      	b.n	0x70001d6e
70001a2c:	2091      	movs	r0, #145	@ 0x91
70001a2e:	e080      	b.n	0x70001b32
70001a30:	1390      	asrs	r0, r2, #14
70001a32:	e021      	b.n	0x70001a78
70001a34:	00a1      	lsls	r1, r4, #2
70001a36:	e173      	b.n	0x70001d20
70001a38:	1083      	asrs	r3, r0, #2
70001a3a:	2081      	movs	r0, #129	@ 0x81
70001a3c:	0002      	movs	r2, r0
70001a3e:	2280      	movs	r2, #128	@ 0x80
70001a40:	0001      	movs	r1, r0
70001a42:	e173      	b.n	0x70001d2c
70001a44:	1003      	asrs	r3, r0, #32
70001a46:	2081      	movs	r0, #129	@ 0x81
70001a48:	0001      	movs	r1, r0
70001a4a:	2280      	movs	r2, #128	@ 0x80
70001a4c:	ff1e e12f 	vrhadd.u16	d14, d14, d31
70001a50:	0000      	movs	r0, r0
70001a52:	21a0      	movs	r1, #160	@ 0xa0
70001a54:	1000      	asrs	r0, r0, #32
70001a56:	23a0      	movs	r3, #160	@ 0xa0
70001a58:	ff1e 212f 	vrhadd.u16	d2, d14, d31
70001a5c:	4001      	ands	r1, r0
70001a5e:	e92d 0000 	stmdb	sp!, {}
70001a62:	e3a0      	b.n	0x700021a6
70001a64:	0000      	movs	r0, r0
70001a66:	e1a0      	b.n	0x70001daa
70001a68:	4002      	ands	r2, r0
70001a6a:	e8bd ff1e 	ldmia.w	sp!, {r1, r2, r3, r4, r8, r9, sl, fp, ip, sp, lr, pc}
70001a6e:	e12f      	b.n	0x70001cd0
70001a70:	4000      	ands	r0, r0
70001a72:	e92d e102 	stmdb	sp!, {r1, r8, sp, lr, pc}
70001a76:	e211      	b.n	0x70001e9c
70001a78:	1000      	asrs	r0, r0, #32
70001a7a:	4261      	negs	r1, r4
70001a7c:	e040      	b.n	0x70001b00
70001a7e:	e03e      	b.n	0x70001afe
70001a80:	2f11      	cmp	r7, #17
70001a82:	e16f      	b.n	0x70001d64
70001a84:	3e12      	subs	r6, #18
70001a86:	e28f      	b.n	0x70001fa8
70001a88:	c211      	stmia	r2!, {r0, r4}
70001a8a:	e1a0      	b.n	0x70001dce
70001a8c:	cccc      	ldmia	r4!, {r2, r3, r6, r7}
70001a8e:	e7d3      	b.n	0x70001a38
70001a90:	0000      	movs	r0, r0
70001a92:	2260      	movs	r2, #96	@ 0x60
70001a94:	2007      	movs	r0, #7
70001a96:	e252      	b.n	0x70001f3e
70001a98:	3000      	adds	r0, #0
70001a9a:	e261      	b.n	0x70001f60
70001a9c:	121c      	asrs	r4, r3, #8
70001a9e:	51a0      	str	r0, [r4, r6]
70001aa0:	0391      	lsls	r1, r2, #14
70001aa2:	500c      	str	r4, [r1, r0]
70001aa4:	0013      	movs	r3, r2
70001aa6:	4a00      	ldr	r2, [pc, #0]	@ (0x70001aa8)
70001aa8:	1cc1      	adds	r1, r0, #3
70001aaa:	e121      	b.n	0x70001cf0
70001aac:	00c3      	lsls	r3, r0, #3
70001aae:	e133      	b.n	0x70001d18
70001ab0:	2000      	movs	r0, #0
70001ab2:	13a0      	asrs	r0, r4, #14
70001ab4:	0391      	lsls	r1, r2, #14
70001ab6:	100c      	asrs	r4, r1, #32
70001ab8:	219c      	movs	r1, #156	@ 0x9c
70001aba:	10e1      	asrs	r1, r4, #3
70001abc:	001e      	movs	r6, r3
70001abe:	0a00      	lsrs	r0, r0, #8
70001ac0:	2190      	movs	r1, #144	@ 0x90
70001ac2:	e08c      	b.n	0x70001bde
70001ac4:	0003      	movs	r3, r0
70001ac6:	e080      	b.n	0x70001bca
70001ac8:	039c      	lsls	r4, r3, #14
70001aca:	e021      	b.n	0x70001b10
70001acc:	000c      	movs	r4, r1
70001ace:	e1a0      	b.n	0x70001e12
70001ad0:	0003      	movs	r3, r0
70001ad2:	e171      	b.n	0x70001db8
70001ad4:	1003      	asrs	r3, r0, #32
70001ad6:	2041      	movs	r0, #65	@ 0x41
70001ad8:	0001      	movs	r1, r0
70001ada:	3280      	adds	r2, #128	@ 0x80
70001adc:	1083      	asrs	r3, r0, #2
70001ade:	5081      	str	r1, [r0, r2]
70001ae0:	0002      	movs	r2, r0
70001ae2:	5280      	strh	r0, [r0, r2]
70001ae4:	e08e      	b.n	0x70001c04
70001ae6:	e1b0      	b.n	0x70001e4a
70001ae8:	4000      	ands	r0, r0
70001aea:	e8bd 0000 	ldmia.w	sp!, {}
70001aee:	2260      	movs	r2, #96	@ 0x60
70001af0:	1000      	asrs	r0, r0, #32
70001af2:	4261      	negs	r1, r4
70001af4:	ff1e e12f 	vrhadd.u16	d14, d14, d31
70001af8:	2000      	movs	r0, #0
70001afa:	e262      	b.n	0x70001fc2
70001afc:	1000      	asrs	r0, r0, #32
70001afe:	e1a0      	b.n	0x70001e42
70001b00:	c004      	stmia	r0!, {r2}
70001b02:	e24c      	b.n	0x70001f9e
70001b04:	023c      	lsls	r4, r7, #8
70001b06:	e1a0      	b.n	0x70001e4a
70001b08:	2091      	movs	r0, #145	@ 0x91
70001b0a:	e080      	b.n	0x70001c0e
70001b0c:	1390      	asrs	r0, r2, #14
70001b0e:	e021      	b.n	0x70001b54
70001b10:	00a1      	lsls	r1, r4, #2
70001b12:	e173      	b.n	0x70001dfc
70001b14:	1083      	asrs	r3, r0, #2
70001b16:	2081      	movs	r0, #129	@ 0x81
70001b18:	0002      	movs	r2, r0
70001b1a:	2280      	movs	r2, #128	@ 0x80
70001b1c:	0001      	movs	r1, r0
70001b1e:	e173      	b.n	0x70001e08
70001b20:	1003      	asrs	r3, r0, #32
70001b22:	2081      	movs	r0, #129	@ 0x81
70001b24:	0001      	movs	r1, r0
70001b26:	2280      	movs	r2, #128	@ 0x80
70001b28:	e08e      	b.n	0x70001c48
70001b2a:	e1b0      	b.n	0x70001e8e
70001b2c:	4000      	ands	r0, r0
70001b2e:	e8bd 0000 	ldmia.w	sp!, {}
70001b32:	2260      	movs	r2, #96	@ 0x60
70001b34:	1000      	asrs	r0, r0, #32
70001b36:	4261      	negs	r1, r4
70001b38:	ff1e e12f 	vrhadd.u16	d14, d14, d31
70001b3c:	0000      	movs	r0, r0
70001b3e:	21a0      	movs	r1, #160	@ 0xa0
70001b40:	1000      	asrs	r0, r0, #32
70001b42:	23a0      	movs	r3, #160	@ 0xa0
70001b44:	ffe6 2aff 			@ <UNDEFINED> instruction: 0xffe62aff
70001b48:	4011      	ands	r1, r2
70001b4a:	e92d 0000 	stmdb	sp!, {}
70001b4e:	e3a0      	b.n	0x70002292
70001b50:	0000      	movs	r0, r0
70001b52:	e1a0      	b.n	0x70001e96
70001b54:	4012      	ands	r2, r2
70001b56:	e8bd e08e 	ldmia.w	sp!, {r1, r2, r3, r7, sp, lr, pc}
70001b5a:	e1b0      	b.n	0x70001ebe
70001b5c:	4000      	ands	r0, r0
70001b5e:	e8bd 0000 	ldmia.w	sp!, {}
70001b62:	2260      	movs	r2, #96	@ 0x60
70001b64:	1000      	asrs	r0, r0, #32
70001b66:	4261      	negs	r1, r4
70001b68:	ff1e e12f 	vrhadd.u16	d14, d14, d31
70001b6c:	fcff f4f8 	ldc2l	4, cr15, [pc], #992	@ 0x70001f50
70001b70:	edf0 e6ea 	ldcl	6, cr14, [r0, #936]!	@ 0x3a8
70001b74:	e0e3      	b.n	0x70001d3e
70001b76:	dadd      	bge.n	0x70001b34
70001b78:	d4d7      	bmi.n	0x70001b2a
70001b7a:	cfd2      	ldmia	r7, {r1, r4, r6, r7}
70001b7c:	cacc      	ldmia	r2, {r2, r3, r6, r7}
70001b7e:	c5c7      	stmia	r5!, {r0, r1, r2, r6, r7}
70001b80:	c0c3      	stmia	r0!, {r0, r1, r6, r7}
70001b82:	bcbe      	pop	{r1, r2, r3, r4, r5, r7}
70001b84:	b8ba      			@ <UNDEFINED> instruction: 0xb8ba
70001b86:	b4b6      	push	{r1, r2, r4, r5, r7}
70001b88:	b0b2      	sub	sp, #200	@ 0xc8
70001b8a:	acae      	add	r4, sp, #696	@ 0x2b8
70001b8c:	a8aa      	add	r0, sp, #680	@ 0x2a8
70001b8e:	a5a7      	add	r5, pc, #668	@ (adr r5, 0x70001e2c)
70001b90:	a2a3      	add	r2, pc, #652	@ (adr r2, 0x70001e20)
70001b92:	9fa0      	ldr	r7, [sp, #640]	@ 0x280
70001b94:	9c9d      	ldr	r4, [sp, #628]	@ 0x274
70001b96:	999a      	ldr	r1, [sp, #616]	@ 0x268
70001b98:	9697      	str	r6, [sp, #604]	@ 0x25c
70001b9a:	9394      	str	r3, [sp, #592]	@ 0x250
70001b9c:	9092      	str	r0, [sp, #584]	@ 0x248
70001b9e:	8e8f      	ldrh	r7, [r1, #52]	@ 0x34
70001ba0:	8c8d      	ldrh	r5, [r1, #36]	@ 0x24
70001ba2:	898a      	ldrh	r2, [r1, #12]
70001ba4:	8788      	strh	r0, [r1, #60]	@ 0x3c
70001ba6:	8586      	strh	r6, [r0, #44]	@ 0x2c
70001ba8:	8384      	strh	r4, [r0, #28]
70001baa:	8182      	strh	r2, [r0, #12]
70001bac:	0080      	lsls	r0, r0, #2
70001bae:	0000      	movs	r0, r0
70001bb0:	5370      	strh	r0, [r6, r5]
70001bb2:	6168      	str	r0, [r5, #20]
70001bb4:	6572      	str	r2, [r6, #84]	@ 0x54
70001bb6:	4464      	add	r4, ip
70001bb8:	7461      	strb	r1, [r4, #17]
70001bba:	4861      	ldr	r0, [pc, #388]	@ (0x70001d40)
70001bbc:	6165      	str	r5, [r4, #20]
70001bbe:	6564      	str	r4, [r4, #84]	@ 0x54
70001bc0:	2d72      	cmp	r5, #114	@ 0x72
70001bc2:	6d3e      	ldr	r6, [r7, #80]	@ 0x50
70001bc4:	705f      	strb	r7, [r3, #1]
70001bc6:	7961      	ldrb	r1, [r4, #5]
70001bc8:	6f6c      	ldr	r4, [r5, #116]	@ 0x74
70001bca:	6461      	str	r1, [r4, #68]	@ 0x44
70001bcc:	305b      	adds	r0, #91	@ 0x5b
70001bce:	205d      	movs	r0, #93	@ 0x5d
70001bd0:	3d3d      	subs	r5, #61	@ 0x3d
70001bd2:	5420      	strb	r0, [r4, r0]
70001bd4:	564c      	ldrsb	r4, [r1, r1]
70001bd6:	535f      	strh	r7, [r3, r5]
70001bd8:	5a49      	ldrh	r1, [r1, r1]
70001bda:	5f45      	ldrsh	r5, [r0, r5]
70001bdc:	4552      	cmp	r2, sl
70001bde:	4f43      	ldr	r7, [pc, #268]	@ (0x70001cec)
70001be0:	4452      	add	r2, sl
70001be2:	2620      	movs	r6, #32
70001be4:	2026      	movs	r0, #38	@ 0x26
70001be6:	5370      	strh	r0, [r6, r5]
70001be8:	6168      	str	r0, [r5, #20]
70001bea:	6572      	str	r2, [r6, #84]	@ 0x54
70001bec:	4464      	add	r4, ip
70001bee:	7461      	strb	r1, [r4, #17]
70001bf0:	4861      	ldr	r0, [pc, #388]	@ (0x70001d78)
70001bf2:	6165      	str	r5, [r4, #20]
70001bf4:	6564      	str	r4, [r4, #84]	@ 0x54
70001bf6:	2d72      	cmp	r5, #114	@ 0x72
70001bf8:	6d3e      	ldr	r6, [r7, #80]	@ 0x50
70001bfa:	705f      	strb	r7, [r3, #1]
70001bfc:	7961      	ldrb	r1, [r4, #5]
70001bfe:	6f6c      	ldr	r4, [r5, #116]	@ 0x74
70001c00:	6461      	str	r1, [r4, #68]	@ 0x44
70001c02:	315b      	adds	r1, #91	@ 0x5b
70001c04:	205d      	movs	r0, #93	@ 0x5d
70001c06:	3d3d      	subs	r5, #61	@ 0x3d
70001c08:	3420      	adds	r4, #32
70001c0a:	0000      	movs	r0, r0
70001c0c:	4d5f      	ldr	r5, [pc, #380]	@ (0x70001d8c)
70001c0e:	4e49      	ldr	r6, [pc, #292]	@ (0x70001d34)
70001c10:	5f49      	ldrsh	r1, [r1, r5]
70001c12:	5845      	ldr	r5, [r0, r1]
70001c14:	5f54      	ldrsh	r4, [r2, r5]
70001c16:	4853      	ldr	r0, [pc, #332]	@ (0x70001d64)
70001c18:	5f52      	ldrsh	r2, [r2, r5]
70001c1a:	4144      	adcs	r4, r0
70001c1c:	4154      	adcs	r4, r2
70001c1e:	005f      	lsls	r7, r3, #1
70001c20:	0000      	movs	r0, r0
70001c22:	0000      	movs	r0, r0
70001c24:	bb70      	cbnz	r0, 0x70001c84
70001c26:	2d44      	cmp	r5, #68	@ 0x44
70001c28:	d227      	bcs.n	0x70001c7a
70001c2a:	a744      	add	r7, pc, #272	@ (adr r7, 0x70001d3c)
70001c2c:	864b      	strh	r3, [r1, #50]	@ 0x32
70001c2e:	d0a9      	beq.n	0x70001b84
70001c30:	c244      	stmia	r2!, {r2, r6}
70001c32:	83ff      	strh	r7, [r7, #30]
70001c34:	266b      	movs	r6, #107	@ 0x6b
70001c36:	7ec8      	ldrb	r0, [r1, #27]
70001c38:	0fb2      	lsrs	r2, r6, #30
70001c3a:	43e8      	mvns	r0, r5
70001c3c:	348a      	adds	r4, #138	@ 0x8a
70001c3e:	01a6      	lsls	r6, r4, #6
70001c40:	f9a0 2067 	vld1.8	{d2[3]}, [r0], r7
70001c44:	6405      	str	r5, [r0, #64]	@ 0x40
70001c46:	5453      	strb	r3, [r2, r1]
70001c48:	a6b1      	add	r6, pc, #708	@ (adr r6, 0x70001f10)
70001c4a:	d546      	bpl.n	0x70001cda
70001c4c:	ec3a 1cc3 	ldc	12, cr1, [sl], #-780	@ 0xfffffcf4
70001c50:	7a83      	ldrb	r3, [r0, #10]
70001c52:	de37      	udf	#55	@ 0x37
70001c54:	0400      	lsls	r0, r0, #16
70001c56:	9ed4      	ldr	r6, [sp, #848]	@ 0x350
70001c58:	84a1      	strh	r1, [r4, #36]	@ 0x24
70001c5a:	00e8      	lsls	r0, r5, #3
70001c5c:	83bd      	strh	r5, [r7, #28]
70001c5e:	e3f0      	b.n	0x70002442
70001c60:	6d8a      	ldr	r2, [r1, #88]	@ 0x58
70001c62:	2f4e      	cmp	r7, #78	@ 0x4e
70001c64:	4770      	bx	lr
70001c66:	4846      	ldr	r0, [pc, #280]	@ (0x70001d80)
70001c68:	6946      	ldr	r6, [r0, #20]
70001c6a:	656c      	str	r4, [r5, #84]	@ 0x54
70001c6c:	6e49      	ldr	r1, [r1, #100]	@ 0x64
70001c6e:	6f66      	ldr	r6, [r4, #116]	@ 0x74
70001c70:	3e2d      	subs	r6, #45	@ 0x2d
70001c72:	5f6d      	ldrsh	r5, [r5, r5]
70001c74:	6973      	ldr	r3, [r6, #20]
70001c76:	5f67      	ldrsh	r7, [r4, r5]
70001c78:	7974      	ldrb	r4, [r6, #5]
70001c7a:	6570      	str	r0, [r6, #84]	@ 0x54
70001c7c:	3d20      	subs	r5, #32
70001c7e:	203d      	movs	r0, #61	@ 0x3d
70001c80:	4953      	ldr	r1, [pc, #332]	@ (0x70001dd0)
70001c82:	5f47      	ldrsh	r7, [r0, r5]
70001c84:	4953      	ldr	r1, [pc, #332]	@ (0x70001dd4)
70001c86:	474e      	bx	r9
70001c88:	454c      	cmp	r4, r9
70001c8a:	7c20      	ldrb	r0, [r4, #16]
70001c8c:	207c      	movs	r0, #124	@ 0x7c
70001c8e:	4770      	bx	lr
70001c90:	4846      	ldr	r0, [pc, #280]	@ (0x70001dac)
70001c92:	6946      	ldr	r6, [r0, #20]
70001c94:	656c      	str	r4, [r5, #84]	@ 0x54
70001c96:	6e49      	ldr	r1, [r1, #100]	@ 0x64
70001c98:	6f66      	ldr	r6, [r4, #116]	@ 0x74
70001c9a:	3e2d      	subs	r6, #45	@ 0x2d
70001c9c:	5f6d      	ldrsh	r5, [r5, r5]
70001c9e:	6973      	ldr	r3, [r6, #20]
70001ca0:	5f67      	ldrsh	r7, [r4, r5]
70001ca2:	7974      	ldrb	r4, [r6, #5]
70001ca4:	6570      	str	r0, [r6, #84]	@ 0x54
70001ca6:	3d20      	subs	r5, #32
70001ca8:	203d      	movs	r0, #61	@ 0x3d
70001caa:	4953      	ldr	r1, [pc, #332]	@ (0x70001df8)
70001cac:	5f47      	ldrsh	r7, [r0, r5]
70001cae:	4953      	ldr	r1, [pc, #332]	@ (0x70001dfc)
70001cb0:	474e      	bx	r9
70001cb2:	454c      	cmp	r4, r9
70001cb4:	415f      	adcs	r7, r3
70001cb6:	444e      	add	r6, r9
70001cb8:	505f      	str	r7, [r3, r1]
70001cba:	4148      	adcs	r0, r1
70001cbc:	4853      	ldr	r0, [pc, #332]	@ (0x70001e0c)
70001cbe:	7c20      	ldrb	r0, [r4, #16]
70001cc0:	207c      	movs	r0, #124	@ 0x7c
70001cc2:	4770      	bx	lr
70001cc4:	4846      	ldr	r0, [pc, #280]	@ (0x70001de0)
70001cc6:	6946      	ldr	r6, [r0, #20]
70001cc8:	656c      	str	r4, [r5, #84]	@ 0x54
70001cca:	6e49      	ldr	r1, [r1, #100]	@ 0x64
70001ccc:	6f66      	ldr	r6, [r4, #116]	@ 0x74
70001cce:	3e2d      	subs	r6, #45	@ 0x2d
70001cd0:	5f6d      	ldrsh	r5, [r5, r5]
70001cd2:	6973      	ldr	r3, [r6, #20]
70001cd4:	5f67      	ldrsh	r7, [r4, r5]
70001cd6:	7974      	ldrb	r4, [r6, #5]
70001cd8:	6570      	str	r0, [r6, #84]	@ 0x54
70001cda:	3d20      	subs	r5, #32
70001cdc:	203d      	movs	r0, #61	@ 0x3d
70001cde:	4953      	ldr	r1, [pc, #332]	@ (0x70001e2c)
70001ce0:	5f47      	ldrsh	r7, [r0, r5]
70001ce2:	554d      	strb	r5, [r1, r5]
70001ce4:	544c      	strb	r4, [r1, r1]
70001ce6:	0049      	lsls	r1, r1, #1
70001ce8:	7974      	ldrb	r4, [r6, #5]
70001cea:	6570      	str	r0, [r6, #84]	@ 0x54
70001cec:	3d20      	subs	r5, #32
70001cee:	203d      	movs	r0, #61	@ 0x3d
70001cf0:	4243      	negs	r3, r0
70001cf2:	5f52      	ldrsh	r2, [r2, r5]
70001cf4:	4552      	cmp	r2, sl
70001cf6:	4f43      	ldr	r7, [pc, #268]	@ (0x70001e04)
70001cf8:	4452      	add	r2, sl
70001cfa:	535f      	strh	r7, [r3, r5]
70001cfc:	4345      	muls	r5, r0
70001cfe:	5255      	strh	r5, [r2, r1]
70001d00:	5f45      	ldrsh	r5, [r0, r5]
70001d02:	4f52      	ldr	r7, [pc, #328]	@ (0x70001e4c)
70001d04:	4d5f      	ldr	r5, [pc, #380]	@ (0x70001e84)
70001d06:	2045      	movs	r0, #69	@ 0x45
70001d08:	7c7c      	ldrb	r4, [r7, #17]
70001d0a:	7420      	strb	r0, [r4, #16]
70001d0c:	7079      	strb	r1, [r7, #1]
70001d0e:	2065      	movs	r0, #101	@ 0x65
70001d10:	3d3d      	subs	r5, #61	@ 0x3d
70001d12:	4320      	orrs	r0, r4
70001d14:	5242      	strh	r2, [r0, r1]
70001d16:	525f      	strh	r7, [r3, r1]
70001d18:	4345      	muls	r5, r0
70001d1a:	524f      	strh	r7, [r1, r1]
70001d1c:	5f44      	ldrsh	r4, [r0, r5]
70001d1e:	4553      	cmp	r3, sl
70001d20:	5543      	strb	r3, [r0, r5]
70001d22:	4552      	cmp	r2, sl
70001d24:	525f      	strh	r7, [r3, r1]
70001d26:	5f4f      	ldrsh	r7, [r1, r5]
70001d28:	0053      	lsls	r3, r2, #1
70001d2a:	0000      	movs	r0, r0
70001d2c:	4770      	bx	lr
70001d2e:	6866      	ldr	r6, [r4, #4]
70001d30:	6e41      	ldr	r1, [r0, #100]	@ 0x64
70001d32:	6974      	ldr	r4, [r6, #20]
70001d34:	6c63      	ldr	r3, [r4, #68]	@ 0x44
70001d36:	6e6f      	ldr	r7, [r5, #100]	@ 0x64
70001d38:	2065      	movs	r0, #101	@ 0x65
70001d3a:	3d3d      	subs	r5, #61	@ 0x3d
70001d3c:	4e20      	ldr	r6, [pc, #128]	@ (0x70001dc0)
70001d3e:	4c55      	ldr	r4, [pc, #340]	@ (0x70001e94)
70001d40:	204c      	movs	r0, #76	@ 0x4c
70001d42:	7c7c      	ldrb	r4, [r7, #17]
70001d44:	2820      	cmp	r0, #32
70001d46:	6361      	str	r1, [r4, #52]	@ 0x34
70001d48:	6552      	str	r2, [r2, #84]	@ 0x54
70001d4a:	6967      	ldr	r7, [r4, #20]
70001d4c:	6e6f      	ldr	r7, [r5, #100]	@ 0x64
70001d4e:	654c      	str	r4, [r1, #84]	@ 0x54
70001d50:	206e      	movs	r0, #110	@ 0x6e
70001d52:	3d21      	subs	r5, #33	@ 0x21
70001d54:	3020      	adds	r0, #32
70001d56:	2620      	movs	r6, #32
70001d58:	2026      	movs	r0, #38	@ 0x26
70001d5a:	4c42      	ldr	r4, [pc, #264]	@ (0x70001e64)
70001d5c:	415f      	adcs	r7, r3
70001d5e:	5f43      	ldrsh	r3, [r0, r5]
70001d60:	4552      	cmp	r2, sl
70001d62:	4947      	ldr	r1, [pc, #284]	@ (0x70001e80)
70001d64:	4e4f      	ldr	r6, [pc, #316]	@ (0x70001ea4)
70001d66:	4f5f      	ldr	r7, [pc, #380]	@ (0x70001ee4)
70001d68:	4646      	mov	r6, r8
70001d6a:	4553      	cmp	r3, sl
70001d6c:	2054      	movs	r0, #84	@ 0x54
70001d6e:	202b      	movs	r0, #43	@ 0x2b
70001d70:	6361      	str	r1, [r4, #52]	@ 0x34
70001d72:	6552      	str	r2, [r2, #84]	@ 0x54
70001d74:	6967      	ldr	r7, [r4, #20]
70001d76:	6e6f      	ldr	r7, [r5, #100]	@ 0x64
70001d78:	654c      	str	r4, [r1, #84]	@ 0x54
70001d7a:	206e      	movs	r0, #110	@ 0x6e
70001d7c:	3d3c      	subs	r5, #60	@ 0x3c
70001d7e:	7020      	strb	r0, [r4, #0]
70001d80:	6647      	str	r7, [r0, #100]	@ 0x64
70001d82:	4168      	adcs	r0, r5
70001d84:	746e      	strb	r6, [r5, #17]
70001d86:	6369      	str	r1, [r5, #52]	@ 0x34
70001d88:	6f6c      	ldr	r4, [r5, #116]	@ 0x74
70001d8a:	656e      	str	r6, [r5, #84]	@ 0x54
70001d8c:	3e2d      	subs	r6, #45	@ 0x2d
70001d8e:	5f6d      	ldrsh	r5, [r5, r5]
70001d90:	6361      	str	r1, [r4, #52]	@ 0x34
70001d92:	6f5f      	ldr	r7, [r3, #116]	@ 0x74
70001d94:	6666      	str	r6, [r4, #100]	@ 0x64
70001d96:	6573      	str	r3, [r6, #84]	@ 0x54
70001d98:	2074      	movs	r0, #116	@ 0x74
70001d9a:	202b      	movs	r0, #43	@ 0x2b
70001d9c:	4770      	bx	lr
70001d9e:	6866      	ldr	r6, [r4, #4]
70001da0:	6e41      	ldr	r1, [r0, #100]	@ 0x64
70001da2:	6974      	ldr	r4, [r6, #20]
70001da4:	6c63      	ldr	r3, [r4, #68]	@ 0x44
70001da6:	6e6f      	ldr	r7, [r5, #100]	@ 0x64
70001da8:	2d65      	cmp	r5, #101	@ 0x65
70001daa:	6d3e      	ldr	r6, [r7, #80]	@ 0x50
70001dac:	615f      	str	r7, [r3, #20]
70001dae:	5f63      	ldrsh	r3, [r4, r5]
70001db0:	656c      	str	r4, [r5, #84]	@ 0x54
70001db2:	206e      	movs	r0, #110	@ 0x6e
70001db4:	0029      	movs	r1, r5
70001db6:	0000      	movs	r0, r0
70001db8:	0005      	movs	r5, r0
70001dba:	0000      	movs	r0, r0
70001dbc:	5aa5      	ldrh	r5, [r4, r2]
70001dbe:	0000      	movs	r0, r0
70001dc0:	ffff 0000 	vaddl.u<illegal width 64>	q8, d15, d0
70001dc4:	740d      	strb	r5, [r1, #16]
70001dc6:	7000      	strb	r0, [r0, #0]
70001dc8:	73f9      	strb	r1, [r7, #15]
70001dca:	7000      	strb	r0, [r0, #0]
70001dcc:	7415      	strb	r5, [r2, #16]
70001dce:	7000      	strb	r0, [r0, #0]
70001dd0:	0000      	movs	r0, r0
70001dd2:	0000      	movs	r0, r0
70001dd4:	7439      	strb	r1, [r7, #16]
70001dd6:	7000      	strb	r0, [r0, #0]
70001dd8:	73f5      	strb	r5, [r6, #15]
70001dda:	7000      	strb	r0, [r0, #0]
70001ddc:	7411      	strb	r1, [r2, #16]
70001dde:	7000      	strb	r0, [r0, #0]
70001de0:	73fd      	strb	r5, [r7, #15]
70001de2:	7000      	strb	r0, [r0, #0]
70001de4:	7401      	strb	r1, [r0, #16]
70001de6:	7000      	strb	r0, [r0, #0]
70001de8:	7407      	strb	r7, [r0, #16]
70001dea:	7000      	strb	r0, [r0, #0]
70001dec:	7365      	strb	r5, [r4, #13]
70001dee:	7000      	strb	r0, [r0, #0]
70001df0:	73ad      	strb	r5, [r5, #14]
70001df2:	7000      	strb	r0, [r0, #0]
70001df4:	00ff      	lsls	r7, r7, #3
70001df6:	0000      	movs	r0, r0
70001df8:	ffff ffff 			@ <UNDEFINED> instruction: 0xffffffff
70001dfc:	7368      	strb	r0, [r5, #13]
70001dfe:	2a52      	cmp	r2, #82	@ 0x52
70001e00:	0a94      	lsrs	r4, r2, #10
70001e02:	0548      	lsls	r0, r1, #21
70001e04:	02a4      	lsls	r4, r4, #10
70001e06:	0154      	lsls	r4, r2, #5
70001e08:	00a8      	lsls	r0, r5, #2
70001e0a:	0054      	lsls	r4, r2, #1
70001e0c:	0038      	movs	r0, r7
70001e0e:	001c      	movs	r4, r3
70001e10:	ffff ffff 			@ <UNDEFINED> instruction: 0xffffffff
70001e14:	ffff ffff 			@ <UNDEFINED> instruction: 0xffffffff
70001e18:	ffff ffff 			@ <UNDEFINED> instruction: 0xffffffff
70001e1c:	ffff ffff 			@ <UNDEFINED> instruction: 0xffffffff
70001e20:	ffff ffff 			@ <UNDEFINED> instruction: 0xffffffff
70001e24:	ffff ffff 			@ <UNDEFINED> instruction: 0xffffffff
70001e28:	ffff ffff 			@ <UNDEFINED> instruction: 0xffffffff
70001e2c:	ffff ffff 			@ <UNDEFINED> instruction: 0xffffffff
70001e30:	ffff ffff 			@ <UNDEFINED> instruction: 0xffffffff
70001e34:	ffff ffff 			@ <UNDEFINED> instruction: 0xffffffff
70001e38:	ffff ffff 			@ <UNDEFINED> instruction: 0xffffffff
70001e3c:	ffff ffff 			@ <UNDEFINED> instruction: 0xffffffff
70001e40:	ffff ffff 			@ <UNDEFINED> instruction: 0xffffffff
70001e44:	ffff ffff 			@ <UNDEFINED> instruction: 0xffffffff
70001e48:	b538      	push	{r3, r4, r5, lr}
70001e4a:	000d      	movs	r5, r1
70001e4c:	2173      	movs	r1, #115	@ 0x73
70001e4e:	0149      	lsls	r1, r1, #5
70001e50:	0004      	movs	r4, r0
70001e52:	000a      	movs	r2, r1
70001e54:	2010      	movs	r0, #16
70001e56:	000b      	movs	r3, r1
70001e58:	f003 fa88 	bl	0x7000536c
70001e5c:	22ff      	movs	r2, #255	@ 0xff
70001e5e:	4904      	ldr	r1, [pc, #16]	@ (0x70001e70)
70001e60:	4804      	ldr	r0, [pc, #16]	@ (0x70001e74)
70001e62:	0023      	movs	r3, r4
70001e64:	3201      	adds	r2, #1
70001e66:	9500      	str	r5, [sp, #0]
70001e68:	f003 fa74 	bl	0x70005354
70001e6c:	bd38      	pop	{r3, r4, r5, pc}
70001e6e:	0000      	movs	r0, r0
70001e70:	4eb0      	ldr	r6, [pc, #704]	@ (0x70002134)
70001e72:	7000      	strb	r0, [r0, #0]
70001e74:	4040      	eors	r0, r0
70001e76:	7000      	strb	r0, [r0, #0]
70001e78:	200e      	movs	r0, #14
70001e7a:	4770      	bx	lr
70001e7c:	ff10 e12f 	vrhadd.u16	d14, d0, d31
70001e80:	4040      	eors	r0, r0
70001e82:	7000      	strb	r0, [r0, #0]
70001e84:	4050      	eors	r0, r2
70001e86:	7000      	strb	r0, [r0, #0]
70001e88:	4400      	add	r0, r0
70001e8a:	454e      	cmp	r6, r9
70001e8c:	5044      	str	r4, [r0, r1]
70001e8e:	76de      	strb	r6, [r3, #27]
70001e90:	fefb a500 	cdp2	5, 15, cr10, cr11, cr0, {0}
70001e94:	6dce      	ldr	r6, [r1, #92]	@ 0x5c
70001e96:	f5b6 67df 	subs.w	r7, r6, #1784	@ 0x6f8
70001e9a:	956a      	str	r5, [sp, #424]	@ 0x1a8
70001e9c:	d2ba      	bcs.n	0x70001e14
70001e9e:	cf4a      	ldmia	r7!, {r1, r3, r6}
	...
70001eac:	ffff ffff 			@ <UNDEFINED> instruction: 0xffffffff
70001eb0:	ffff ffff 			@ <UNDEFINED> instruction: 0xffffffff
70001eb4:	ffff ffff 			@ <UNDEFINED> instruction: 0xffffffff
70001eb8:	ffff ffff 			@ <UNDEFINED> instruction: 0xffffffff
70001ebc:	ffff ffff 			@ <UNDEFINED> instruction: 0xffffffff
70001ec0:	ffff ffff 			@ <UNDEFINED> instruction: 0xffffffff
70001ec4:	ffff ffff 			@ <UNDEFINED> instruction: 0xffffffff
70001ec8:	ffff ffff 			@ <UNDEFINED> instruction: 0xffffffff
70001ecc:	ffff ffff 			@ <UNDEFINED> instruction: 0xffffffff
70001ed0:	ffff ffff 			@ <UNDEFINED> instruction: 0xffffffff
70001ed4:	ffff ffff 			@ <UNDEFINED> instruction: 0xffffffff
70001ed8:	ffff ffff 			@ <UNDEFINED> instruction: 0xffffffff
70001edc:	ffff ffff 			@ <UNDEFINED> instruction: 0xffffffff
70001ee0:	ffff ffff 			@ <UNDEFINED> instruction: 0xffffffff
70001ee4:	ffff ffff 			@ <UNDEFINED> instruction: 0xffffffff
70001ee8:	ffff ffff 			@ <UNDEFINED> instruction: 0xffffffff
70001eec:	ffff ffff 			@ <UNDEFINED> instruction: 0xffffffff
70001ef0:	ffff ffff 			@ <UNDEFINED> instruction: 0xffffffff
70001ef4:	ffff ffff 			@ <UNDEFINED> instruction: 0xffffffff
70001ef8:	ffff ffff 			@ <UNDEFINED> instruction: 0xffffffff
70001efc:	ffff ffff 			@ <UNDEFINED> instruction: 0xffffffff
70001f00:	ffff ffff 			@ <UNDEFINED> instruction: 0xffffffff
70001f04:	ffff ffff 			@ <UNDEFINED> instruction: 0xffffffff
70001f08:	ffff ffff 			@ <UNDEFINED> instruction: 0xffffffff
70001f0c:	ffff ffff 			@ <UNDEFINED> instruction: 0xffffffff
70001f10:	ffff ffff 			@ <UNDEFINED> instruction: 0xffffffff
70001f14:	ffff ffff 			@ <UNDEFINED> instruction: 0xffffffff
70001f18:	ffff ffff 			@ <UNDEFINED> instruction: 0xffffffff
70001f1c:	ffff ffff 			@ <UNDEFINED> instruction: 0xffffffff
70001f20:	ffff ffff 			@ <UNDEFINED> instruction: 0xffffffff
70001f24:	ffff ffff 			@ <UNDEFINED> instruction: 0xffffffff
70001f28:	ffff ffff 			@ <UNDEFINED> instruction: 0xffffffff
70001f2c:	ffff ffff 			@ <UNDEFINED> instruction: 0xffffffff
70001f30:	ffff ffff 			@ <UNDEFINED> instruction: 0xffffffff
70001f34:	ffff ffff 			@ <UNDEFINED> instruction: 0xffffffff
70001f38:	ffff ffff 			@ <UNDEFINED> instruction: 0xffffffff
70001f3c:	ffff ffff 			@ <UNDEFINED> instruction: 0xffffffff
70001f40:	ffff ffff 			@ <UNDEFINED> instruction: 0xffffffff
70001f44:	ffff ffff 			@ <UNDEFINED> instruction: 0xffffffff
70001f48:	ffff ffff 			@ <UNDEFINED> instruction: 0xffffffff
70001f4c:	ffff ffff 			@ <UNDEFINED> instruction: 0xffffffff
70001f50:	ffff ffff 			@ <UNDEFINED> instruction: 0xffffffff
70001f54:	ffff ffff 			@ <UNDEFINED> instruction: 0xffffffff
70001f58:	ffff ffff 			@ <UNDEFINED> instruction: 0xffffffff
70001f5c:	ffff ffff 			@ <UNDEFINED> instruction: 0xffffffff
70001f60:	ffff ffff 			@ <UNDEFINED> instruction: 0xffffffff
70001f64:	ffff ffff 			@ <UNDEFINED> instruction: 0xffffffff
70001f68:	ffff ffff 			@ <UNDEFINED> instruction: 0xffffffff
70001f6c:	ffff ffff 			@ <UNDEFINED> instruction: 0xffffffff
70001f70:	ffff ffff 			@ <UNDEFINED> instruction: 0xffffffff
70001f74:	ffff ffff 			@ <UNDEFINED> instruction: 0xffffffff
70001f78:	ffff ffff 			@ <UNDEFINED> instruction: 0xffffffff
70001f7c:	ffff ffff 			@ <UNDEFINED> instruction: 0xffffffff
70001f80:	ffff ffff 			@ <UNDEFINED> instruction: 0xffffffff
70001f84:	ffff ffff 			@ <UNDEFINED> instruction: 0xffffffff
70001f88:	ffff ffff 			@ <UNDEFINED> instruction: 0xffffffff
70001f8c:	ffff ffff 			@ <UNDEFINED> instruction: 0xffffffff
70001f90:	ffff ffff 			@ <UNDEFINED> instruction: 0xffffffff
70001f94:	ffff ffff 			@ <UNDEFINED> instruction: 0xffffffff
70001f98:	ffff ffff 			@ <UNDEFINED> instruction: 0xffffffff
70001f9c:	ffff ffff 			@ <UNDEFINED> instruction: 0xffffffff
70001fa0:	ffff ffff 			@ <UNDEFINED> instruction: 0xffffffff
70001fa4:	ffff ffff 			@ <UNDEFINED> instruction: 0xffffffff
70001fa8:	ffff ffff 			@ <UNDEFINED> instruction: 0xffffffff
70001fac:	ffff ffff 			@ <UNDEFINED> instruction: 0xffffffff
70001fb0:	ffff ffff 			@ <UNDEFINED> instruction: 0xffffffff
70001fb4:	ffff ffff 			@ <UNDEFINED> instruction: 0xffffffff
70001fb8:	ffff ffff 			@ <UNDEFINED> instruction: 0xffffffff
70001fbc:	ffff ffff 			@ <UNDEFINED> instruction: 0xffffffff
70001fc0:	ffff ffff 			@ <UNDEFINED> instruction: 0xffffffff
70001fc4:	ffff ffff 			@ <UNDEFINED> instruction: 0xffffffff
70001fc8:	ffff ffff 			@ <UNDEFINED> instruction: 0xffffffff
70001fcc:	ffff ffff 			@ <UNDEFINED> instruction: 0xffffffff
70001fd0:	ffff ffff 			@ <UNDEFINED> instruction: 0xffffffff
70001fd4:	ffff ffff 			@ <UNDEFINED> instruction: 0xffffffff
70001fd8:	ffff ffff 			@ <UNDEFINED> instruction: 0xffffffff
70001fdc:	ffff ffff 			@ <UNDEFINED> instruction: 0xffffffff
70001fe0:	ffff ffff 			@ <UNDEFINED> instruction: 0xffffffff
70001fe4:	ffff ffff 			@ <UNDEFINED> instruction: 0xffffffff
70001fe8:	ffff ffff 			@ <UNDEFINED> instruction: 0xffffffff
70001fec:	ffff ffff 			@ <UNDEFINED> instruction: 0xffffffff
70001ff0:	ffff ffff 			@ <UNDEFINED> instruction: 0xffffffff
70001ff4:	ffff ffff 			@ <UNDEFINED> instruction: 0xffffffff
70001ff8:	ffff ffff 			@ <UNDEFINED> instruction: 0xffffffff
70001ffc:	ffff ffff 			@ <UNDEFINED> instruction: 0xffffffff
70002000:	4d4d      	ldr	r5, [pc, #308]	@ (0x70002138)
70002002:	014d      	lsls	r5, r1, #5
70002004:	0038      	movs	r0, r7
70002006:	0000      	movs	r0, r0
70002008:	4946      	ldr	r1, [pc, #280]	@ (0x70002124)
7000200a:	454c      	cmp	r4, r9
7000200c:	495f      	ldr	r1, [pc, #380]	@ (0x7000218c)
7000200e:	464e      	mov	r6, r9
70002010:	004f      	lsls	r7, r1, #1
70002012:	0000      	movs	r0, r0
70002014:	0001      	movs	r1, r0
70002016:	0000      	movs	r0, r0
70002018:	0002      	movs	r2, r0
7000201a:	0107      	lsls	r7, r0, #4
7000201c:	2800      	cmp	r0, #0
7000201e:	1000      	asrs	r0, r0, #32
70002020:	7a38      	ldrb	r0, [r7, #8]
70002022:	0000      	movs	r0, r0
70002024:	ffff ffff 			@ <UNDEFINED> instruction: 0xffffffff
70002028:	0060      	lsls	r0, r4, #1
7000202a:	0000      	movs	r0, r0
7000202c:	0020      	movs	r0, r4
7000202e:	0000      	movs	r0, r0
70002030:	0060      	lsls	r0, r4, #1
70002032:	0000      	movs	r0, r0
70002034:	0003      	movs	r3, r0
70002036:	0000      	movs	r0, r0
70002038:	4d4d      	ldr	r5, [pc, #308]	@ (0x70002170)
7000203a:	014d      	lsls	r5, r1, #5
7000203c:	000c      	movs	r4, r1
7000203e:	0001      	movs	r1, r0
70002040:	0000      	movs	r0, r0
70002042:	0000      	movs	r0, r0
70002044:	4d4d      	ldr	r5, [pc, #308]	@ (0x7000217c)
70002046:	014d      	lsls	r5, r1, #5
70002048:	001c      	movs	r4, r3
7000204a:	0209      	lsls	r1, r1, #8
7000204c:	0001      	movs	r1, r0
7000204e:	0000      	movs	r0, r0
70002050:	0560      	lsls	r0, r4, #21
	...
7000205e:	0000      	movs	r0, r0
70002060:	0009      	movs	r1, r1
70002062:	ea00 fffe 			@ <UNDEFINED> instruction: 0xea00fffe
70002066:	eaff fffe 			@ <UNDEFINED> instruction: 0xeafffffe
7000206a:	eaff fffe 			@ <UNDEFINED> instruction: 0xeafffffe
7000206e:	eaff fffe 			@ <UNDEFINED> instruction: 0xeafffffe
70002072:	eaff fffe 			@ <UNDEFINED> instruction: 0xeafffffe
70002076:	eaff fffe 			@ <UNDEFINED> instruction: 0xeafffffe
7000207a:	eaff fffe 			@ <UNDEFINED> instruction: 0xeafffffe
7000207e:	eaff 9ffc 			@ <UNDEFINED> instruction: 0xeaff9ffc
70002082:	7000      	strb	r0, [r0, #0]
70002084:	9000      	str	r0, [sp, #0]
70002086:	7000      	strb	r0, [r0, #0]
70002088:	a000      	add	r0, pc, #0	@ (adr r0, 0x7000208c)
7000208a:	7000      	strb	r0, [r0, #0]
7000208c:	0014      	movs	r4, r2
7000208e:	e51f      	b.n	0x70001ad0
70002090:	d000      	beq.n	0x70002094
70002092:	e1a0      	b.n	0x700023d6
70002094:	2000      	movs	r0, #0
70002096:	e3e0      	b.n	0x7000285a
70002098:	101c      	asrs	r4, r3, #32
7000209a:	e51f      	b.n	0x70001adc
7000209c:	0000      	movs	r0, r0
7000209e:	e151      	b.n	0x70002344
700020a0:	2000      	movs	r0, #0
700020a2:	e580      	b.n	0x70001ba6
700020a4:	0004      	movs	r4, r0
700020a6:	e240      	b.n	0x7000252a
700020a8:	fffb 3aff 			@ <UNDEFINED> instruction: 0xfffb3aff
700020ac:	1473      	asrs	r3, r6, #17
700020ae:	eb00 1444 	add.w	r4, r0, r4, lsl #5
700020b2:	eb00 0000 	add.w	r0, r0, r0
700020b6:	fa00 fffe 			@ <UNDEFINED> instruction: 0xfa00fffe
700020ba:	eaff b570 			@ <UNDEFINED> instruction: 0xeaffb570
700020be:	f000 fa2d 	bl	0x7000251c
700020c2:	4826      	ldr	r0, [pc, #152]	@ (0x7000215c)
700020c4:	7800      	ldrb	r0, [r0, #0]
700020c6:	f000 fb59 	bl	0x7000277c
700020ca:	4925      	ldr	r1, [pc, #148]	@ (0x70002160)
700020cc:	a025      	add	r0, pc, #148	@ (adr r0, 0x70002164)
700020ce:	f003 fc5f 	bl	0x70005990
700020d2:	a032      	add	r0, pc, #200	@ (adr r0, 0x7000219c)
700020d4:	f003 fc5c 	bl	0x70005990
700020d8:	f000 faa2 	bl	0x70002620
700020dc:	f000 fa70 	bl	0x700025c0
700020e0:	4c3d      	ldr	r4, [pc, #244]	@ (0x700021d8)
700020e2:	7820      	ldrb	r0, [r4, #0]
700020e4:	2800      	cmp	r0, #0
700020e6:	d002      	beq.n	0x700020ee
700020e8:	2040      	movs	r0, #64	@ 0x40
700020ea:	f000 fc29 	bl	0x70002940
700020ee:	7860      	ldrb	r0, [r4, #1]
700020f0:	2800      	cmp	r0, #0
700020f2:	d101      	bne.n	0x700020f8
700020f4:	f000 faa4 	bl	0x70002640
700020f8:	f000 fc5c 	bl	0x700029b4
700020fc:	f000 fa52 	bl	0x700025a4
70002100:	f000 f9bc 	bl	0x7000247c
70002104:	2501      	movs	r5, #1
70002106:	2800      	cmp	r0, #0
70002108:	d102      	bne.n	0x70002110
7000210a:	2003      	movs	r0, #3
7000210c:	7065      	strb	r5, [r4, #1]
7000210e:	60a0      	str	r0, [r4, #8]
70002110:	f000 f988 	bl	0x70002424
70002114:	2800      	cmp	r0, #0
70002116:	d102      	bne.n	0x7000211e
70002118:	2004      	movs	r0, #4
7000211a:	7065      	strb	r5, [r4, #1]
7000211c:	60a0      	str	r0, [r4, #8]
7000211e:	f000 f9d5 	bl	0x700024cc
70002122:	f003 f99f 	bl	0x70005464
70002126:	2800      	cmp	r0, #0
70002128:	d101      	bne.n	0x7000212e
7000212a:	f000 f95f 	bl	0x700023ec
7000212e:	f003 f999 	bl	0x70005464
70002132:	2800      	cmp	r0, #0
70002134:	d101      	bne.n	0x7000213a
70002136:	f000 f959 	bl	0x700023ec
7000213a:	7860      	ldrb	r0, [r4, #1]
7000213c:	2800      	cmp	r0, #0
7000213e:	d107      	bne.n	0x70002150
70002140:	f000 fa7c 	bl	0x7000263c
70002144:	f000 f95a 	bl	0x700023fc
70002148:	f000 f866 	bl	0x70002218
7000214c:	f002 ee74 	blx	0x70004e38
70002150:	7861      	ldrb	r1, [r4, #1]
70002152:	68a2      	ldr	r2, [r4, #8]
70002154:	a021      	add	r0, pc, #132	@ (adr r0, 0x700021dc)
70002156:	f003 fc1b 	bl	0x70005990
7000215a:	bd70      	pop	{r4, r5, r6, pc}
7000215c:	84e0      	strh	r0, [r4, #38]	@ 0x26
7000215e:	1000      	asrs	r0, r0, #32
70002160:	845a      	strh	r2, [r3, #34]	@ 0x22
70002162:	1000      	asrs	r0, r0, #32
70002164:	0a0a      	lsrs	r2, r1, #8
70002166:	0d0a      	lsrs	r2, r1, #20
70002168:	7e7e      	ldrb	r6, [r7, #25]
7000216a:	207e      	movs	r0, #126	@ 0x7e
7000216c:	6557      	str	r7, [r2, #84]	@ 0x54
7000216e:	636c      	str	r4, [r5, #52]	@ 0x34
70002170:	6d6f      	ldr	r7, [r5, #84]	@ 0x54
70002172:	2065      	movs	r0, #101	@ 0x65
70002174:	6f74      	ldr	r4, [r6, #116]	@ 0x74
70002176:	4d20      	ldr	r5, [pc, #128]	@ (0x700021f8)
70002178:	4b54      	ldr	r3, [pc, #336]	@ (0x700022cc)
7000217a:	4220      	tst	r0, r4
7000217c:	6f6f      	ldr	r7, [r5, #116]	@ 0x74
7000217e:	6c74      	ldr	r4, [r6, #68]	@ 0x44
70002180:	616f      	str	r7, [r5, #20]
70002182:	6564      	str	r4, [r4, #84]	@ 0x54
70002184:	2072      	movs	r0, #114	@ 0x72
70002186:	7325      	strb	r5, [r4, #12]
70002188:	2820      	cmp	r0, #32
7000218a:	6973      	ldr	r3, [r6, #20]
7000218c:	636e      	str	r6, [r5, #52]	@ 0x34
7000218e:	2065      	movs	r0, #101	@ 0x65
70002190:	3032      	adds	r0, #50	@ 0x32
70002192:	3530      	adds	r5, #48	@ 0x30
70002194:	2029      	movs	r0, #41	@ 0x29
70002196:	7e7e      	ldrb	r6, [r7, #25]
70002198:	0a7e      	lsrs	r6, r7, #9
7000219a:	000d      	movs	r5, r1
7000219c:	2a2a      	cmp	r2, #42	@ 0x2a
7000219e:	3d3d      	subs	r5, #61	@ 0x3d
700021a0:	3d3d      	subs	r5, #61	@ 0x3d
700021a2:	3d3d      	subs	r5, #61	@ 0x3d
700021a4:	3d3d      	subs	r5, #61	@ 0x3d
700021a6:	3d3d      	subs	r5, #61	@ 0x3d
700021a8:	3d3d      	subs	r5, #61	@ 0x3d
700021aa:	3d3d      	subs	r5, #61	@ 0x3d
700021ac:	3d3d      	subs	r5, #61	@ 0x3d
700021ae:	3d3d      	subs	r5, #61	@ 0x3d
700021b0:	3d3d      	subs	r5, #61	@ 0x3d
700021b2:	3d3d      	subs	r5, #61	@ 0x3d
700021b4:	3d3d      	subs	r5, #61	@ 0x3d
700021b6:	3d3d      	subs	r5, #61	@ 0x3d
700021b8:	3d3d      	subs	r5, #61	@ 0x3d
700021ba:	3d3d      	subs	r5, #61	@ 0x3d
700021bc:	3d3d      	subs	r5, #61	@ 0x3d
700021be:	3d3d      	subs	r5, #61	@ 0x3d
700021c0:	3d3d      	subs	r5, #61	@ 0x3d
700021c2:	3d3d      	subs	r5, #61	@ 0x3d
700021c4:	3d3d      	subs	r5, #61	@ 0x3d
700021c6:	3d3d      	subs	r5, #61	@ 0x3d
700021c8:	3d3d      	subs	r5, #61	@ 0x3d
700021ca:	3d3d      	subs	r5, #61	@ 0x3d
700021cc:	3d3d      	subs	r5, #61	@ 0x3d
700021ce:	3d3d      	subs	r5, #61	@ 0x3d
700021d0:	2a3d      	cmp	r2, #61	@ 0x3d
700021d2:	0a2a      	lsrs	r2, r5, #8
700021d4:	0d0a      	lsrs	r2, r1, #20
700021d6:	0000      	movs	r0, r0
700021d8:	2154      	movs	r1, #84	@ 0x54
700021da:	0001      	movs	r1, r0
700021dc:	6f42      	ldr	r2, [r0, #116]	@ 0x74
700021de:	746f      	strb	r7, [r5, #17]
700021e0:	6f6c      	ldr	r4, [r5, #116]	@ 0x74
700021e2:	6461      	str	r1, [r4, #68]	@ 0x44
700021e4:	7265      	strb	r5, [r4, #9]
700021e6:	6420      	str	r0, [r4, #64]	@ 0x40
700021e8:	6165      	str	r5, [r4, #20]
700021ea:	2064      	movs	r0, #100	@ 0x64
700021ec:	6e65      	ldr	r5, [r4, #100]	@ 0x64
700021ee:	2864      	cmp	r0, #100	@ 0x64
700021f0:	6425      	str	r5, [r4, #64]	@ 0x40
700021f2:	252c      	movs	r5, #44	@ 0x2c
700021f4:	2964      	cmp	r1, #100	@ 0x64
700021f6:	0d0a      	lsrs	r2, r1, #20
700021f8:	0000      	movs	r0, r0
700021fa:	0000      	movs	r0, r0
700021fc:	6800      	ldr	r0, [r0, #0]
700021fe:	2100      	movs	r1, #0
70002200:	4b6b      	ldr	r3, [pc, #428]	@ (0x700023b0)
70002202:	0e02      	lsrs	r2, r0, #24
70002204:	e004      	b.n	0x70002210
70002206:	4290      	cmp	r0, r2
70002208:	d101      	bne.n	0x7000220e
7000220a:	2001      	movs	r0, #1
7000220c:	4770      	bx	lr
7000220e:	1c49      	adds	r1, r1, #1
70002210:	5c58      	ldrb	r0, [r3, r1]
70002212:	2800      	cmp	r0, #0
70002214:	d1f7      	bne.n	0x70002206
70002216:	4770      	bx	lr
70002218:	b5f0      	push	{r4, r5, r6, r7, lr}
7000221a:	2500      	movs	r5, #0
7000221c:	b089      	sub	sp, #36	@ 0x24
7000221e:	002c      	movs	r4, r5
70002220:	9506      	str	r5, [sp, #24]
70002222:	f002 fd65 	bl	0x70004cf0
70002226:	0006      	movs	r6, r0
70002228:	4862      	ldr	r0, [pc, #392]	@ (0x700023b4)
7000222a:	9008      	str	r0, [sp, #32]
7000222c:	e035      	b.n	0x7000229a
7000222e:	2c01      	cmp	r4, #1
70002230:	d105      	bne.n	0x7000223e
70002232:	f002 fd2f 	bl	0x70004c94
70002236:	9908      	ldr	r1, [sp, #32]
70002238:	68c9      	ldr	r1, [r1, #12]
7000223a:	4288      	cmp	r0, r1
7000223c:	d02f      	beq.n	0x7000229e
7000223e:	20e8      	movs	r0, #232	@ 0xe8
70002240:	4b5c      	ldr	r3, [pc, #368]	@ (0x700023b4)
70002242:	4360      	muls	r0, r4
70002244:	495c      	ldr	r1, [pc, #368]	@ (0x700023b8)
70002246:	3bc0      	subs	r3, #192	@ 0xc0
70002248:	43ca      	mvns	r2, r1
7000224a:	501a      	str	r2, [r3, r0]
7000224c:	18c7      	adds	r7, r0, r3
7000224e:	6179      	str	r1, [r7, #20]
70002250:	00e0      	lsls	r0, r4, #3
70002252:	397c      	subs	r1, #124	@ 0x7c
70002254:	1841      	adds	r1, r0, r1
70002256:	0038      	movs	r0, r7
70002258:	3080      	adds	r0, #128	@ 0x80
7000225a:	62c1      	str	r1, [r0, #44]	@ 0x2c
7000225c:	2117      	movs	r1, #23
7000225e:	4a56      	ldr	r2, [pc, #344]	@ (0x700023b8)
70002260:	4361      	muls	r1, r4
70002262:	3a30      	subs	r2, #48	@ 0x30
70002264:	1889      	adds	r1, r1, r2
70002266:	6301      	str	r1, [r0, #48]	@ 0x30
70002268:	3040      	adds	r0, #64	@ 0x40
7000226a:	9007      	str	r0, [sp, #28]
7000226c:	80c4      	strh	r4, [r0, #6]
7000226e:	0020      	movs	r0, r4
70002270:	f002 fd40 	bl	0x70004cf4
70002274:	0001      	movs	r1, r0
70002276:	9807      	ldr	r0, [sp, #28]
70002278:	60c1      	str	r1, [r0, #12]
7000227a:	f002 fd09 	bl	0x70004c90
7000227e:	f000 fd47 	bl	0x70002d10
70002282:	0002      	movs	r2, r0
70002284:	9006      	str	r0, [sp, #24]
70002286:	484c      	ldr	r0, [pc, #304]	@ (0x700023b8)
70002288:	0039      	movs	r1, r7
7000228a:	386c      	subs	r0, #108	@ 0x6c
7000228c:	f002 ede4 	blx	0x70004e58
70002290:	2800      	cmp	r0, #0
70002292:	d173      	bne.n	0x7000237c
70002294:	1c64      	adds	r4, r4, #1
70002296:	0624      	lsls	r4, r4, #24
70002298:	0e24      	lsrs	r4, r4, #24
7000229a:	42b4      	cmp	r4, r6
7000229c:	d3c7      	bcc.n	0x7000222e
7000229e:	2e02      	cmp	r6, #2
700022a0:	d109      	bne.n	0x700022b6
700022a2:	f002 fcf9 	bl	0x70004c98
700022a6:	0004      	movs	r4, r0
700022a8:	f002 fcf2 	bl	0x70004c90
700022ac:	4a42      	ldr	r2, [pc, #264]	@ (0x700023b8)
700022ae:	0021      	movs	r1, r4
700022b0:	f002 fdab 	bl	0x70004e0a
700022b4:	e016      	b.n	0x700022e4
700022b6:	2e01      	cmp	r6, #1
700022b8:	d109      	bne.n	0x700022ce
700022ba:	f002 fced 	bl	0x70004c98
700022be:	0004      	movs	r4, r0
700022c0:	f002 fce6 	bl	0x70004c90
700022c4:	4a3c      	ldr	r2, [pc, #240]	@ (0x700023b8)
700022c6:	0021      	movs	r1, r4
700022c8:	f002 fd8e 	bl	0x70004de8
700022cc:	e00a      	b.n	0x700022e4
700022ce:	2200      	movs	r2, #0
700022d0:	9201      	str	r2, [sp, #4]
700022d2:	9202      	str	r2, [sp, #8]
700022d4:	9203      	str	r2, [sp, #12]
700022d6:	9200      	str	r2, [sp, #0]
700022d8:	4a38      	ldr	r2, [pc, #224]	@ (0x700023bc)
700022da:	2300      	movs	r3, #0
700022dc:	a138      	add	r1, pc, #224	@ (adr r1, 0x700023c0)
700022de:	a042      	add	r0, pc, #264	@ (adr r0, 0x700023e8)
700022e0:	f003 fb62 	bl	0x700059a8
700022e4:	9806      	ldr	r0, [sp, #24]
700022e6:	f002 fd28 	bl	0x70004d3a
700022ea:	0002      	movs	r2, r0
700022ec:	4b32      	ldr	r3, [pc, #200]	@ (0x700023b8)
700022ee:	2000      	movs	r0, #0
700022f0:	e003      	b.n	0x700022fa
700022f2:	18c9      	adds	r1, r1, r3
700022f4:	6849      	ldr	r1, [r1, #4]
700022f6:	1c40      	adds	r0, r0, #1
700022f8:	194d      	adds	r5, r1, r5
700022fa:	00c1      	lsls	r1, r0, #3
700022fc:	585c      	ldr	r4, [r3, r1]
700022fe:	2c00      	cmp	r4, #0
70002300:	d1f7      	bne.n	0x700022f2
70002302:	482c      	ldr	r0, [pc, #176]	@ (0x700023b4)
70002304:	38c0      	subs	r0, #192	@ 0xc0
70002306:	6847      	ldr	r7, [r0, #4]
70002308:	e009      	b.n	0x7000231e
7000230a:	6838      	ldr	r0, [r7, #0]
7000230c:	0e00      	lsrs	r0, r0, #24
7000230e:	28ff      	cmp	r0, #255	@ 0xff
70002310:	d107      	bne.n	0x70002322
70002312:	18bf      	adds	r7, r7, r2
70002314:	0038      	movs	r0, r7
70002316:	f002 fd10 	bl	0x70004d3a
7000231a:	0002      	movs	r2, r0
7000231c:	1c64      	adds	r4, r4, #1
7000231e:	42ac      	cmp	r4, r5
70002320:	d3f3      	bcc.n	0x7000230a
70002322:	42ac      	cmp	r4, r5
70002324:	d040      	beq.n	0x700023a8
70002326:	4823      	ldr	r0, [pc, #140]	@ (0x700023b4)
70002328:	38c0      	subs	r0, #192	@ 0xc0
7000232a:	6844      	ldr	r4, [r0, #4]
7000232c:	0020      	movs	r0, r4
7000232e:	f002 fd04 	bl	0x70004d3a
70002332:	2700      	movs	r7, #0
70002334:	9005      	str	r0, [sp, #20]
70002336:	e035      	b.n	0x700023a4
70002338:	6820      	ldr	r0, [r4, #0]
7000233a:	2101      	movs	r1, #1
7000233c:	0200      	lsls	r0, r0, #8
7000233e:	0a00      	lsrs	r0, r0, #8
70002340:	0509      	lsls	r1, r1, #20
70002342:	4288      	cmp	r0, r1
70002344:	d804      	bhi.n	0x70002350
70002346:	0020      	movs	r0, r4
70002348:	f7ff ff58 	bl	0x700021fc
7000234c:	2800      	cmp	r0, #0
7000234e:	d122      	bne.n	0x70002396
70002350:	2e02      	cmp	r6, #2
70002352:	d10a      	bne.n	0x7000236a
70002354:	9808      	ldr	r0, [sp, #32]
70002356:	0121      	lsls	r1, r4, #4
70002358:	68c0      	ldr	r0, [r0, #12]
7000235a:	0909      	lsrs	r1, r1, #4
7000235c:	4281      	cmp	r1, r0
7000235e:	d306      	bcc.n	0x7000236e
70002360:	1a22      	subs	r2, r4, r0
70002362:	4814      	ldr	r0, [pc, #80]	@ (0x700023b4)
70002364:	9905      	ldr	r1, [sp, #20]
70002366:	3028      	adds	r0, #40	@ 0x28
70002368:	e005      	b.n	0x70002376
7000236a:	2e01      	cmp	r6, #1
7000236c:	d107      	bne.n	0x7000237e
7000236e:	4811      	ldr	r0, [pc, #68]	@ (0x700023b4)
70002370:	9905      	ldr	r1, [sp, #20]
70002372:	0022      	movs	r2, r4
70002374:	38c0      	subs	r0, #192	@ 0xc0
70002376:	f002 ed74 	blx	0x70004e60
7000237a:	e00c      	b.n	0x70002396
7000237c:	e016      	b.n	0x700023ac
7000237e:	2200      	movs	r2, #0
70002380:	9201      	str	r2, [sp, #4]
70002382:	9202      	str	r2, [sp, #8]
70002384:	9203      	str	r2, [sp, #12]
70002386:	9200      	str	r2, [sp, #0]
70002388:	4a0c      	ldr	r2, [pc, #48]	@ (0x700023bc)
7000238a:	2300      	movs	r3, #0
7000238c:	3244      	adds	r2, #68	@ 0x44
7000238e:	a10c      	add	r1, pc, #48	@ (adr r1, 0x700023c0)
70002390:	a015      	add	r0, pc, #84	@ (adr r0, 0x700023e8)
70002392:	f003 fb09 	bl	0x700059a8
70002396:	9805      	ldr	r0, [sp, #20]
70002398:	1824      	adds	r4, r4, r0
7000239a:	0020      	movs	r0, r4
7000239c:	f002 fccd 	bl	0x70004d3a
700023a0:	1c7f      	adds	r7, r7, #1
700023a2:	9005      	str	r0, [sp, #20]
700023a4:	42af      	cmp	r7, r5
700023a6:	d3c7      	bcc.n	0x70002338
700023a8:	f002 ed5e 	blx	0x70004e68
700023ac:	b009      	add	sp, #36	@ 0x24
700023ae:	bdf0      	pop	{r4, r5, r6, r7, pc}
700023b0:	20d6      	movs	r0, #214	@ 0xd6
700023b2:	0001      	movs	r1, r0
700023b4:	30c0      	adds	r0, #192	@ 0xc0
700023b6:	0001      	movs	r1, r0
700023b8:	324c      	adds	r2, #76	@ 0x4c
700023ba:	0001      	movs	r1, r0
700023bc:	0275      	lsls	r5, r6, #9
700023be:	0000      	movs	r0, r0
700023c0:	6168      	str	r0, [r5, #20]
700023c2:	5c6c      	ldrb	r4, [r5, r1]
700023c4:	7473      	strb	r3, [r6, #17]
700023c6:	726f      	strb	r7, [r5, #9]
700023c8:	6761      	str	r1, [r4, #116]	@ 0x74
700023ca:	5c65      	ldrb	r5, [r4, r1]
700023cc:	6c66      	ldr	r6, [r4, #68]	@ 0x44
700023ce:	7361      	strb	r1, [r4, #13]
700023d0:	5c68      	ldrb	r0, [r5, r1]
700023d2:	746d      	strb	r5, [r5, #17]
700023d4:	5c64      	ldrb	r4, [r4, r1]
700023d6:	7273      	strb	r3, [r6, #9]
700023d8:	5c63      	ldrb	r3, [r4, r1]
700023da:	6c66      	ldr	r6, [r4, #68]	@ 0x44
700023dc:	7361      	strb	r1, [r4, #13]
700023de:	5f68      	ldrsh	r0, [r5, r5]
700023e0:	6964      	ldr	r4, [r4, #20]
700023e2:	6b73      	ldr	r3, [r6, #52]	@ 0x34
700023e4:	632e      	str	r6, [r5, #48]	@ 0x30
700023e6:	0000      	movs	r0, r0
700023e8:	0030      	movs	r0, r6
700023ea:	0000      	movs	r0, r0
700023ec:	b508      	push	{r3, lr}
700023ee:	2001      	movs	r0, #1
700023f0:	9000      	str	r0, [sp, #0]
700023f2:	2008      	movs	r0, #8
700023f4:	4669      	mov	r1, sp
700023f6:	f003 f83d 	bl	0x70005474
700023fa:	bd08      	pop	{r3, pc}
700023fc:	4807      	ldr	r0, [pc, #28]	@ (0x7000241c)
700023fe:	4908      	ldr	r1, [pc, #32]	@ (0x70002420)
70002400:	0b00      	lsrs	r0, r0, #12
70002402:	0b0a      	lsrs	r2, r1, #12
70002404:	0300      	lsls	r0, r0, #12
70002406:	0312      	lsls	r2, r2, #12
70002408:	1a12      	subs	r2, r2, r0
7000240a:	b510      	push	{r4, lr}
7000240c:	4281      	cmp	r1, r0
7000240e:	d903      	bls.n	0x70002418
70002410:	2a00      	cmp	r2, #0
70002412:	d001      	beq.n	0x70002418
70002414:	f000 fa52 	bl	0x700028bc
70002418:	bd10      	pop	{r4, pc}
7000241a:	0000      	movs	r0, r0
7000241c:	37ff      	adds	r7, #255	@ 0xff
7000241e:	1000      	asrs	r0, r0, #32
70002420:	8f2c      	ldrh	r4, [r5, #56]	@ 0x38
70002422:	1000      	asrs	r0, r0, #32
70002424:	4809      	ldr	r0, [pc, #36]	@ (0x7000244c)
70002426:	b510      	push	{r4, lr}
70002428:	6800      	ldr	r0, [r0, #0]
7000242a:	1c40      	adds	r0, r0, #1
7000242c:	d00c      	beq.n	0x70002448
7000242e:	4c08      	ldr	r4, [pc, #32]	@ (0x70002450)
70002430:	6820      	ldr	r0, [r4, #0]
70002432:	f000 f9e3 	bl	0x700027fc
70002436:	2800      	cmp	r0, #0
70002438:	d106      	bne.n	0x70002448
7000243a:	6822      	ldr	r2, [r4, #0]
7000243c:	2003      	movs	r0, #3
7000243e:	a105      	add	r1, pc, #20	@ (adr r1, 0x70002454)
70002440:	f003 f806 	bl	0x70005450
70002444:	2000      	movs	r0, #0
70002446:	bd10      	pop	{r4, pc}
70002448:	2001      	movs	r0, #1
7000244a:	bd10      	pop	{r4, pc}
7000244c:	2034      	movs	r0, #52	@ 0x34
7000244e:	0001      	movs	r1, r0
70002450:	2ac4      	cmp	r2, #196	@ 0xc4
70002452:	0001      	movs	r1, r0
70002454:	6e49      	ldr	r1, [r1, #100]	@ 0x64
70002456:	6f63      	ldr	r3, [r4, #116]	@ 0x74
70002458:	706d      	strb	r5, [r5, #1]
7000245a:	7461      	strb	r1, [r4, #17]
7000245c:	6269      	str	r1, [r5, #36]	@ 0x24
7000245e:	656c      	str	r4, [r5, #84]	@ 0x54
70002460:	6620      	str	r0, [r4, #96]	@ 0x60
70002462:	6165      	str	r5, [r4, #20]
70002464:	7574      	strb	r4, [r6, #21]
70002466:	6572      	str	r2, [r6, #84]	@ 0x54
70002468:	2c73      	cmp	r4, #115	@ 0x73
7000246a:	6d20      	ldr	r0, [r4, #80]	@ 0x50
7000246c:	7561      	strb	r1, [r4, #21]
7000246e:	4669      	mov	r1, sp
70002470:	6165      	str	r5, [r4, #20]
70002472:	7574      	strb	r4, [r6, #21]
70002474:	6572      	str	r2, [r6, #84]	@ 0x54
70002476:	253d      	movs	r5, #61	@ 0x3d
70002478:	0a64      	lsrs	r4, r4, #9
7000247a:	000d      	movs	r5, r1
7000247c:	b510      	push	{r4, lr}
7000247e:	f000 faa1 	bl	0x700029c4
70002482:	2800      	cmp	r0, #0
70002484:	d00c      	beq.n	0x700024a0
70002486:	30c0      	adds	r0, #192	@ 0xc0
70002488:	6882      	ldr	r2, [r0, #8]
7000248a:	4806      	ldr	r0, [pc, #24]	@ (0x700024a4)
7000248c:	6cc1      	ldr	r1, [r0, #76]	@ 0x4c
7000248e:	428a      	cmp	r2, r1
70002490:	d006      	beq.n	0x700024a0
70002492:	000b      	movs	r3, r1
70002494:	2003      	movs	r0, #3
70002496:	a104      	add	r1, pc, #16	@ (adr r1, 0x700024a8)
70002498:	f002 ffda 	bl	0x70005450
7000249c:	2000      	movs	r0, #0
7000249e:	bd10      	pop	{r4, pc}
700024a0:	2001      	movs	r0, #1
700024a2:	bd10      	pop	{r4, pc}
700024a4:	2800      	cmp	r0, #0
700024a6:	1000      	asrs	r0, r0, #32
700024a8:	6150      	str	r0, [r2, #20]
700024aa:	7269      	strb	r1, [r5, #9]
700024ac:	6465      	str	r5, [r4, #68]	@ 0x44
700024ae:	7620      	strb	r0, [r4, #24]
700024b0:	7265      	strb	r5, [r4, #9]
700024b2:	6973      	ldr	r3, [r6, #20]
700024b4:	6e6f      	ldr	r7, [r5, #100]	@ 0x64
700024b6:	6d20      	ldr	r0, [r4, #80]	@ 0x50
700024b8:	7369      	strb	r1, [r5, #13]
700024ba:	616d      	str	r5, [r5, #20]
700024bc:	6374      	str	r4, [r6, #52]	@ 0x34
700024be:	6568      	str	r0, [r5, #84]	@ 0x54
700024c0:	2c64      	cmp	r4, #100	@ 0x64
700024c2:	2520      	movs	r5, #32
700024c4:	2c64      	cmp	r4, #100	@ 0x64
700024c6:	2520      	movs	r5, #32
700024c8:	0a64      	lsrs	r4, r4, #9
700024ca:	000d      	movs	r5, r1
700024cc:	b510      	push	{r4, lr}
700024ce:	f000 fa1b 	bl	0x70002908
700024d2:	480b      	ldr	r0, [pc, #44]	@ (0x70002500)
700024d4:	7801      	ldrb	r1, [r0, #0]
700024d6:	29fe      	cmp	r1, #254	@ 0xfe
700024d8:	d00e      	beq.n	0x700024f8
700024da:	7800      	ldrb	r0, [r0, #0]
700024dc:	f000 f960 	bl	0x700027a0
700024e0:	2800      	cmp	r0, #0
700024e2:	d009      	beq.n	0x700024f8
700024e4:	2001      	movs	r0, #1
700024e6:	a107      	add	r1, pc, #28	@ (adr r1, 0x70002504)
700024e8:	f002 ffb2 	bl	0x70005450
700024ec:	2010      	movs	r0, #16
700024ee:	f000 fa27 	bl	0x70002940
700024f2:	f000 fa57 	bl	0x700029a4
700024f6:	bd10      	pop	{r4, pc}
700024f8:	f000 f9a4 	bl	0x70002844
700024fc:	bd10      	pop	{r4, pc}
700024fe:	0000      	movs	r0, r0
70002500:	84e1      	strh	r1, [r4, #38]	@ 0x26
70002502:	1000      	asrs	r0, r0, #32
70002504:	6146      	str	r6, [r0, #20]
70002506:	7473      	strb	r3, [r6, #17]
70002508:	4d20      	ldr	r5, [pc, #128]	@ (0x7000258c)
7000250a:	5445      	strb	r5, [r0, r1]
7000250c:	2041      	movs	r0, #65	@ 0x41
7000250e:	7274      	strb	r4, [r6, #9]
70002510:	6769      	str	r1, [r5, #116]	@ 0x74
70002512:	6567      	str	r7, [r4, #84]	@ 0x54
70002514:	6572      	str	r2, [r6, #84]	@ 0x54
70002516:	0a64      	lsrs	r4, r4, #9
70002518:	000d      	movs	r5, r1
7000251a:	0000      	movs	r0, r0
7000251c:	b5fe      	push	{r1, r2, r3, r4, r5, r6, r7, lr}
7000251e:	2000      	movs	r0, #0
70002520:	9002      	str	r0, [sp, #8]
70002522:	481b      	ldr	r0, [pc, #108]	@ (0x70002590)
70002524:	aa01      	add	r2, sp, #4
70002526:	a902      	add	r1, sp, #8
70002528:	466b      	mov	r3, sp
7000252a:	f000 fa75 	bl	0x70002a18
7000252e:	2501      	movs	r5, #1
70002530:	4c18      	ldr	r4, [pc, #96]	@ (0x70002594)
70002532:	4f19      	ldr	r7, [pc, #100]	@ (0x70002598)
70002534:	4e19      	ldr	r6, [pc, #100]	@ (0x7000259c)
70002536:	032d      	lsls	r5, r5, #12
70002538:	e026      	b.n	0x70002588
7000253a:	9901      	ldr	r1, [sp, #4]
7000253c:	1b4b      	subs	r3, r1, r5
7000253e:	f003 ea1c 	blx	0x70005978
70002542:	1d0a      	adds	r2, r1, #4
70002544:	061d      	lsls	r5, r3, #24
70002546:	0e09      	lsrs	r1, r1, #24
70002548:	1d14      	adds	r4, r2, #4
7000254a:	1d18      	adds	r0, r3, #4
7000254c:	1d1b      	adds	r3, r3, #4
7000254e:	6800      	ldr	r0, [r0, #0]
70002550:	6060      	str	r0, [r4, #4]
70002552:	e013      	b.n	0x7000257c
70002554:	0001      	movs	r1, r0
70002556:	480f      	ldr	r0, [pc, #60]	@ (0x70002594)
70002558:	003a      	movs	r2, r7
7000255a:	307c      	adds	r0, #124	@ 0x7c
7000255c:	e002      	b.n	0x70002564
7000255e:	0001      	movs	r1, r0
70002560:	480f      	ldr	r0, [pc, #60]	@ (0x700025a0)
70002562:	2240      	movs	r2, #64	@ 0x40
70002564:	f002 eaf4 	blx	0x70004b50
70002568:	e008      	b.n	0x7000257c
7000256a:	9900      	ldr	r1, [sp, #0]
7000256c:	f000 f9dc 	bl	0x70002928
70002570:	e004      	b.n	0x7000257c
70002572:	8800      	ldrh	r0, [r0, #0]
70002574:	8060      	strh	r0, [r4, #2]
70002576:	e001      	b.n	0x7000257c
70002578:	6800      	ldr	r0, [r0, #0]
7000257a:	6070      	str	r0, [r6, #4]
7000257c:	4804      	ldr	r0, [pc, #16]	@ (0x70002590)
7000257e:	aa01      	add	r2, sp, #4
70002580:	a902      	add	r1, sp, #8
70002582:	466b      	mov	r3, sp
70002584:	f000 fa48 	bl	0x70002a18
70002588:	2800      	cmp	r0, #0
7000258a:	d1d6      	bne.n	0x7000253a
7000258c:	bdfe      	pop	{r1, r2, r3, r4, r5, r6, r7, pc}
7000258e:	0000      	movs	r0, r0
70002590:	2000      	movs	r0, #0
70002592:	0000      	movs	r0, r0
70002594:	2154      	movs	r1, #84	@ 0x54
70002596:	0001      	movs	r1, r0
70002598:	08f4      	lsrs	r4, r6, #3
7000259a:	0000      	movs	r0, r0
7000259c:	2038      	movs	r0, #56	@ 0x38
7000259e:	0001      	movs	r1, r0
700025a0:	2110      	movs	r1, #16
700025a2:	0001      	movs	r1, r0
700025a4:	b510      	push	{r4, lr}
700025a6:	4c05      	ldr	r4, [pc, #20]	@ (0x700025bc)
700025a8:	2000      	movs	r0, #0
700025aa:	6020      	str	r0, [r4, #0]
700025ac:	f000 fa0a 	bl	0x700029c4
700025b0:	2800      	cmp	r0, #0
700025b2:	d002      	beq.n	0x700025ba
700025b4:	30c0      	adds	r0, #192	@ 0xc0
700025b6:	68c0      	ldr	r0, [r0, #12]
700025b8:	6020      	str	r0, [r4, #0]
700025ba:	bd10      	pop	{r4, pc}
700025bc:	2ac4      	cmp	r2, #196	@ 0xc4
700025be:	0001      	movs	r1, r0
700025c0:	b570      	push	{r4, r5, r6, lr}
700025c2:	4812      	ldr	r0, [pc, #72]	@ (0x7000260c)
700025c4:	2180      	movs	r1, #128	@ 0x80
700025c6:	f004 ef4e 	blx	0x70007464
700025ca:	4811      	ldr	r0, [pc, #68]	@ (0x70002610)
700025cc:	4c0f      	ldr	r4, [pc, #60]	@ (0x7000260c)
700025ce:	4d11      	ldr	r5, [pc, #68]	@ (0x70002614)
700025d0:	6020      	str	r0, [r4, #0]
700025d2:	6868      	ldr	r0, [r5, #4]
700025d4:	2110      	movs	r1, #16
700025d6:	6060      	str	r0, [r4, #4]
700025d8:	1860      	adds	r0, r4, r1
700025da:	f000 fa3b 	bl	0x70002a54
700025de:	f000 f99f 	bl	0x70002920
700025e2:	2220      	movs	r2, #32
700025e4:	0001      	movs	r1, r0
700025e6:	18a0      	adds	r0, r4, r2
700025e8:	f002 eab2 	blx	0x70004b50
700025ec:	8868      	ldrh	r0, [r5, #2]
700025ee:	490b      	ldr	r1, [pc, #44]	@ (0x7000261c)
700025f0:	81e0      	strh	r0, [r4, #14]
700025f2:	4809      	ldr	r0, [pc, #36]	@ (0x70002618)
700025f4:	6800      	ldr	r0, [r0, #0]
700025f6:	1844      	adds	r4, r0, r1
700025f8:	cc2e      	ldmia	r4!, {r1, r2, r3, r5}
700025fa:	4804      	ldr	r0, [pc, #16]	@ (0x7000260c)
700025fc:	3040      	adds	r0, #64	@ 0x40
700025fe:	c02e      	stmia	r0!, {r1, r2, r3, r5}
70002600:	20ff      	movs	r0, #255	@ 0xff
70002602:	3001      	adds	r0, #1
70002604:	f000 f99c 	bl	0x70002940
70002608:	2000      	movs	r0, #0
7000260a:	bd70      	pop	{r4, r5, r6, pc}
7000260c:	4040      	eors	r0, r0
7000260e:	7000      	strb	r0, [r0, #0]
70002610:	4c42      	ldr	r4, [pc, #264]	@ (0x7000271c)
70002612:	3156      	adds	r1, #86	@ 0x56
70002614:	2154      	movs	r1, #84	@ 0x54
70002616:	0001      	movs	r1, r0
70002618:	2038      	movs	r0, #56	@ 0x38
7000261a:	0001      	movs	r1, r0
7000261c:	08ac      	lsrs	r4, r5, #2
7000261e:	0000      	movs	r0, r0
70002620:	b510      	push	{r4, lr}
70002622:	f002 ec0e 	blx	0x70004e40
70002626:	f000 f8af 	bl	0x70002788
7000262a:	f000 f8ae 	bl	0x7000278a
7000262e:	f000 f952 	bl	0x700028d6
70002632:	f000 f96a 	bl	0x7000290a
70002636:	f000 f953 	bl	0x700028e0
7000263a:	bd10      	pop	{r4, pc}
7000263c:	2000      	movs	r0, #0
7000263e:	4770      	bx	lr
70002640:	b57f      	push	{r0, r1, r2, r3, r4, r5, r6, lr}
70002642:	4823      	ldr	r0, [pc, #140]	@ (0x700026d0)
70002644:	466e      	mov	r6, sp
70002646:	c81e      	ldmia	r0!, {r1, r2, r3, r4}
70002648:	c61e      	stmia	r6!, {r1, r2, r3, r4}
7000264a:	3e10      	subs	r6, #16
7000264c:	2500      	movs	r5, #0
7000264e:	f000 fb4b 	bl	0x70002ce8
70002652:	2800      	cmp	r0, #0
70002654:	d000      	beq.n	0x70002658
70002656:	2501      	movs	r5, #1
70002658:	2400      	movs	r4, #0
7000265a:	00e8      	lsls	r0, r5, #3
7000265c:	1986      	adds	r6, r0, r6
7000265e:	00a0      	lsls	r0, r4, #2
70002660:	5830      	ldr	r0, [r6, r0]
70002662:	0400      	lsls	r0, r0, #16
70002664:	0c00      	lsrs	r0, r0, #16
70002666:	f000 f943 	bl	0x700028f0
7000266a:	0005      	movs	r5, r0
7000266c:	1c40      	adds	r0, r0, #1
7000266e:	d010      	beq.n	0x70002692
70002670:	00a0      	lsls	r0, r4, #2
70002672:	5830      	ldr	r0, [r6, r0]
70002674:	1fc1      	subs	r1, r0, #7
70002676:	39ff      	subs	r1, #255	@ 0xff
70002678:	d103      	bne.n	0x70002682
7000267a:	2001      	movs	r0, #1
7000267c:	a115      	add	r1, pc, #84	@ (adr r1, 0x700026d4)
7000267e:	f002 fee7 	bl	0x70005450
70002682:	0028      	movs	r0, r5
70002684:	f000 faac 	bl	0x70002be0
70002688:	4c1d      	ldr	r4, [pc, #116]	@ (0x70002700)
7000268a:	2800      	cmp	r0, #0
7000268c:	d111      	bne.n	0x700026b2
7000268e:	6025      	str	r5, [r4, #0]
70002690:	e014      	b.n	0x700026bc
70002692:	1c64      	adds	r4, r4, #1
70002694:	2c02      	cmp	r4, #2
70002696:	d3e2      	bcc.n	0x7000265e
70002698:	2003      	movs	r0, #3
7000269a:	a11a      	add	r1, pc, #104	@ (adr r1, 0x70002704)
7000269c:	f002 fed8 	bl	0x70005450
700026a0:	4923      	ldr	r1, [pc, #140]	@ (0x70002730)
700026a2:	2001      	movs	r0, #1
700026a4:	7008      	strb	r0, [r1, #0]
700026a6:	4923      	ldr	r1, [pc, #140]	@ (0x70002734)
700026a8:	2005      	movs	r0, #5
700026aa:	6008      	str	r0, [r1, #0]
700026ac:	2000      	movs	r0, #0
700026ae:	b004      	add	sp, #16
700026b0:	bd70      	pop	{r4, r5, r6, pc}
700026b2:	002a      	movs	r2, r5
700026b4:	2003      	movs	r0, #3
700026b6:	a120      	add	r1, pc, #128	@ (adr r1, 0x70002738)
700026b8:	f002 feca 	bl	0x70005450
700026bc:	6820      	ldr	r0, [r4, #0]
700026be:	1c40      	adds	r0, r0, #1
700026c0:	d1f4      	bne.n	0x700026ac
700026c2:	2003      	movs	r0, #3
700026c4:	a123      	add	r1, pc, #140	@ (adr r1, 0x70002754)
700026c6:	f002 fec3 	bl	0x70005450
700026ca:	482b      	ldr	r0, [pc, #172]	@ (0x70002778)
700026cc:	e7ef      	b.n	0x700026ae
700026ce:	0000      	movs	r0, r0
700026d0:	83ac      	strh	r4, [r5, #28]
700026d2:	1000      	asrs	r0, r0, #32
700026d4:	614c      	str	r4, [r1, #20]
700026d6:	6e75      	ldr	r5, [r6, #100]	@ 0x64
700026d8:	6863      	ldr	r3, [r4, #4]
700026da:	6e69      	ldr	r1, [r5, #100]	@ 0x64
700026dc:	2067      	movs	r0, #103	@ 0x67
700026de:	6146      	str	r6, [r0, #20]
700026e0:	7463      	strb	r3, [r4, #17]
700026e2:	726f      	strb	r7, [r5, #9]
700026e4:	4279      	negs	r1, r7
700026e6:	6e69      	ldr	r1, [r5, #100]	@ 0x64
700026e8:	6920      	ldr	r0, [r4, #16]
700026ea:	206e      	movs	r0, #110	@ 0x6e
700026ec:	6f43      	ldr	r3, [r0, #116]	@ 0x74
700026ee:	626d      	str	r5, [r5, #36]	@ 0x24
700026f0:	6e69      	ldr	r1, [r5, #100]	@ 0x64
700026f2:	2065      	movs	r0, #101	@ 0x65
700026f4:	6f6d      	ldr	r5, [r5, #116]	@ 0x74
700026f6:	6564      	str	r4, [r4, #84]	@ 0x54
700026f8:	2e2e      	cmp	r6, #46	@ 0x2e
700026fa:	0d2e      	lsrs	r6, r5, #20
700026fc:	000a      	movs	r2, r1
700026fe:	0000      	movs	r0, r0
70002700:	2034      	movs	r0, #52	@ 0x34
70002702:	0001      	movs	r1, r0
70002704:	6f4e      	ldr	r6, [r1, #116]	@ 0x74
70002706:	4d20      	ldr	r5, [pc, #128]	@ (0x70002788)
70002708:	5541      	strb	r1, [r0, r5]
7000270a:	2049      	movs	r0, #73	@ 0x49
7000270c:	6962      	ldr	r2, [r4, #20]
7000270e:	616e      	str	r6, [r5, #20]
70002710:	7972      	ldrb	r2, [r6, #5]
70002712:	6920      	ldr	r0, [r4, #16]
70002714:	206e      	movs	r0, #110	@ 0x6e
70002716:	6c46      	ldr	r6, [r0, #68]	@ 0x44
70002718:	7361      	strb	r1, [r4, #13]
7000271a:	4c68      	ldr	r4, [pc, #416]	@ (0x700028bc)
7000271c:	7961      	ldrb	r1, [r4, #5]
7000271e:	756f      	strb	r7, [r5, #21]
70002720:	2074      	movs	r0, #116	@ 0x74
70002722:	726f      	strb	r7, [r5, #9]
70002724:	4620      	mov	r0, r4
70002726:	616c      	str	r4, [r5, #20]
70002728:	6873      	ldr	r3, [r6, #4]
7000272a:	0d0a      	lsrs	r2, r1, #20
7000272c:	0000      	movs	r0, r0
7000272e:	0000      	movs	r0, r0
70002730:	2155      	movs	r1, #85	@ 0x55
70002732:	0001      	movs	r1, r0
70002734:	215c      	movs	r1, #92	@ 0x5c
70002736:	0001      	movs	r1, r0
70002738:	6e49      	ldr	r1, [r1, #100]	@ 0x64
7000273a:	6176      	str	r6, [r6, #20]
7000273c:	696c      	ldr	r4, [r5, #20]
7000273e:	2064      	movs	r0, #100	@ 0x64
70002740:	414d      	adcs	r5, r1
70002742:	4955      	ldr	r1, [pc, #340]	@ (0x70002898)
70002744:	4720      	bx	r4
70002746:	4846      	ldr	r0, [pc, #280]	@ (0x70002860)
70002748:	202c      	movs	r0, #44	@ 0x2c
7000274a:	6461      	str	r1, [r4, #68]	@ 0x44
7000274c:	7264      	strb	r4, [r4, #9]
7000274e:	253d      	movs	r5, #61	@ 0x3d
70002750:	0a78      	lsrs	r0, r7, #9
70002752:	000d      	movs	r5, r1
70002754:	6146      	str	r6, [r0, #20]
70002756:	6c69      	ldr	r1, [r5, #68]	@ 0x44
70002758:	6465      	str	r5, [r4, #68]	@ 0x44
7000275a:	7420      	strb	r0, [r4, #16]
7000275c:	206f      	movs	r0, #111	@ 0x6f
7000275e:	6567      	str	r7, [r4, #84]	@ 0x54
70002760:	2074      	movs	r0, #116	@ 0x74
70002762:	414d      	adcs	r5, r1
70002764:	4955      	ldr	r1, [pc, #340]	@ (0x700028bc)
70002766:	7327      	strb	r7, [r4, #12]
70002768:	6620      	str	r0, [r4, #96]	@ 0x60
7000276a:	7269      	strb	r1, [r5, #9]
7000276c:	7473      	strb	r3, [r6, #17]
7000276e:	7020      	strb	r0, [r4, #0]
70002770:	7261      	strb	r1, [r4, #9]
70002772:	0a74      	lsrs	r4, r6, #9
70002774:	000d      	movs	r5, r1
70002776:	0000      	movs	r0, r0
70002778:	fc18 ffff 	ldc2	15, cr15, [r8], {255}	@ 0xff
7000277c:	4901      	ldr	r1, [pc, #4]	@ (0x70002784)
7000277e:	7008      	strb	r0, [r1, #0]
70002780:	4770      	bx	lr
70002782:	0000      	movs	r0, r0
70002784:	2000      	movs	r0, #0
70002786:	0001      	movs	r1, r0
70002788:	4770      	bx	lr
7000278a:	b510      	push	{r4, lr}
7000278c:	f000 f9e8 	bl	0x70002b60
70002790:	f002 fe68 	bl	0x70005464
70002794:	2800      	cmp	r0, #0
70002796:	d101      	bne.n	0x7000279c
70002798:	f000 f9f2 	bl	0x70002b80
7000279c:	bd10      	pop	{r4, pc}
7000279e:	0000      	movs	r0, r0
700027a0:	b5f1      	push	{r0, r4, r5, r6, r7, lr}
700027a2:	480e      	ldr	r0, [pc, #56]	@ (0x700027dc)
700027a4:	4e0c      	ldr	r6, [pc, #48]	@ (0x700027d8)
700027a6:	7801      	ldrb	r1, [r0, #0]
700027a8:	2900      	cmp	r1, #0
700027aa:	d010      	beq.n	0x700027ce
700027ac:	2100      	movs	r1, #0
700027ae:	7001      	strb	r1, [r0, #0]
700027b0:	f000 fbea 	bl	0x70002f88
700027b4:	f002 eb64 	blx	0x70004e80
700027b8:	4f09      	ldr	r7, [pc, #36]	@ (0x700027e0)
700027ba:	0005      	movs	r5, r0
700027bc:	2400      	movs	r4, #0
700027be:	f002 eb60 	blx	0x70004e80
700027c2:	1b40      	subs	r0, r0, r5
700027c4:	42b0      	cmp	r0, r6
700027c6:	d202      	bcs.n	0x700027ce
700027c8:	1c64      	adds	r4, r4, #1
700027ca:	42bc      	cmp	r4, r7
700027cc:	d3f7      	bcc.n	0x700027be
700027ce:	9800      	ldr	r0, [sp, #0]
700027d0:	f000 fba4 	bl	0x70002f1c
700027d4:	bdf8      	pop	{r3, r4, r5, r6, r7, pc}
700027d6:	0000      	movs	r0, r0
700027d8:	199a      	adds	r2, r3, r6
700027da:	0000      	movs	r0, r0
700027dc:	2090      	movs	r0, #144	@ 0x90
700027de:	0001      	movs	r1, r0
700027e0:	8d80      	ldrh	r0, [r0, #44]	@ 0x2c
700027e2:	005b      	lsls	r3, r3, #1
700027e4:	4904      	ldr	r1, [pc, #16]	@ (0x700027f8)
700027e6:	b510      	push	{r4, lr}
700027e8:	2003      	movs	r0, #3
700027ea:	6048      	str	r0, [r1, #4]
700027ec:	f003 f9a5 	bl	0x70005b3a
700027f0:	f003 fa19 	bl	0x70005c26
700027f4:	bd10      	pop	{r4, pc}
700027f6:	0000      	movs	r0, r0
700027f8:	0000      	movs	r0, r0
700027fa:	a053      	add	r0, pc, #332	@ (adr r0, 0x70002948)
700027fc:	b510      	push	{r4, lr}
700027fe:	4910      	ldr	r1, [pc, #64]	@ (0x70002840)
70002800:	07c4      	lsls	r4, r0, #31
70002802:	6d0a      	ldr	r2, [r1, #80]	@ 0x50
70002804:	2100      	movs	r1, #0
70002806:	07d3      	lsls	r3, r2, #31
70002808:	0fdb      	lsrs	r3, r3, #31
7000280a:	0fe4      	lsrs	r4, r4, #31
7000280c:	42a3      	cmp	r3, r4
7000280e:	d000      	beq.n	0x70002812
70002810:	2101      	movs	r1, #1
70002812:	0793      	lsls	r3, r2, #30
70002814:	d402      	bmi.n	0x7000281c
70002816:	0783      	lsls	r3, r0, #30
70002818:	d500      	bpl.n	0x7000281c
7000281a:	2101      	movs	r1, #1
7000281c:	0753      	lsls	r3, r2, #29
7000281e:	d402      	bmi.n	0x70002826
70002820:	0743      	lsls	r3, r0, #29
70002822:	d500      	bpl.n	0x70002826
70002824:	2101      	movs	r1, #1
70002826:	2301      	movs	r3, #1
70002828:	02db      	lsls	r3, r3, #11
7000282a:	401a      	ands	r2, r3
7000282c:	4018      	ands	r0, r3
7000282e:	4282      	cmp	r2, r0
70002830:	d000      	beq.n	0x70002834
70002832:	2101      	movs	r1, #1
70002834:	2001      	movs	r0, #1
70002836:	2900      	cmp	r1, #0
70002838:	d000      	beq.n	0x7000283c
7000283a:	2000      	movs	r0, #0
7000283c:	bd10      	pop	{r4, pc}
7000283e:	0000      	movs	r0, r0
70002840:	2800      	cmp	r0, #0
70002842:	1000      	asrs	r0, r0, #32
70002844:	b510      	push	{r4, lr}
70002846:	f000 fa57 	bl	0x70002cf8
7000284a:	2800      	cmp	r0, #0
7000284c:	d00d      	beq.n	0x7000286a
7000284e:	f000 fa3f 	bl	0x70002cd0
70002852:	2800      	cmp	r0, #0
70002854:	d109      	bne.n	0x7000286a
70002856:	2003      	movs	r0, #3
70002858:	a104      	add	r1, pc, #16	@ (adr r1, 0x7000286c)
7000285a:	f002 fdf9 	bl	0x70005450
7000285e:	f000 f9b7 	bl	0x70002bd0
70002862:	f000 fa5b 	bl	0x70002d1c
70002866:	f000 fb4d 	bl	0x70002f04
7000286a:	bd10      	pop	{r4, pc}
7000286c:	5242      	strh	r2, [r0, r1]
7000286e:	4d4f      	ldr	r5, [pc, #316]	@ (0x700029ac)
70002870:	7220      	strb	r0, [r4, #8]
70002872:	7165      	strb	r5, [r4, #5]
70002874:	6575      	str	r5, [r6, #84]	@ 0x54
70002876:	7473      	strb	r3, [r6, #17]
70002878:	6465      	str	r5, [r4, #68]	@ 0x44
7000287a:	6420      	str	r0, [r4, #64]	@ 0x40
7000287c:	696f      	ldr	r7, [r5, #20]
7000287e:	676e      	str	r6, [r5, #116]	@ 0x74
70002880:	4420      	add	r0, r4
70002882:	2c4c      	cmp	r4, #76	@ 0x4c
70002884:	6220      	str	r0, [r4, #32]
70002886:	7965      	ldrb	r5, [r4, #5]
70002888:	6e6f      	ldr	r7, [r5, #100]	@ 0x64
7000288a:	2064      	movs	r0, #100	@ 0x64
7000288c:	6163      	str	r3, [r4, #20]
7000288e:	6270      	str	r0, [r6, #36]	@ 0x24
70002890:	6c69      	ldr	r1, [r5, #68]	@ 0x44
70002892:	7469      	strb	r1, [r5, #17]
70002894:	0a79      	lsrs	r1, r7, #9
70002896:	000d      	movs	r5, r1
70002898:	4806      	ldr	r0, [pc, #24]	@ (0x700028b4)
7000289a:	4a07      	ldr	r2, [pc, #28]	@ (0x700028b8)
7000289c:	e002      	b.n	0x700028a4
7000289e:	7811      	ldrb	r1, [r2, #0]
700028a0:	0649      	lsls	r1, r1, #25
700028a2:	d405      	bmi.n	0x700028b0
700028a4:	0001      	movs	r1, r0
700028a6:	1e40      	subs	r0, r0, #1
700028a8:	0400      	lsls	r0, r0, #16
700028aa:	0c00      	lsrs	r0, r0, #16
700028ac:	2900      	cmp	r1, #0
700028ae:	d1f6      	bne.n	0x7000289e
700028b0:	4770      	bx	lr
700028b2:	0000      	movs	r0, r0
700028b4:	ffff 0000 	vaddl.u<illegal width 64>	q8, d15, d0
700028b8:	0014      	movs	r4, r2
700028ba:	a008      	add	r0, pc, #32	@ (adr r0, 0x700028dc)
700028bc:	b508      	push	{r3, lr}
700028be:	0013      	movs	r3, r2
700028c0:	2201      	movs	r2, #1
700028c2:	9200      	str	r2, [sp, #0]
700028c4:	001a      	movs	r2, r3
700028c6:	2380      	movs	r3, #128	@ 0x80
700028c8:	f000 fa46 	bl	0x70002d58
700028cc:	2101      	movs	r1, #1
700028ce:	0248      	lsls	r0, r1, #9
700028d0:	f003 f8b2 	bl	0x70005a38
700028d4:	bd08      	pop	{r3, pc}
700028d6:	b510      	push	{r4, lr}
700028d8:	f000 f908 	bl	0x70002aec
700028dc:	2000      	movs	r0, #0
700028de:	bd10      	pop	{r4, pc}
700028e0:	4801      	ldr	r0, [pc, #4]	@ (0x700028e8)
700028e2:	4902      	ldr	r1, [pc, #8]	@ (0x700028ec)
700028e4:	1840      	adds	r0, r0, r1
700028e6:	4770      	bx	lr
700028e8:	2800      	cmp	r0, #0
700028ea:	1000      	asrs	r0, r0, #32
700028ec:	a004      	add	r0, pc, #16	@ (adr r0, 0x70002900)
700028ee:	7000      	strb	r0, [r0, #0]
700028f0:	b508      	push	{r3, lr}
700028f2:	2200      	movs	r2, #0
700028f4:	4669      	mov	r1, sp
700028f6:	f000 f9ae 	bl	0x70002c56
700028fa:	0001      	movs	r1, r0
700028fc:	4801      	ldr	r0, [pc, #4]	@ (0x70002904)
700028fe:	d000      	beq.n	0x70002902
70002900:	9800      	ldr	r0, [sp, #0]
70002902:	bd08      	pop	{r3, pc}
70002904:	ffff ffff 			@ <UNDEFINED> instruction: 0xffffffff
70002908:	4770      	bx	lr
7000290a:	b510      	push	{r4, lr}
7000290c:	f000 f9d2 	bl	0x70002cb4
70002910:	bd10      	pop	{r4, pc}
70002912:	0000      	movs	r0, r0
70002914:	4801      	ldr	r0, [pc, #4]	@ (0x7000291c)
70002916:	6800      	ldr	r0, [r0, #0]
70002918:	4770      	bx	lr
7000291a:	0000      	movs	r0, r0
7000291c:	2034      	movs	r0, #52	@ 0x34
7000291e:	0001      	movs	r1, r0
70002920:	4800      	ldr	r0, [pc, #0]	@ (0x70002924)
70002922:	4770      	bx	lr
70002924:	2fd8      	cmp	r7, #216	@ 0xd8
70002926:	0001      	movs	r1, r0
70002928:	b510      	push	{r4, lr}
7000292a:	2920      	cmp	r1, #32
7000292c:	d804      	bhi.n	0x70002938
7000292e:	000a      	movs	r2, r1
70002930:	0001      	movs	r1, r0
70002932:	4802      	ldr	r0, [pc, #8]	@ (0x7000293c)
70002934:	f002 e90c 	blx	0x70004b50
70002938:	bd10      	pop	{r4, pc}
7000293a:	0000      	movs	r0, r0
7000293c:	2fd8      	cmp	r7, #216	@ 0xd8
7000293e:	0001      	movs	r1, r0
70002940:	b57f      	push	{r0, r1, r2, r3, r4, r5, r6, lr}
70002942:	4c0a      	ldr	r4, [pc, #40]	@ (0x7000296c)
70002944:	0005      	movs	r5, r0
70002946:	490a      	ldr	r1, [pc, #40]	@ (0x70002970)
70002948:	6820      	ldr	r0, [r4, #0]
7000294a:	4288      	cmp	r0, r1
7000294c:	d00a      	beq.n	0x70002964
7000294e:	2200      	movs	r2, #0
70002950:	9201      	str	r2, [sp, #4]
70002952:	9202      	str	r2, [sp, #8]
70002954:	9203      	str	r2, [sp, #12]
70002956:	9200      	str	r2, [sp, #0]
70002958:	4a06      	ldr	r2, [pc, #24]	@ (0x70002974)
7000295a:	4810      	ldr	r0, [pc, #64]	@ (0x7000299c)
7000295c:	2300      	movs	r3, #0
7000295e:	a106      	add	r1, pc, #24	@ (adr r1, 0x70002978)
70002960:	f003 f822 	bl	0x700059a8
70002964:	68a0      	ldr	r0, [r4, #8]
70002966:	4328      	orrs	r0, r5
70002968:	60a0      	str	r0, [r4, #8]
7000296a:	bd7f      	pop	{r0, r1, r2, r3, r4, r5, r6, pc}
7000296c:	4040      	eors	r0, r0
7000296e:	7000      	strb	r0, [r0, #0]
70002970:	4c42      	ldr	r4, [pc, #264]	@ (0x70002a7c)
70002972:	3156      	adds	r1, #86	@ 0x56
70002974:	0963      	lsrs	r3, r4, #5
70002976:	0000      	movs	r0, r0
70002978:	6168      	str	r0, [r5, #20]
7000297a:	5c6c      	ldrb	r4, [r5, r1]
7000297c:	7973      	ldrb	r3, [r6, #5]
7000297e:	7473      	strb	r3, [r6, #17]
70002980:	6d65      	ldr	r5, [r4, #84]	@ 0x54
70002982:	625c      	str	r4, [r3, #36]	@ 0x24
70002984:	6f6f      	ldr	r7, [r5, #116]	@ 0x74
70002986:	6c74      	ldr	r4, [r6, #68]	@ 0x44
70002988:	616f      	str	r7, [r5, #20]
7000298a:	6564      	str	r4, [r4, #84]	@ 0x54
7000298c:	5c72      	ldrb	r2, [r6, r1]
7000298e:	7273      	strb	r3, [r6, #9]
70002990:	5c63      	ldrb	r3, [r4, r1]
70002992:	6c62      	ldr	r2, [r4, #68]	@ 0x44
70002994:	4d5f      	ldr	r5, [pc, #380]	@ (0x70002b14)
70002996:	6961      	ldr	r1, [r4, #20]
70002998:	2e6e      	cmp	r6, #110	@ 0x6e
7000299a:	0063      	lsls	r3, r4, #1
7000299c:	8418      	strh	r0, [r3, #32]
7000299e:	1000      	asrs	r0, r0, #32
700029a0:	4770      	bx	lr
700029a2:	0000      	movs	r0, r0
700029a4:	4802      	ldr	r0, [pc, #8]	@ (0x700029b0)
700029a6:	8a01      	ldrh	r1, [r0, #16]
700029a8:	2201      	movs	r2, #1
700029aa:	4311      	orrs	r1, r2
700029ac:	8201      	strh	r1, [r0, #16]
700029ae:	4770      	bx	lr
700029b0:	0000      	movs	r0, r0
700029b2:	a001      	add	r0, pc, #4	@ (adr r0, 0x700029b8)
700029b4:	4801      	ldr	r0, [pc, #4]	@ (0x700029bc)
700029b6:	4902      	ldr	r1, [pc, #8]	@ (0x700029c0)
700029b8:	6088      	str	r0, [r1, #8]
700029ba:	4770      	bx	lr
700029bc:	1971      	adds	r1, r6, r5
700029be:	0000      	movs	r0, r0
700029c0:	0000      	movs	r0, r0
700029c2:	a003      	add	r0, pc, #12	@ (adr r0, 0x700029d0)
700029c4:	b508      	push	{r3, lr}
700029c6:	2000      	movs	r0, #0
700029c8:	9000      	str	r0, [sp, #0]
700029ca:	4809      	ldr	r0, [pc, #36]	@ (0x700029f0)
700029cc:	6800      	ldr	r0, [r0, #0]
700029ce:	1c41      	adds	r1, r0, #1
700029d0:	d007      	beq.n	0x700029e2
700029d2:	2101      	movs	r1, #1
700029d4:	0249      	lsls	r1, r1, #9
700029d6:	466a      	mov	r2, sp
700029d8:	f000 f934 	bl	0x70002c44
700029dc:	9800      	ldr	r0, [sp, #0]
700029de:	2800      	cmp	r0, #0
700029e0:	d103      	bne.n	0x700029ea
700029e2:	2001      	movs	r0, #1
700029e4:	a103      	add	r1, pc, #12	@ (adr r1, 0x700029f4)
700029e6:	f002 fd33 	bl	0x70005450
700029ea:	9800      	ldr	r0, [sp, #0]
700029ec:	bd08      	pop	{r3, pc}
700029ee:	0000      	movs	r0, r0
700029f0:	2034      	movs	r0, #52	@ 0x34
700029f2:	0001      	movs	r1, r0
700029f4:	6f4e      	ldr	r6, [r1, #116]	@ 0x74
700029f6:	4d20      	ldr	r5, [pc, #128]	@ (0x70002a78)
700029f8:	5541      	strb	r1, [r0, r5]
700029fa:	2049      	movs	r0, #73	@ 0x49
700029fc:	4e49      	ldr	r6, [pc, #292]	@ (0x70002b24)
700029fe:	4f46      	ldr	r7, [pc, #280]	@ (0x70002b18)
70002a00:	6620      	str	r0, [r4, #96]	@ 0x60
70002a02:	756f      	strb	r7, [r5, #21]
70002a04:	646e      	str	r6, [r5, #68]	@ 0x44
70002a06:	6920      	ldr	r0, [r4, #16]
70002a08:	206e      	movs	r0, #110	@ 0x6e
70002a0a:	414d      	adcs	r5, r1
70002a0c:	4955      	ldr	r1, [pc, #340]	@ (0x70002b64)
70002a0e:	6220      	str	r0, [r4, #32]
70002a10:	6e69      	ldr	r1, [r5, #100]	@ 0x64
70002a12:	0d0a      	lsrs	r2, r1, #20
70002a14:	0000      	movs	r0, r0
70002a16:	0000      	movs	r0, r0
70002a18:	b530      	push	{r4, r5, lr}
70002a1a:	0004      	movs	r4, r0
70002a1c:	6808      	ldr	r0, [r1, #0]
70002a1e:	2800      	cmp	r0, #0
70002a20:	d102      	bne.n	0x70002a28
70002a22:	0020      	movs	r0, r4
70002a24:	3024      	adds	r0, #36	@ 0x24
70002a26:	6008      	str	r0, [r1, #0]
70002a28:	6845      	ldr	r5, [r0, #4]
70002a2a:	1940      	adds	r0, r0, r5
70002a2c:	3008      	adds	r0, #8
70002a2e:	1b05      	subs	r5, r0, r4
70002a30:	6a24      	ldr	r4, [r4, #32]
70002a32:	3d24      	subs	r5, #36	@ 0x24
70002a34:	42a5      	cmp	r5, r4
70002a36:	d20a      	bcs.n	0x70002a4e
70002a38:	2a00      	cmp	r2, #0
70002a3a:	d001      	beq.n	0x70002a40
70002a3c:	6804      	ldr	r4, [r0, #0]
70002a3e:	6014      	str	r4, [r2, #0]
70002a40:	2b00      	cmp	r3, #0
70002a42:	d001      	beq.n	0x70002a48
70002a44:	6842      	ldr	r2, [r0, #4]
70002a46:	601a      	str	r2, [r3, #0]
70002a48:	6008      	str	r0, [r1, #0]
70002a4a:	3008      	adds	r0, #8
70002a4c:	bd30      	pop	{r4, r5, pc}
70002a4e:	2000      	movs	r0, #0
70002a50:	bd30      	pop	{r4, r5, pc}
70002a52:	0000      	movs	r0, r0
70002a54:	b57f      	push	{r0, r1, r2, r3, r4, r5, r6, lr}
70002a56:	000e      	movs	r6, r1
70002a58:	a507      	add	r5, pc, #28	@ (adr r5, 0x70002a78)
70002a5a:	cd2e      	ldmia	r5, {r1, r2, r3, r5}
70002a5c:	466c      	mov	r4, sp
70002a5e:	c42e      	stmia	r4!, {r1, r2, r3, r5}
70002a60:	2e0e      	cmp	r6, #14
70002a62:	d306      	bcc.n	0x70002a72
70002a64:	220e      	movs	r2, #14
70002a66:	4669      	mov	r1, sp
70002a68:	f002 e80a 	blx	0x70004a80
70002a6c:	200e      	movs	r0, #14
70002a6e:	b004      	add	sp, #16
70002a70:	bd70      	pop	{r4, r5, r6, pc}
70002a72:	2000      	movs	r0, #0
70002a74:	e7fb      	b.n	0x70002a6e
70002a76:	0000      	movs	r0, r0
70002a78:	4c42      	ldr	r4, [pc, #264]	@ (0x70002b84)
70002a7a:	5620      	ldrsb	r0, [r4, r0]
70002a7c:	7265      	strb	r5, [r4, #9]
70002a7e:	5320      	strh	r0, [r4, r4]
70002a80:	7274      	strb	r4, [r6, #9]
70002a82:	3020      	adds	r0, #32
70002a84:	312e      	adds	r1, #46	@ 0x2e
70002a86:	0000      	movs	r0, r0
70002a88:	b5f0      	push	{r4, r5, r6, r7, lr}
70002a8a:	4d26      	ldr	r5, [pc, #152]	@ (0x70002b24)
70002a8c:	264a      	movs	r6, #74	@ 0x4a
70002a8e:	2400      	movs	r4, #0
70002a90:	2797      	movs	r7, #151	@ 0x97
70002a92:	00bf      	lsls	r7, r7, #2
70002a94:	b085      	sub	sp, #20
70002a96:	7828      	ldrb	r0, [r5, #0]
70002a98:	42a0      	cmp	r0, r4
70002a9a:	d00a      	beq.n	0x70002ab2
70002a9c:	2200      	movs	r2, #0
70002a9e:	9201      	str	r2, [sp, #4]
70002aa0:	9202      	str	r2, [sp, #8]
70002aa2:	9203      	str	r2, [sp, #12]
70002aa4:	9200      	str	r2, [sp, #0]
70002aa6:	003a      	movs	r2, r7
70002aa8:	2300      	movs	r3, #0
70002aaa:	a11f      	add	r1, pc, #124	@ (adr r1, 0x70002b28)
70002aac:	a027      	add	r0, pc, #156	@ (adr r0, 0x70002b4c)
70002aae:	f002 ff7b 	bl	0x700059a8
70002ab2:	1dad      	adds	r5, r5, #6
70002ab4:	1c64      	adds	r4, r4, #1
70002ab6:	42b4      	cmp	r4, r6
70002ab8:	d3ed      	bcc.n	0x70002a96
70002aba:	b005      	add	sp, #20
70002abc:	bdf0      	pop	{r4, r5, r6, r7, pc}
70002abe:	b530      	push	{r4, r5, lr}
70002ac0:	4823      	ldr	r0, [pc, #140]	@ (0x70002b50)
70002ac2:	4c18      	ldr	r4, [pc, #96]	@ (0x70002b24)
70002ac4:	88c2      	ldrh	r2, [r0, #6]
70002ac6:	2100      	movs	r1, #0
70002ac8:	3c9c      	subs	r4, #156	@ 0x9c
70002aca:	0005      	movs	r5, r0
70002acc:	3508      	adds	r5, #8
70002ace:	2000      	movs	r0, #0
70002ad0:	e006      	b.n	0x70002ae0
70002ad2:	230c      	movs	r3, #12
70002ad4:	4343      	muls	r3, r0
70002ad6:	58e3      	ldr	r3, [r4, r3]
70002ad8:	428b      	cmp	r3, r1
70002ada:	d100      	bne.n	0x70002ade
70002adc:	5468      	strb	r0, [r5, r1]
70002ade:	1c40      	adds	r0, r0, #1
70002ae0:	4290      	cmp	r0, r2
70002ae2:	d3f6      	bcc.n	0x70002ad2
70002ae4:	1c49      	adds	r1, r1, #1
70002ae6:	2930      	cmp	r1, #48	@ 0x30
70002ae8:	d3f1      	bcc.n	0x70002ace
70002aea:	bd30      	pop	{r4, r5, pc}
70002aec:	4819      	ldr	r0, [pc, #100]	@ (0x70002b54)
70002aee:	491a      	ldr	r1, [pc, #104]	@ (0x70002b58)
70002af0:	b510      	push	{r4, lr}
70002af2:	6008      	str	r0, [r1, #0]
70002af4:	4816      	ldr	r0, [pc, #88]	@ (0x70002b50)
70002af6:	2118      	movs	r1, #24
70002af8:	8081      	strh	r1, [r0, #4]
70002afa:	210d      	movs	r1, #13
70002afc:	80c1      	strh	r1, [r0, #6]
70002afe:	f7ff ffde 	bl	0x70002abe
70002b02:	f7ff ffc1 	bl	0x70002a88
70002b06:	f002 fcad 	bl	0x70005464
70002b0a:	2800      	cmp	r0, #0
70002b0c:	d101      	bne.n	0x70002b12
70002b0e:	f000 ff1d 	bl	0x7000394c
70002b12:	4912      	ldr	r1, [pc, #72]	@ (0x70002b5c)
70002b14:	8a08      	ldrh	r0, [r1, #16]
70002b16:	2210      	movs	r2, #16
70002b18:	4310      	orrs	r0, r2
70002b1a:	8208      	strh	r0, [r1, #16]
70002b1c:	f000 ffb2 	bl	0x70003a84
70002b20:	bd10      	pop	{r4, pc}
70002b22:	0000      	movs	r0, r0
70002b24:	8580      	strh	r0, [r0, #44]	@ 0x2c
70002b26:	1000      	asrs	r0, r0, #32
70002b28:	6168      	str	r0, [r5, #20]
70002b2a:	5c6c      	ldrb	r4, [r5, r1]
70002b2c:	6570      	str	r0, [r6, #84]	@ 0x54
70002b2e:	6972      	ldr	r2, [r6, #20]
70002b30:	6870      	ldr	r0, [r6, #4]
70002b32:	7265      	strb	r5, [r4, #9]
70002b34:	6c61      	ldr	r1, [r4, #68]	@ 0x44
70002b36:	735c      	strb	r4, [r3, #13]
70002b38:	6372      	str	r2, [r6, #52]	@ 0x34
70002b3a:	645c      	str	r4, [r3, #68]	@ 0x44
70002b3c:	6c63      	ldr	r3, [r4, #68]	@ 0x44
70002b3e:	705f      	strb	r7, [r3, #1]
70002b40:	756d      	strb	r5, [r5, #21]
70002b42:	3236      	adds	r2, #54	@ 0x36
70002b44:	3136      	adds	r1, #54	@ 0x36
70002b46:	632e      	str	r6, [r5, #48]	@ 0x30
70002b48:	0000      	movs	r0, r0
70002b4a:	0000      	movs	r0, r0
70002b4c:	0030      	movs	r0, r6
70002b4e:	0000      	movs	r0, r0
70002b50:	2ed8      	cmp	r6, #216	@ 0xd8
70002b52:	0001      	movs	r1, r0
70002b54:	3d11      	subs	r5, #17
70002b56:	1000      	asrs	r0, r0, #32
70002b58:	2ed4      	cmp	r6, #212	@ 0xd4
70002b5a:	0001      	movs	r1, r0
70002b5c:	0000      	movs	r0, r0
70002b5e:	a073      	add	r0, pc, #460	@ (adr r0, 0x70002d2c)
70002b60:	b51c      	push	{r2, r3, r4, lr}
70002b62:	2001      	movs	r0, #1
70002b64:	9001      	str	r0, [sp, #4]
70002b66:	4805      	ldr	r0, [pc, #20]	@ (0x70002b7c)
70002b68:	4669      	mov	r1, sp
70002b6a:	9000      	str	r0, [sp, #0]
70002b6c:	2006      	movs	r0, #6
70002b6e:	f002 fc81 	bl	0x70005474
70002b72:	2007      	movs	r0, #7
70002b74:	a901      	add	r1, sp, #4
70002b76:	f002 fc7d 	bl	0x70005474
70002b7a:	bd1c      	pop	{r2, r3, r4, pc}
70002b7c:	b320      	cbz	r0, 0x70002bc8
70002b7e:	0081      	lsls	r1, r0, #2
70002b80:	b51f      	push	{r0, r1, r2, r3, r4, lr}
70002b82:	2000      	movs	r0, #0
70002b84:	9003      	str	r0, [sp, #12]
70002b86:	9002      	str	r0, [sp, #8]
70002b88:	2001      	movs	r0, #1
70002b8a:	9001      	str	r0, [sp, #4]
70002b8c:	480f      	ldr	r0, [pc, #60]	@ (0x70002bcc)
70002b8e:	a902      	add	r1, sp, #8
70002b90:	9000      	str	r0, [sp, #0]
70002b92:	2003      	movs	r0, #3
70002b94:	f002 fc6e 	bl	0x70005474
70002b98:	2000      	movs	r0, #0
70002b9a:	a903      	add	r1, sp, #12
70002b9c:	f002 fc6a 	bl	0x70005474
70002ba0:	9802      	ldr	r0, [sp, #8]
70002ba2:	2800      	cmp	r0, #0
70002ba4:	d111      	bne.n	0x70002bca
70002ba6:	9803      	ldr	r0, [sp, #12]
70002ba8:	2801      	cmp	r0, #1
70002baa:	d10e      	bne.n	0x70002bca
70002bac:	4669      	mov	r1, sp
70002bae:	f002 fc61 	bl	0x70005474
70002bb2:	2002      	movs	r0, #2
70002bb4:	4669      	mov	r1, sp
70002bb6:	f002 fc5d 	bl	0x70005474
70002bba:	2004      	movs	r0, #4
70002bbc:	a901      	add	r1, sp, #4
70002bbe:	f002 fc59 	bl	0x70005474
70002bc2:	2005      	movs	r0, #5
70002bc4:	a901      	add	r1, sp, #4
70002bc6:	f002 fc55 	bl	0x70005474
70002bca:	bd1f      	pop	{r0, r1, r2, r3, r4, pc}
70002bcc:	c350      	stmia	r3!, {r4, r6}
70002bce:	0000      	movs	r0, r0
70002bd0:	4801      	ldr	r0, [pc, #4]	@ (0x70002bd8)
70002bd2:	4902      	ldr	r1, [pc, #8]	@ (0x70002bdc)
70002bd4:	6088      	str	r0, [r1, #8]
70002bd6:	4770      	bx	lr
70002bd8:	0006      	movs	r6, r0
70002bda:	4e00      	ldr	r6, [pc, #0]	@ (0x70002bdc)
70002bdc:	0800      	lsrs	r0, r0, #32
70002bde:	a003      	add	r0, pc, #12	@ (adr r0, 0x70002bec)
70002be0:	b510      	push	{r4, lr}
70002be2:	0004      	movs	r4, r0
70002be4:	f000 fb0c 	bl	0x70003200
70002be8:	28ff      	cmp	r0, #255	@ 0xff
70002bea:	d206      	bcs.n	0x70002bfa
70002bec:	6a60      	ldr	r0, [r4, #36]	@ 0x24
70002bee:	1c41      	adds	r1, r0, #1
70002bf0:	d004      	beq.n	0x70002bfc
70002bf2:	6a21      	ldr	r1, [r4, #32]
70002bf4:	4288      	cmp	r0, r1
70002bf6:	d201      	bcs.n	0x70002bfc
70002bf8:	4811      	ldr	r0, [pc, #68]	@ (0x70002c40)
70002bfa:	bd10      	pop	{r4, pc}
70002bfc:	7ee2      	ldrb	r2, [r4, #27]
70002bfe:	4810      	ldr	r0, [pc, #64]	@ (0x70002c40)
70002c00:	6ae1      	ldr	r1, [r4, #44]	@ 0x2c
70002c02:	1e40      	subs	r0, r0, #1
70002c04:	2a00      	cmp	r2, #0
70002c06:	d102      	bne.n	0x70002c0e
70002c08:	2900      	cmp	r1, #0
70002c0a:	d1f6      	bne.n	0x70002bfa
70002c0c:	e008      	b.n	0x70002c20
70002c0e:	2900      	cmp	r1, #0
70002c10:	d0f3      	beq.n	0x70002bfa
70002c12:	6a22      	ldr	r2, [r4, #32]
70002c14:	428a      	cmp	r2, r1
70002c16:	d9f0      	bls.n	0x70002bfa
70002c18:	6aa3      	ldr	r3, [r4, #40]	@ 0x28
70002c1a:	1a52      	subs	r2, r2, r1
70002c1c:	4293      	cmp	r3, r2
70002c1e:	d8ec      	bhi.n	0x70002bfa
70002c20:	6b20      	ldr	r0, [r4, #48]	@ 0x30
70002c22:	2800      	cmp	r0, #0
70002c24:	d009      	beq.n	0x70002c3a
70002c26:	6aa2      	ldr	r2, [r4, #40]	@ 0x28
70002c28:	4282      	cmp	r2, r0
70002c2a:	d803      	bhi.n	0x70002c34
70002c2c:	6a22      	ldr	r2, [r4, #32]
70002c2e:	1a51      	subs	r1, r2, r1
70002c30:	4281      	cmp	r1, r0
70002c32:	d802      	bhi.n	0x70002c3a
70002c34:	4802      	ldr	r0, [pc, #8]	@ (0x70002c40)
70002c36:	1c40      	adds	r0, r0, #1
70002c38:	bd10      	pop	{r4, pc}
70002c3a:	2000      	movs	r0, #0
70002c3c:	bd10      	pop	{r4, pc}
70002c3e:	0000      	movs	r0, r0
70002c40:	8009      	strh	r1, [r1, #0]
70002c42:	0000      	movs	r0, r0
70002c44:	b508      	push	{r3, lr}
70002c46:	0013      	movs	r3, r2
70002c48:	2200      	movs	r2, #0
70002c4a:	9200      	str	r2, [sp, #0]
70002c4c:	000a      	movs	r2, r1
70002c4e:	2100      	movs	r1, #0
70002c50:	f000 fb0a 	bl	0x70003268
70002c54:	bd08      	pop	{r3, pc}
70002c56:	b5f7      	push	{r0, r1, r2, r4, r5, r6, r7, lr}
70002c58:	0005      	movs	r5, r0
70002c5a:	000e      	movs	r6, r1
70002c5c:	2700      	movs	r7, #0
70002c5e:	1e78      	subs	r0, r7, #1
70002c60:	1fe9      	subs	r1, r5, #7
70002c62:	39f9      	subs	r1, #249	@ 0xf9
70002c64:	d102      	bne.n	0x70002c6c
70002c66:	f000 fc4f 	bl	0x70003508
70002c6a:	e004      	b.n	0x70002c76
70002c6c:	1fe9      	subs	r1, r5, #7
70002c6e:	39ff      	subs	r1, #255	@ 0xff
70002c70:	d101      	bne.n	0x70002c76
70002c72:	f000 fc45 	bl	0x70003500
70002c76:	1c41      	adds	r1, r0, #1
70002c78:	d01a      	beq.n	0x70002cb0
70002c7a:	f000 f849 	bl	0x70002d10
70002c7e:	0004      	movs	r4, r0
70002c80:	f7ff ffae 	bl	0x70002be0
70002c84:	2800      	cmp	r0, #0
70002c86:	d113      	bne.n	0x70002cb0
70002c88:	6a60      	ldr	r0, [r4, #36]	@ 0x24
70002c8a:	1c41      	adds	r1, r0, #1
70002c8c:	d002      	beq.n	0x70002c94
70002c8e:	1e61      	subs	r1, r4, #1
70002c90:	1840      	adds	r0, r0, r1
70002c92:	e002      	b.n	0x70002c9a
70002c94:	6a21      	ldr	r1, [r4, #32]
70002c96:	1e60      	subs	r0, r4, #1
70002c98:	1808      	adds	r0, r1, r0
70002c9a:	8b21      	ldrh	r1, [r4, #24]
70002c9c:	42a9      	cmp	r1, r5
70002c9e:	d107      	bne.n	0x70002cb0
70002ca0:	2e00      	cmp	r6, #0
70002ca2:	d000      	beq.n	0x70002ca6
70002ca4:	6034      	str	r4, [r6, #0]
70002ca6:	9902      	ldr	r1, [sp, #8]
70002ca8:	2900      	cmp	r1, #0
70002caa:	d000      	beq.n	0x70002cae
70002cac:	6008      	str	r0, [r1, #0]
70002cae:	2701      	movs	r7, #1
70002cb0:	0038      	movs	r0, r7
70002cb2:	bdfe      	pop	{r1, r2, r3, r4, r5, r6, r7, pc}
70002cb4:	4804      	ldr	r0, [pc, #16]	@ (0x70002cc8)
70002cb6:	4905      	ldr	r1, [pc, #20]	@ (0x70002ccc)
70002cb8:	b510      	push	{r4, lr}
70002cba:	6008      	str	r0, [r1, #0]
70002cbc:	6801      	ldr	r1, [r0, #0]
70002cbe:	2000      	movs	r0, #0
70002cc0:	4788      	blx	r1
70002cc2:	2000      	movs	r0, #0
70002cc4:	bd10      	pop	{r4, pc}
70002cc6:	0000      	movs	r0, r0
70002cc8:	2004      	movs	r0, #4
70002cca:	0001      	movs	r1, r0
70002ccc:	2150      	movs	r1, #80	@ 0x50
70002cce:	0001      	movs	r1, r0
70002cd0:	b500      	push	{lr}
70002cd2:	f000 f809 	bl	0x70002ce8
70002cd6:	2800      	cmp	r0, #0
70002cd8:	d103      	bne.n	0x70002ce2
70002cda:	f000 fb0b 	bl	0x700032f4
70002cde:	2800      	cmp	r0, #0
70002ce0:	d000      	beq.n	0x70002ce4
70002ce2:	2001      	movs	r0, #1
70002ce4:	bd00      	pop	{pc}
70002ce6:	0000      	movs	r0, r0
70002ce8:	4802      	ldr	r0, [pc, #8]	@ (0x70002cf4)
70002cea:	8a00      	ldrh	r0, [r0, #16]
70002cec:	07c0      	lsls	r0, r0, #31
70002cee:	0fc0      	lsrs	r0, r0, #31
70002cf0:	4770      	bx	lr
70002cf2:	0000      	movs	r0, r0
70002cf4:	0000      	movs	r0, r0
70002cf6:	a001      	add	r0, pc, #4	@ (adr r0, 0x70002cfc)
70002cf8:	4804      	ldr	r0, [pc, #16]	@ (0x70002d0c)
70002cfa:	2111      	movs	r1, #17
70002cfc:	6800      	ldr	r0, [r0, #0]
70002cfe:	01c9      	lsls	r1, r1, #7
70002d00:	1840      	adds	r0, r0, r1
70002d02:	6a80      	ldr	r0, [r0, #40]	@ 0x28
70002d04:	0780      	lsls	r0, r0, #30
70002d06:	0fc0      	lsrs	r0, r0, #31
70002d08:	4770      	bx	lr
70002d0a:	0000      	movs	r0, r0
70002d0c:	2038      	movs	r0, #56	@ 0x38
70002d0e:	0001      	movs	r1, r0
70002d10:	b510      	push	{r4, lr}
70002d12:	0004      	movs	r4, r0
70002d14:	f001 fcaa 	bl	0x7000466c
70002d18:	4320      	orrs	r0, r4
70002d1a:	bd10      	pop	{r4, pc}
70002d1c:	b51c      	push	{r2, r3, r4, lr}
70002d1e:	480c      	ldr	r0, [pc, #48]	@ (0x70002d50)
70002d20:	2100      	movs	r1, #0
70002d22:	f003 ffd7 	bl	0x70006cd4
70002d26:	490b      	ldr	r1, [pc, #44]	@ (0x70002d54)
70002d28:	0004      	movs	r4, r0
70002d2a:	2200      	movs	r2, #0
70002d2c:	f000 f93a 	bl	0x70002fa4
70002d30:	2001      	movs	r0, #1
70002d32:	466b      	mov	r3, sp
70002d34:	7018      	strb	r0, [r3, #0]
70002d36:	4907      	ldr	r1, [pc, #28]	@ (0x70002d54)
70002d38:	2080      	movs	r0, #128	@ 0x80
70002d3a:	8058      	strh	r0, [r3, #2]
70002d3c:	390b      	subs	r1, #11
70002d3e:	0020      	movs	r0, r4
70002d40:	466a      	mov	r2, sp
70002d42:	f000 f92f 	bl	0x70002fa4
70002d46:	0020      	movs	r0, r4
70002d48:	f003 ff7a 	bl	0x70006c40
70002d4c:	bd1c      	pop	{r2, r3, r4, pc}
70002d4e:	0000      	movs	r0, r0
70002d50:	0a01      	lsrs	r1, r0, #8
70002d52:	0000      	movs	r0, r0
70002d54:	0829      	lsrs	r1, r5, #32
70002d56:	0000      	movs	r0, r0
70002d58:	b5f0      	push	{r4, r5, r6, r7, lr}
70002d5a:	0004      	movs	r4, r0
70002d5c:	b089      	sub	sp, #36	@ 0x24
70002d5e:	000e      	movs	r6, r1
70002d60:	0018      	movs	r0, r3
70002d62:	990e      	ldr	r1, [sp, #56]	@ 0x38
70002d64:	466b      	mov	r3, sp
70002d66:	7798      	strb	r0, [r3, #30]
70002d68:	0017      	movs	r7, r2
70002d6a:	2001      	movs	r0, #1
70002d6c:	2901      	cmp	r1, #1
70002d6e:	d101      	bne.n	0x70002d74
70002d70:	77d8      	strb	r0, [r3, #31]
70002d72:	e002      	b.n	0x70002d7a
70002d74:	2100      	movs	r1, #0
70002d76:	466b      	mov	r3, sp
70002d78:	77d9      	strb	r1, [r3, #31]
70002d7a:	ab08      	add	r3, sp, #32
70002d7c:	7018      	strb	r0, [r3, #0]
70002d7e:	0520      	lsls	r0, r4, #20
70002d80:	d00a      	beq.n	0x70002d98
70002d82:	2200      	movs	r2, #0
70002d84:	9201      	str	r2, [sp, #4]
70002d86:	9202      	str	r2, [sp, #8]
70002d88:	9203      	str	r2, [sp, #12]
70002d8a:	9200      	str	r2, [sp, #0]
70002d8c:	4a28      	ldr	r2, [pc, #160]	@ (0x70002e30)
70002d8e:	2300      	movs	r3, #0
70002d90:	a128      	add	r1, pc, #160	@ (adr r1, 0x70002e34)
70002d92:	a030      	add	r0, pc, #192	@ (adr r0, 0x70002e54)
70002d94:	f002 fe08 	bl	0x700059a8
70002d98:	19e5      	adds	r5, r4, r7
70002d9a:	42b5      	cmp	r5, r6
70002d9c:	d90b      	bls.n	0x70002db6
70002d9e:	2200      	movs	r2, #0
70002da0:	9201      	str	r2, [sp, #4]
70002da2:	9202      	str	r2, [sp, #8]
70002da4:	9203      	str	r2, [sp, #12]
70002da6:	9200      	str	r2, [sp, #0]
70002da8:	4a21      	ldr	r2, [pc, #132]	@ (0x70002e30)
70002daa:	2300      	movs	r3, #0
70002dac:	1cd2      	adds	r2, r2, #3
70002dae:	a121      	add	r1, pc, #132	@ (adr r1, 0x70002e34)
70002db0:	a034      	add	r0, pc, #208	@ (adr r0, 0x70002e84)
70002db2:	f002 fdf9 	bl	0x700059a8
70002db6:	0520      	lsls	r0, r4, #20
70002db8:	d00b      	beq.n	0x70002dd2
70002dba:	2200      	movs	r2, #0
70002dbc:	9201      	str	r2, [sp, #4]
70002dbe:	9202      	str	r2, [sp, #8]
70002dc0:	9203      	str	r2, [sp, #12]
70002dc2:	9200      	str	r2, [sp, #0]
70002dc4:	4a1a      	ldr	r2, [pc, #104]	@ (0x70002e30)
70002dc6:	2300      	movs	r3, #0
70002dc8:	1d92      	adds	r2, r2, #6
70002dca:	a11a      	add	r1, pc, #104	@ (adr r1, 0x70002e34)
70002dcc:	a036      	add	r0, pc, #216	@ (adr r0, 0x70002ea8)
70002dce:	f002 fdeb 	bl	0x700059a8
70002dd2:	4840      	ldr	r0, [pc, #256]	@ (0x70002ed4)
70002dd4:	9405      	str	r4, [sp, #20]
70002dd6:	1828      	adds	r0, r5, r0
70002dd8:	0b04      	lsrs	r4, r0, #12
70002dda:	0324      	lsls	r4, r4, #12
70002ddc:	42b4      	cmp	r4, r6
70002dde:	9706      	str	r7, [sp, #24]
70002de0:	d90b      	bls.n	0x70002dfa
70002de2:	2200      	movs	r2, #0
70002de4:	9201      	str	r2, [sp, #4]
70002de6:	9202      	str	r2, [sp, #8]
70002de8:	9203      	str	r2, [sp, #12]
70002dea:	9200      	str	r2, [sp, #0]
70002dec:	4a10      	ldr	r2, [pc, #64]	@ (0x70002e30)
70002dee:	2300      	movs	r3, #0
70002df0:	3216      	adds	r2, #22
70002df2:	a110      	add	r1, pc, #64	@ (adr r1, 0x70002e34)
70002df4:	a038      	add	r0, pc, #224	@ (adr r0, 0x70002ed8)
70002df6:	f002 fdd7 	bl	0x700059a8
70002dfa:	9805      	ldr	r0, [sp, #20]
70002dfc:	1a20      	subs	r0, r4, r0
70002dfe:	9006      	str	r0, [sp, #24]
70002e00:	a807      	add	r0, sp, #28
70002e02:	f000 fa7f 	bl	0x70003304
70002e06:	2801      	cmp	r0, #1
70002e08:	d00b      	beq.n	0x70002e22
70002e0a:	2200      	movs	r2, #0
70002e0c:	9201      	str	r2, [sp, #4]
70002e0e:	9202      	str	r2, [sp, #8]
70002e10:	9203      	str	r2, [sp, #12]
70002e12:	9200      	str	r2, [sp, #0]
70002e14:	4a06      	ldr	r2, [pc, #24]	@ (0x70002e30)
70002e16:	2300      	movs	r3, #0
70002e18:	321d      	adds	r2, #29
70002e1a:	a106      	add	r1, pc, #24	@ (adr r1, 0x70002e34)
70002e1c:	a034      	add	r0, pc, #208	@ (adr r0, 0x70002ef0)
70002e1e:	f002 fdc3 	bl	0x700059a8
70002e22:	a805      	add	r0, sp, #20
70002e24:	f002 fe9e 	bl	0x70005b64
70002e28:	0020      	movs	r0, r4
70002e2a:	b009      	add	sp, #36	@ 0x24
70002e2c:	bdf0      	pop	{r4, r5, r6, r7, pc}
70002e2e:	0000      	movs	r0, r0
70002e30:	0a52      	lsrs	r2, r2, #9
70002e32:	0000      	movs	r0, r0
70002e34:	6168      	str	r0, [r5, #20]
70002e36:	5c6c      	ldrb	r4, [r5, r1]
70002e38:	7973      	ldrb	r3, [r6, #5]
70002e3a:	7473      	strb	r3, [r6, #17]
70002e3c:	6d65      	ldr	r5, [r4, #84]	@ 0x54
70002e3e:	635c      	str	r4, [r3, #52]	@ 0x34
70002e40:	6361      	str	r1, [r4, #52]	@ 0x34
70002e42:	6568      	str	r0, [r5, #84]	@ 0x54
70002e44:	735c      	strb	r4, [r3, #13]
70002e46:	6372      	str	r2, [r6, #52]	@ 0x34
70002e48:	635c      	str	r4, [r3, #52]	@ 0x34
70002e4a:	6361      	str	r1, [r4, #52]	@ 0x34
70002e4c:	6568      	str	r0, [r5, #84]	@ 0x54
70002e4e:	632e      	str	r6, [r5, #48]	@ 0x30
70002e50:	0000      	movs	r0, r0
70002e52:	0000      	movs	r0, r0
70002e54:	7328      	strb	r0, [r5, #12]
70002e56:	6174      	str	r4, [r6, #20]
70002e58:	7472      	strb	r2, [r6, #17]
70002e5a:	615f      	str	r7, [r3, #20]
70002e5c:	6464      	str	r4, [r4, #68]	@ 0x44
70002e5e:	2072      	movs	r0, #114	@ 0x72
70002e60:	2026      	movs	r0, #38	@ 0x26
70002e62:	4d28      	ldr	r5, [pc, #160]	@ (0x70002f04)
70002e64:	4e49      	ldr	r6, [pc, #292]	@ (0x70002f8c)
70002e66:	4d5f      	ldr	r5, [pc, #380]	@ (0x70002fe4)
70002e68:	5550      	strb	r0, [r2, r5]
70002e6a:	435f      	muls	r7, r3
70002e6c:	4148      	adcs	r0, r1
70002e6e:	4e4e      	ldr	r6, [pc, #312]	@ (0x70002fa8)
70002e70:	4c45      	ldr	r4, [pc, #276]	@ (0x70002f88)
70002e72:	4c5f      	ldr	r4, [pc, #380]	@ (0x70002ff0)
70002e74:	4e45      	ldr	r6, [pc, #276]	@ (0x70002f8c)
70002e76:	312d      	adds	r1, #45	@ 0x2d
70002e78:	2929      	cmp	r1, #41	@ 0x29
70002e7a:	3d20      	subs	r5, #32
70002e7c:	203d      	movs	r0, #61	@ 0x3d
70002e7e:	7830      	ldrb	r0, [r6, #0]
70002e80:	0030      	movs	r0, r6
70002e82:	0000      	movs	r0, r0
70002e84:	7473      	strb	r3, [r6, #17]
70002e86:	7261      	strb	r1, [r4, #9]
70002e88:	5f74      	ldrsh	r4, [r6, r5]
70002e8a:	6461      	str	r1, [r4, #68]	@ 0x44
70002e8c:	7264      	strb	r4, [r4, #9]
70002e8e:	2b20      	cmp	r3, #32
70002e90:	7420      	strb	r0, [r4, #16]
70002e92:	746f      	strb	r7, [r5, #17]
70002e94:	6c61      	ldr	r1, [r4, #68]	@ 0x44
70002e96:	735f      	strb	r7, [r3, #13]
70002e98:	7a69      	ldrb	r1, [r5, #9]
70002e9a:	2065      	movs	r0, #101	@ 0x65
70002e9c:	3d3c      	subs	r5, #60	@ 0x3c
70002e9e:	6520      	str	r0, [r4, #80]	@ 0x50
70002ea0:	646e      	str	r6, [r5, #68]	@ 0x44
70002ea2:	615f      	str	r7, [r3, #20]
70002ea4:	6464      	str	r4, [r4, #68]	@ 0x44
70002ea6:	0072      	lsls	r2, r6, #1
70002ea8:	7328      	strb	r0, [r5, #12]
70002eaa:	6174      	str	r4, [r6, #20]
70002eac:	7472      	strb	r2, [r6, #17]
70002eae:	615f      	str	r7, [r3, #20]
70002eb0:	6464      	str	r4, [r4, #68]	@ 0x44
70002eb2:	2072      	movs	r0, #114	@ 0x72
70002eb4:	2026      	movs	r0, #38	@ 0x26
70002eb6:	4143      	adcs	r3, r0
70002eb8:	4843      	ldr	r0, [pc, #268]	@ (0x70002fc8)
70002eba:	5f45      	ldrsh	r5, [r0, r5]
70002ebc:	4843      	ldr	r0, [pc, #268]	@ (0x70002fcc)
70002ebe:	535f      	strh	r7, [r3, r5]
70002ec0:	5a49      	ldrh	r1, [r1, r1]
70002ec2:	5f45      	ldrsh	r5, [r0, r5]
70002ec4:	4b34      	ldr	r3, [pc, #208]	@ (0x70002f98)
70002ec6:	5f42      	ldrsh	r2, [r0, r5]
70002ec8:	414d      	adcs	r5, r1
70002eca:	4b53      	ldr	r3, [pc, #332]	@ (0x70003018)
70002ecc:	3d29      	subs	r5, #41	@ 0x29
70002ece:	303d      	adds	r0, #61	@ 0x3d
70002ed0:	0000      	movs	r0, r0
70002ed2:	0000      	movs	r0, r0
70002ed4:	0fff      	lsrs	r7, r7, #31
70002ed6:	0000      	movs	r0, r0
70002ed8:	706d      	strb	r5, [r5, #1]
70002eda:	5f75      	ldrsh	r5, [r6, r5]
70002edc:	6e65      	ldr	r5, [r4, #100]	@ 0x64
70002ede:	5f64      	ldrsh	r4, [r4, r5]
70002ee0:	6461      	str	r1, [r4, #68]	@ 0x44
70002ee2:	7264      	strb	r4, [r4, #9]
70002ee4:	3d3c      	subs	r5, #60	@ 0x3c
70002ee6:	6e65      	ldr	r5, [r4, #100]	@ 0x64
70002ee8:	5f64      	ldrsh	r4, [r4, r5]
70002eea:	6461      	str	r1, [r4, #68]	@ 0x44
70002eec:	7264      	strb	r4, [r4, #9]
70002eee:	0000      	movs	r0, r0
70002ef0:	6572      	str	r2, [r6, #84]	@ 0x54
70002ef2:	7674      	strb	r4, [r6, #25]
70002ef4:	6c61      	ldr	r1, [r4, #68]	@ 0x44
70002ef6:	3d20      	subs	r5, #32
70002ef8:	203d      	movs	r0, #61	@ 0x3d
70002efa:	414b      	adcs	r3, r1
70002efc:	5f4c      	ldrsh	r4, [r1, r5]
70002efe:	5254      	strh	r4, [r2, r1]
70002f00:	4555      	cmp	r5, sl
70002f02:	0000      	movs	r0, r0
70002f04:	4801      	ldr	r0, [pc, #4]	@ (0x70002f0c)
70002f06:	4902      	ldr	r1, [pc, #8]	@ (0x70002f10)
70002f08:	8388      	strh	r0, [r1, #28]
70002f0a:	e7fe      	b.n	0x70002f0a
70002f0c:	1209      	asrs	r1, r1, #8
70002f0e:	0000      	movs	r0, r0
70002f10:	0000      	movs	r0, r0
70002f12:	a003      	add	r0, pc, #12	@ (adr r0, 0x70002f20)
70002f14:	0008      	movs	r0, r1
70002f16:	2300      	movs	r3, #0
70002f18:	000a      	movs	r2, r1
70002f1a:	4770      	bx	lr
70002f1c:	b5fe      	push	{r1, r2, r3, r4, r5, r6, r7, lr}
70002f1e:	0005      	movs	r5, r0
70002f20:	2600      	movs	r6, #0
70002f22:	1e70      	subs	r0, r6, #1
70002f24:	9000      	str	r0, [sp, #0]
70002f26:	9001      	str	r0, [sp, #4]
70002f28:	9002      	str	r0, [sp, #8]
70002f2a:	f000 fda7 	bl	0x70003a7c
70002f2e:	6800      	ldr	r0, [r0, #0]
70002f30:	4780      	blx	r0
70002f32:	223c      	movs	r2, #60	@ 0x3c
70002f34:	5c12      	ldrb	r2, [r2, r0]
70002f36:	2137      	movs	r1, #55	@ 0x37
70002f38:	42aa      	cmp	r2, r5
70002f3a:	d102      	bne.n	0x70002f42
70002f3c:	f000 fa04 	bl	0x70003348
70002f40:	bdfe      	pop	{r1, r2, r3, r4, r5, r6, r7, pc}
70002f42:	2400      	movs	r4, #0
70002f44:	5d02      	ldrb	r2, [r0, r4]
70002f46:	42aa      	cmp	r2, r5
70002f48:	d119      	bne.n	0x70002f7e
70002f4a:	f000 fe85 	bl	0x70003c58
70002f4e:	4668      	mov	r0, sp
70002f50:	f000 fdd4 	bl	0x70003afc
70002f54:	2001      	movs	r0, #1
70002f56:	2c20      	cmp	r4, #32
70002f58:	d201      	bcs.n	0x70002f5e
70002f5a:	9900      	ldr	r1, [sp, #0]
70002f5c:	e008      	b.n	0x70002f70
70002f5e:	2c40      	cmp	r4, #64	@ 0x40
70002f60:	d202      	bcs.n	0x70002f68
70002f62:	9901      	ldr	r1, [sp, #4]
70002f64:	3c20      	subs	r4, #32
70002f66:	e003      	b.n	0x70002f70
70002f68:	2c60      	cmp	r4, #96	@ 0x60
70002f6a:	d204      	bcs.n	0x70002f76
70002f6c:	9902      	ldr	r1, [sp, #8]
70002f6e:	3c40      	subs	r4, #64	@ 0x40
70002f70:	40a0      	lsls	r0, r4
70002f72:	4201      	tst	r1, r0
70002f74:	d001      	beq.n	0x70002f7a
70002f76:	2e00      	cmp	r6, #0
70002f78:	d004      	beq.n	0x70002f84
70002f7a:	2001      	movs	r0, #1
70002f7c:	bdfe      	pop	{r1, r2, r3, r4, r5, r6, r7, pc}
70002f7e:	1c64      	adds	r4, r4, #1
70002f80:	428c      	cmp	r4, r1
70002f82:	d3df      	bcc.n	0x70002f44
70002f84:	2000      	movs	r0, #0
70002f86:	bdfe      	pop	{r1, r2, r3, r4, r5, r6, r7, pc}
70002f88:	b510      	push	{r4, lr}
70002f8a:	4c05      	ldr	r4, [pc, #20]	@ (0x70002fa0)
70002f8c:	6860      	ldr	r0, [r4, #4]
70002f8e:	2800      	cmp	r0, #0
70002f90:	d105      	bne.n	0x70002f9e
70002f92:	f000 fd73 	bl	0x70003a7c
70002f96:	6020      	str	r0, [r4, #0]
70002f98:	6800      	ldr	r0, [r0, #0]
70002f9a:	4780      	blx	r0
70002f9c:	6060      	str	r0, [r4, #4]
70002f9e:	bd10      	pop	{r4, pc}
70002fa0:	2fac      	cmp	r7, #172	@ 0xac
70002fa2:	0001      	movs	r1, r0
70002fa4:	b51f      	push	{r0, r1, r2, r3, r4, lr}
70002fa6:	0040      	lsls	r0, r0, #1
70002fa8:	d40f      	bmi.n	0x70002fca
70002faa:	2200      	movs	r2, #0
70002fac:	9201      	str	r2, [sp, #4]
70002fae:	9202      	str	r2, [sp, #8]
70002fb0:	9203      	str	r2, [sp, #12]
70002fb2:	9200      	str	r2, [sp, #0]
70002fb4:	22ff      	movs	r2, #255	@ 0xff
70002fb6:	32c1      	adds	r2, #193	@ 0xc1
70002fb8:	2300      	movs	r3, #0
70002fba:	a186      	add	r1, pc, #536	@ (adr r1, 0x700031d4)
70002fbc:	a08d      	add	r0, pc, #564	@ (adr r0, 0x700031f4)
70002fbe:	f002 fcf3 	bl	0x700059a8
70002fc2:	2005      	movs	r0, #5
70002fc4:	43c0      	mvns	r0, r0
70002fc6:	b004      	add	sp, #16
70002fc8:	bd10      	pop	{r4, pc}
70002fca:	488b      	ldr	r0, [pc, #556]	@ (0x700031f8)
70002fcc:	6800      	ldr	r0, [r0, #0]
70002fce:	2800      	cmp	r0, #0
70002fd0:	d10e      	bne.n	0x70002ff0
70002fd2:	2200      	movs	r2, #0
70002fd4:	9201      	str	r2, [sp, #4]
70002fd6:	9202      	str	r2, [sp, #8]
70002fd8:	9203      	str	r2, [sp, #12]
70002fda:	9200      	str	r2, [sp, #0]
70002fdc:	22ff      	movs	r2, #255	@ 0xff
70002fde:	32c7      	adds	r2, #199	@ 0xc7
70002fe0:	2300      	movs	r3, #0
70002fe2:	a17c      	add	r1, pc, #496	@ (adr r1, 0x700031d4)
70002fe4:	a083      	add	r0, pc, #524	@ (adr r0, 0x700031f4)
70002fe6:	f002 fcdf 	bl	0x700059a8
70002fea:	2003      	movs	r0, #3
70002fec:	43c0      	mvns	r0, r0
70002fee:	e7ea      	b.n	0x70002fc6
70002ff0:	4882      	ldr	r0, [pc, #520]	@ (0x700031fc)
70002ff2:	180b      	adds	r3, r1, r0
70002ff4:	1280      	asrs	r0, r0, #10
70002ff6:	f002 ecc0 	blx	0x70005978
70002ffa:	172a      	asrs	r2, r5, #28
70002ffc:	161b      	asrs	r3, r3, #24
70002ffe:	2016      	movs	r0, #22
70003000:	2b25      	cmp	r3, #37	@ 0x25
70003002:	443f      	add	r7, r7
70003004:	4a46      	ldr	r2, [pc, #280]	@ (0x70003120)
70003006:	5651      	ldrsb	r1, [r2, r1]
70003008:	1616      	asrs	r6, r2, #24
7000300a:	5d59      	ldrb	r1, [r3, r5]
7000300c:	6116      	str	r6, [r2, #16]
7000300e:	7a76      	ldrb	r6, [r6, #9]
70003010:	908d      	str	r0, [sp, #564]	@ 0x234
70003012:	9693      	str	r6, [sp, #588]	@ 0x24c
70003014:	a19b      	add	r1, pc, #620	@ (adr r1, 0x70003284)
70003016:	16a4      	asrs	r4, r4, #26
70003018:	bcb7      	pop	{r0, r1, r2, r4, r5, r7}
7000301a:	16bf      	asrs	r7, r7, #26
7000301c:	16d2      	asrs	r2, r2, #27
7000301e:	d516      	bpl.n	0x7000304e
70003020:	dae0      	bge.n	0x70002fe4
70003022:	e5dd      	b.n	0x70002be0
70003024:	e916 e7ce 	ldmdb	r6, {r1, r2, r3, r6, r7, r8, r9, sl, sp, lr, pc}
70003028:	0014      	movs	r4, r2
7000302a:	f000 fefd 	bl	0x70003e28
7000302e:	e007      	b.n	0x70003040
70003030:	8851      	ldrh	r1, [r2, #2]
70003032:	7810      	ldrb	r0, [r2, #0]
70003034:	f000 ff08 	bl	0x70003e48
70003038:	e0c6      	b.n	0x700031c8
7000303a:	0014      	movs	r4, r2
7000303c:	f000 ff36 	bl	0x70003eac
70003040:	7020      	strb	r0, [r4, #0]
70003042:	e0c1      	b.n	0x700031c8
70003044:	0014      	movs	r4, r2
70003046:	a802      	add	r0, sp, #8
70003048:	f002 ffee 	bl	0x70006028
7000304c:	71e0      	strb	r0, [r4, #7]
7000304e:	e003      	b.n	0x70003058
70003050:	0014      	movs	r4, r2
70003052:	a802      	add	r0, sp, #8
70003054:	f000 ff62 	bl	0x70003f1c
70003058:	466b      	mov	r3, sp
7000305a:	7a18      	ldrb	r0, [r3, #8]
7000305c:	7020      	strb	r0, [r4, #0]
7000305e:	7a58      	ldrb	r0, [r3, #9]
70003060:	7060      	strb	r0, [r4, #1]
70003062:	7a98      	ldrb	r0, [r3, #10]
70003064:	70a0      	strb	r0, [r4, #2]
70003066:	7ad8      	ldrb	r0, [r3, #11]
70003068:	70e0      	strb	r0, [r4, #3]
7000306a:	7b18      	ldrb	r0, [r3, #12]
7000306c:	7120      	strb	r0, [r4, #4]
7000306e:	7b58      	ldrb	r0, [r3, #13]
70003070:	7160      	strb	r0, [r4, #5]
70003072:	7b98      	ldrb	r0, [r3, #14]
70003074:	71a0      	strb	r0, [r4, #6]
70003076:	e0a7      	b.n	0x700031c8
70003078:	0014      	movs	r4, r2
7000307a:	f000 ff53 	bl	0x70003f24
7000307e:	70a0      	strb	r0, [r4, #2]
70003080:	e0a2      	b.n	0x700031c8
70003082:	2001      	movs	r0, #1
70003084:	e000      	b.n	0x70003088
70003086:	2002      	movs	r0, #2
70003088:	f001 f910 	bl	0x700042ac
7000308c:	e09c      	b.n	0x700031c8
7000308e:	7913      	ldrb	r3, [r2, #4]
70003090:	7851      	ldrb	r1, [r2, #1]
70003092:	7810      	ldrb	r0, [r2, #0]
70003094:	001a      	movs	r2, r3
70003096:	f001 f8d5 	bl	0x70004244
7000309a:	e095      	b.n	0x700031c8
7000309c:	7951      	ldrb	r1, [r2, #5]
7000309e:	78d0      	ldrb	r0, [r2, #3]
700030a0:	f001 f922 	bl	0x700042e8
700030a4:	e090      	b.n	0x700031c8
700030a6:	f003 f801 	bl	0x700060ac
700030aa:	e08d      	b.n	0x700031c8
700030ac:	0014      	movs	r4, r2
700030ae:	f001 f9d3 	bl	0x70004458
700030b2:	e7c5      	b.n	0x70003040
700030b4:	0014      	movs	r4, r2
700030b6:	f003 f8ed 	bl	0x70006294
700030ba:	e7c1      	b.n	0x70003040
700030bc:	7810      	ldrb	r0, [r2, #0]
700030be:	466b      	mov	r3, sp
700030c0:	0014      	movs	r4, r2
700030c2:	7218      	strb	r0, [r3, #8]
700030c4:	7850      	ldrb	r0, [r2, #1]
700030c6:	7258      	strb	r0, [r3, #9]
700030c8:	7890      	ldrb	r0, [r2, #2]
700030ca:	7298      	strb	r0, [r3, #10]
700030cc:	78d0      	ldrb	r0, [r2, #3]
700030ce:	72d8      	strb	r0, [r3, #11]
700030d0:	7910      	ldrb	r0, [r2, #4]
700030d2:	7318      	strb	r0, [r3, #12]
700030d4:	7950      	ldrb	r0, [r2, #5]
700030d6:	7358      	strb	r0, [r3, #13]
700030d8:	7990      	ldrb	r0, [r2, #6]
700030da:	7398      	strb	r0, [r3, #14]
700030dc:	a802      	add	r0, sp, #8
700030de:	f003 f8f7 	bl	0x700062d0
700030e2:	71e0      	strb	r0, [r4, #7]
700030e4:	e070      	b.n	0x700031c8
700030e6:	0014      	movs	r4, r2
700030e8:	f000 ff28 	bl	0x70003f3c
700030ec:	e7a8      	b.n	0x70003040
700030ee:	7810      	ldrb	r0, [r2, #0]
700030f0:	466b      	mov	r3, sp
700030f2:	7218      	strb	r0, [r3, #8]
700030f4:	7850      	ldrb	r0, [r2, #1]
700030f6:	7258      	strb	r0, [r3, #9]
700030f8:	7890      	ldrb	r0, [r2, #2]
700030fa:	7298      	strb	r0, [r3, #10]
700030fc:	78d0      	ldrb	r0, [r2, #3]
700030fe:	72d8      	strb	r0, [r3, #11]
70003100:	7910      	ldrb	r0, [r2, #4]
70003102:	7318      	strb	r0, [r3, #12]
70003104:	7950      	ldrb	r0, [r2, #5]
70003106:	7358      	strb	r0, [r3, #13]
70003108:	7990      	ldrb	r0, [r2, #6]
7000310a:	7398      	strb	r0, [r3, #14]
7000310c:	a802      	add	r0, sp, #8
7000310e:	f000 ff1f 	bl	0x70003f50
70003112:	e059      	b.n	0x700031c8
70003114:	f000 ffc6 	bl	0x700040a4
70003118:	e056      	b.n	0x700031c8
7000311a:	f000 ffdf 	bl	0x700040dc
7000311e:	e053      	b.n	0x700031c8
70003120:	f002 ffca 	bl	0x700060b8
70003124:	e050      	b.n	0x700031c8
70003126:	7810      	ldrb	r0, [r2, #0]
70003128:	0014      	movs	r4, r2
7000312a:	f001 f819 	bl	0x70004160
7000312e:	e003      	b.n	0x70003138
70003130:	7810      	ldrb	r0, [r2, #0]
70003132:	0014      	movs	r4, r2
70003134:	f001 f842 	bl	0x700041bc
70003138:	80a0      	strh	r0, [r4, #4]
7000313a:	e045      	b.n	0x700031c8
7000313c:	f003 f8e2 	bl	0x70006304
70003140:	e042      	b.n	0x700031c8
70003142:	7810      	ldrb	r0, [r2, #0]
70003144:	466b      	mov	r3, sp
70003146:	7218      	strb	r0, [r3, #8]
70003148:	7850      	ldrb	r0, [r2, #1]
7000314a:	7258      	strb	r0, [r3, #9]
7000314c:	7890      	ldrb	r0, [r2, #2]
7000314e:	7298      	strb	r0, [r3, #10]
70003150:	78d0      	ldrb	r0, [r2, #3]
70003152:	72d8      	strb	r0, [r3, #11]
70003154:	7910      	ldrb	r0, [r2, #4]
70003156:	7318      	strb	r0, [r3, #12]
70003158:	7950      	ldrb	r0, [r2, #5]
7000315a:	7358      	strb	r0, [r3, #13]
7000315c:	7990      	ldrb	r0, [r2, #6]
7000315e:	7398      	strb	r0, [r3, #14]
70003160:	a802      	add	r0, sp, #8
70003162:	f002 fff5 	bl	0x70006150
70003166:	e02f      	b.n	0x700031c8
70003168:	8851      	ldrh	r1, [r2, #2]
7000316a:	7810      	ldrb	r0, [r2, #0]
7000316c:	f001 f8d8 	bl	0x70004320
70003170:	e02a      	b.n	0x700031c8
70003172:	f003 f8d5 	bl	0x70006320
70003176:	e027      	b.n	0x700031c8
70003178:	7810      	ldrb	r0, [r2, #0]
7000317a:	466b      	mov	r3, sp
7000317c:	7218      	strb	r0, [r3, #8]
7000317e:	7850      	ldrb	r0, [r2, #1]
70003180:	7258      	strb	r0, [r3, #9]
70003182:	7890      	ldrb	r0, [r2, #2]
70003184:	7298      	strb	r0, [r3, #10]
70003186:	78d0      	ldrb	r0, [r2, #3]
70003188:	72d8      	strb	r0, [r3, #11]
7000318a:	7910      	ldrb	r0, [r2, #4]
7000318c:	7318      	strb	r0, [r3, #12]
7000318e:	7950      	ldrb	r0, [r2, #5]
70003190:	7358      	strb	r0, [r3, #13]
70003192:	7990      	ldrb	r0, [r2, #6]
70003194:	7398      	strb	r0, [r3, #14]
70003196:	a802      	add	r0, sp, #8
70003198:	f000 fecc 	bl	0x70003f34
7000319c:	e014      	b.n	0x700031c8
7000319e:	f003 f8df 	bl	0x70006360
700031a2:	e011      	b.n	0x700031c8
700031a4:	8851      	ldrh	r1, [r2, #2]
700031a6:	7810      	ldrb	r0, [r2, #0]
700031a8:	f001 f8ec 	bl	0x70004384
700031ac:	e00c      	b.n	0x700031c8
700031ae:	f001 f975 	bl	0x7000449c
700031b2:	e009      	b.n	0x700031c8
700031b4:	f002 fbd0 	bl	0x70005958
700031b8:	e006      	b.n	0x700031c8
700031ba:	8851      	ldrh	r1, [r2, #2]
700031bc:	7810      	ldrb	r0, [r2, #0]
700031be:	f001 f911 	bl	0x700043e4
700031c2:	e001      	b.n	0x700031c8
700031c4:	f003 f90c 	bl	0x700063e0
700031c8:	2000      	movs	r0, #0
700031ca:	e6fc      	b.n	0x70002fc6
700031cc:	2001      	movs	r0, #1
700031ce:	43c0      	mvns	r0, r0
700031d0:	e6f9      	b.n	0x70002fc6
700031d2:	0000      	movs	r0, r0
700031d4:	6168      	str	r0, [r5, #20]
700031d6:	5c6c      	ldrb	r4, [r5, r1]
700031d8:	6570      	str	r0, [r6, #84]	@ 0x54
700031da:	6972      	ldr	r2, [r6, #20]
700031dc:	6870      	ldr	r0, [r6, #4]
700031de:	7265      	strb	r5, [r4, #9]
700031e0:	6c61      	ldr	r1, [r4, #68]	@ 0x44
700031e2:	735c      	strb	r4, [r3, #13]
700031e4:	6372      	str	r2, [r6, #52]	@ 0x34
700031e6:	645c      	str	r4, [r3, #68]	@ 0x44
700031e8:	6c63      	ldr	r3, [r4, #68]	@ 0x44
700031ea:	725f      	strb	r7, [r3, #9]
700031ec:	6374      	str	r4, [r6, #52]	@ 0x34
700031ee:	632e      	str	r6, [r5, #48]	@ 0x30
700031f0:	0000      	movs	r0, r0
700031f2:	0000      	movs	r0, r0
700031f4:	0030      	movs	r0, r6
700031f6:	0000      	movs	r0, r0
700031f8:	2f10      	cmp	r7, #16
700031fa:	0001      	movs	r1, r0
700031fc:	f7ff ffff 	bl	0x700031fe
70003200:	b510      	push	{r4, lr}
70003202:	6801      	ldr	r1, [r0, #0]
70003204:	0004      	movs	r4, r0
70003206:	4813      	ldr	r0, [pc, #76]	@ (0x70003254)
70003208:	0209      	lsls	r1, r1, #8
7000320a:	4281      	cmp	r1, r0
7000320c:	d109      	bne.n	0x70003222
7000320e:	88e0      	ldrh	r0, [r4, #6]
70003210:	2800      	cmp	r0, #0
70003212:	d106      	bne.n	0x70003222
70003214:	0020      	movs	r0, r4
70003216:	3008      	adds	r0, #8
70003218:	a10f      	add	r1, pc, #60	@ (adr r1, 0x70003258)
7000321a:	f004 e88e 	blx	0x70007338
7000321e:	2800      	cmp	r0, #0
70003220:	d001      	beq.n	0x70003226
70003222:	4810      	ldr	r0, [pc, #64]	@ (0x70003264)
70003224:	bd10      	pop	{r4, pc}
70003226:	480f      	ldr	r0, [pc, #60]	@ (0x70003264)
70003228:	6aa1      	ldr	r1, [r4, #40]	@ 0x28
7000322a:	1c40      	adds	r0, r0, #1
7000322c:	2900      	cmp	r1, #0
7000322e:	d0f9      	beq.n	0x70003224
70003230:	2201      	movs	r2, #1
70003232:	0512      	lsls	r2, r2, #20
70003234:	4291      	cmp	r1, r2
70003236:	d8f5      	bhi.n	0x70003224
70003238:	6a22      	ldr	r2, [r4, #32]
7000323a:	2a00      	cmp	r2, #0
7000323c:	d002      	beq.n	0x70003244
7000323e:	0783      	lsls	r3, r0, #30
70003240:	429a      	cmp	r2, r3
70003242:	d902      	bls.n	0x7000324a
70003244:	4807      	ldr	r0, [pc, #28]	@ (0x70003264)
70003246:	1c80      	adds	r0, r0, #2
70003248:	bd10      	pop	{r4, pc}
7000324a:	4291      	cmp	r1, r2
7000324c:	d8fc      	bhi.n	0x70003248
7000324e:	2000      	movs	r0, #0
70003250:	bd10      	pop	{r4, pc}
70003252:	0000      	movs	r0, r0
70003254:	4d00      	ldr	r5, [pc, #0]	@ (0x70003258)
70003256:	4d4d      	ldr	r5, [pc, #308]	@ (0x7000338c)
70003258:	4946      	ldr	r1, [pc, #280]	@ (0x70003374)
7000325a:	454c      	cmp	r4, r9
7000325c:	495f      	ldr	r1, [pc, #380]	@ (0x700033dc)
7000325e:	464e      	mov	r6, r9
70003260:	004f      	lsls	r7, r1, #1
70003262:	0000      	movs	r0, r0
70003264:	8005      	strh	r5, [r0, #0]
70003266:	0000      	movs	r0, r0
70003268:	b5ff      	push	{r0, r1, r2, r3, r4, r5, r6, r7, lr}
7000326a:	2400      	movs	r4, #0
7000326c:	0005      	movs	r5, r0
7000326e:	0026      	movs	r6, r4
70003270:	b081      	sub	sp, #4
70003272:	2900      	cmp	r1, #0
70003274:	9400      	str	r4, [sp, #0]
70003276:	d000      	beq.n	0x7000327a
70003278:	2601      	movs	r6, #1
7000327a:	07a8      	lsls	r0, r5, #30
7000327c:	d002      	beq.n	0x70003284
7000327e:	481a      	ldr	r0, [pc, #104]	@ (0x700032e8)
70003280:	b005      	add	sp, #20
70003282:	bdf0      	pop	{r4, r5, r6, r7, pc}
70003284:	0028      	movs	r0, r5
70003286:	f7ff ffbb 	bl	0x70003200
7000328a:	28ff      	cmp	r0, #255	@ 0xff
7000328c:	d2f8      	bcs.n	0x70003280
7000328e:	6aab      	ldr	r3, [r5, #40]	@ 0x28
70003290:	2000      	movs	r0, #0
70003292:	e01c      	b.n	0x700032ce
70003294:	1829      	adds	r1, r5, r0
70003296:	4f15      	ldr	r7, [pc, #84]	@ (0x700032ec)
70003298:	680a      	ldr	r2, [r1, #0]
7000329a:	42ba      	cmp	r2, r7
7000329c:	d019      	beq.n	0x700032d2
7000329e:	4f14      	ldr	r7, [pc, #80]	@ (0x700032f0)
700032a0:	0212      	lsls	r2, r2, #8
700032a2:	42ba      	cmp	r2, r7
700032a4:	d11c      	bne.n	0x700032e0
700032a6:	888a      	ldrh	r2, [r1, #4]
700032a8:	1810      	adds	r0, r2, r0
700032aa:	2a08      	cmp	r2, #8
700032ac:	d301      	bcc.n	0x700032b2
700032ae:	4283      	cmp	r3, r0
700032b0:	d202      	bcs.n	0x700032b8
700032b2:	480d      	ldr	r0, [pc, #52]	@ (0x700032e8)
700032b4:	3808      	subs	r0, #8
700032b6:	e7e3      	b.n	0x70003280
700032b8:	88ca      	ldrh	r2, [r1, #6]
700032ba:	9f03      	ldr	r7, [sp, #12]
700032bc:	42ba      	cmp	r2, r7
700032be:	d106      	bne.n	0x700032ce
700032c0:	9a0a      	ldr	r2, [sp, #40]	@ 0x28
700032c2:	4294      	cmp	r4, r2
700032c4:	d102      	bne.n	0x700032cc
700032c6:	9804      	ldr	r0, [sp, #16]
700032c8:	6001      	str	r1, [r0, #0]
700032ca:	e007      	b.n	0x700032dc
700032cc:	1c64      	adds	r4, r4, #1
700032ce:	4298      	cmp	r0, r3
700032d0:	d3e0      	bcc.n	0x70003294
700032d2:	2e00      	cmp	r6, #0
700032d4:	d004      	beq.n	0x700032e0
700032d6:	9800      	ldr	r0, [sp, #0]
700032d8:	2800      	cmp	r0, #0
700032da:	d001      	beq.n	0x700032e0
700032dc:	2000      	movs	r0, #0
700032de:	e7cf      	b.n	0x70003280
700032e0:	4801      	ldr	r0, [pc, #4]	@ (0x700032e8)
700032e2:	380b      	subs	r0, #11
700032e4:	e7cc      	b.n	0x70003280
700032e6:	0000      	movs	r0, r0
700032e8:	800c      	strh	r4, [r1, #0]
700032ea:	0000      	movs	r0, r0
700032ec:	4545      	cmp	r5, r8
700032ee:	4545      	cmp	r5, r8
700032f0:	4d00      	ldr	r5, [pc, #0]	@ (0x700032f4)
700032f2:	4d4d      	ldr	r5, [pc, #308]	@ (0x70003428)
700032f4:	4802      	ldr	r0, [pc, #8]	@ (0x70003300)
700032f6:	8a00      	ldrh	r0, [r0, #16]
700032f8:	0740      	lsls	r0, r0, #29
700032fa:	0fc0      	lsrs	r0, r0, #31
700032fc:	4770      	bx	lr
700032fe:	0000      	movs	r0, r0
70003300:	0000      	movs	r0, r0
70003302:	a001      	add	r0, pc, #4	@ (adr r0, 0x70003308)
70003304:	b570      	push	{r4, r5, r6, lr}
70003306:	0004      	movs	r4, r0
70003308:	f001 edd2 	blx	0x70004eb0
7000330c:	4b0d      	ldr	r3, [pc, #52]	@ (0x70003344)
7000330e:	2100      	movs	r1, #0
70003310:	881a      	ldrh	r2, [r3, #0]
70003312:	07d5      	lsls	r5, r2, #31
70003314:	d006      	beq.n	0x70003324
70003316:	1c49      	adds	r1, r1, #1
70003318:	0409      	lsls	r1, r1, #16
7000331a:	0852      	lsrs	r2, r2, #1
7000331c:	0c09      	lsrs	r1, r1, #16
7000331e:	2910      	cmp	r1, #16
70003320:	d3f7      	bcc.n	0x70003312
70003322:	e001      	b.n	0x70003328
70003324:	2910      	cmp	r1, #16
70003326:	d303      	bcc.n	0x70003330
70003328:	f001 edbe 	blx	0x70004ea8
7000332c:	2000      	movs	r0, #0
7000332e:	bd70      	pop	{r4, r5, r6, pc}
70003330:	2201      	movs	r2, #1
70003332:	408a      	lsls	r2, r1
70003334:	8021      	strh	r1, [r4, #0]
70003336:	8819      	ldrh	r1, [r3, #0]
70003338:	430a      	orrs	r2, r1
7000333a:	801a      	strh	r2, [r3, #0]
7000333c:	f001 edb4 	blx	0x70004ea8
70003340:	2001      	movs	r0, #1
70003342:	bd70      	pop	{r4, r5, r6, pc}
70003344:	2ac8      	cmp	r2, #200	@ 0xc8
70003346:	0001      	movs	r1, r0
70003348:	4803      	ldr	r0, [pc, #12]	@ (0x70003358)
7000334a:	8900      	ldrh	r0, [r0, #8]
7000334c:	07c0      	lsls	r0, r0, #31
7000334e:	d001      	beq.n	0x70003354
70003350:	2000      	movs	r0, #0
70003352:	4770      	bx	lr
70003354:	2001      	movs	r0, #1
70003356:	4770      	bx	lr
70003358:	0040      	lsls	r0, r0, #1
7000335a:	a073      	add	r0, pc, #460	@ (adr r0, 0x70003528)
7000335c:	b5f8      	push	{r3, r4, r5, r6, r7, lr}
7000335e:	4b62      	ldr	r3, [pc, #392]	@ (0x700034e8)
70003360:	0014      	movs	r4, r2
70003362:	2200      	movs	r2, #0
70003364:	9300      	str	r3, [sp, #0]
70003366:	701a      	strb	r2, [r3, #0]
70003368:	4a60      	ldr	r2, [pc, #384]	@ (0x700034ec)
7000336a:	7812      	ldrb	r2, [r2, #0]
7000336c:	4290      	cmp	r0, r2
7000336e:	d373      	bcc.n	0x70003458
70003370:	000e      	movs	r6, r1
70003372:	e0a8      	b.n	0x700034c6
70003374:	2825      	cmp	r0, #37	@ 0x25
70003376:	d004      	beq.n	0x70003382
70003378:	9900      	ldr	r1, [sp, #0]
7000337a:	7008      	strb	r0, [r1, #0]
7000337c:	1c49      	adds	r1, r1, #1
7000337e:	9100      	str	r1, [sp, #0]
70003380:	e0a0      	b.n	0x700034c4
70003382:	7870      	ldrb	r0, [r6, #1]
70003384:	1c76      	adds	r6, r6, #1
70003386:	286f      	cmp	r0, #111	@ 0x6f
70003388:	d04b      	beq.n	0x70003422
7000338a:	dc27      	bgt.n	0x700033dc
7000338c:	2863      	cmp	r0, #99	@ 0x63
7000338e:	d05d      	beq.n	0x7000344c
70003390:	2864      	cmp	r0, #100	@ 0x64
70003392:	d03b      	beq.n	0x7000340c
70003394:	2866      	cmp	r0, #102	@ 0x66
70003396:	d1f3      	bne.n	0x70003380
70003398:	1de4      	adds	r4, r4, #7
7000339a:	08e4      	lsrs	r4, r4, #3
7000339c:	00e4      	lsls	r4, r4, #3
7000339e:	6867      	ldr	r7, [r4, #4]
700033a0:	6825      	ldr	r5, [r4, #0]
700033a2:	3408      	adds	r4, #8
700033a4:	2300      	movs	r3, #0
700033a6:	0039      	movs	r1, r7
700033a8:	1ae8      	subs	r0, r5, r3
700033aa:	4199      	sbcs	r1, r3
700033ac:	da07      	bge.n	0x700033be
700033ae:	9800      	ldr	r0, [sp, #0]
700033b0:	212d      	movs	r1, #45	@ 0x2d
700033b2:	7001      	strb	r1, [r0, #0]
700033b4:	1c40      	adds	r0, r0, #1
700033b6:	426d      	negs	r5, r5
700033b8:	4192      	sbcs	r2, r2
700033ba:	1bd7      	subs	r7, r2, r7
700033bc:	9000      	str	r0, [sp, #0]
700033be:	0039      	movs	r1, r7
700033c0:	0028      	movs	r0, r5
700033c2:	f004 e88e 	blx	0x700074e0
700033c6:	a24a      	add	r2, pc, #296	@ (adr r2, 0x700034f0)
700033c8:	ca0c      	ldmia	r2, {r2, r3}
700033ca:	f004 e8c4 	blx	0x70007554
700033ce:	d844      	bhi.n	0x7000345a
700033d0:	220a      	movs	r2, #10
700033d2:	0029      	movs	r1, r5
700033d4:	4668      	mov	r0, sp
700033d6:	f001 f94d 	bl	0x70004674
700033da:	e043      	b.n	0x70003464
700033dc:	2870      	cmp	r0, #112	@ 0x70
700033de:	d033      	beq.n	0x70003448
700033e0:	2873      	cmp	r0, #115	@ 0x73
700033e2:	d065      	beq.n	0x700034b0
700033e4:	2878      	cmp	r0, #120	@ 0x78
700033e6:	d16d      	bne.n	0x700034c4
700033e8:	cc02      	ldmia	r4!, {r1}
700033ea:	2900      	cmp	r1, #0
700033ec:	da05      	bge.n	0x700033fa
700033ee:	9800      	ldr	r0, [sp, #0]
700033f0:	222d      	movs	r2, #45	@ 0x2d
700033f2:	7002      	strb	r2, [r0, #0]
700033f4:	1c40      	adds	r0, r0, #1
700033f6:	4249      	negs	r1, r1
700033f8:	9000      	str	r0, [sp, #0]
700033fa:	9800      	ldr	r0, [sp, #0]
700033fc:	2230      	movs	r2, #48	@ 0x30
700033fe:	7002      	strb	r2, [r0, #0]
70003400:	2278      	movs	r2, #120	@ 0x78
70003402:	7042      	strb	r2, [r0, #1]
70003404:	1c80      	adds	r0, r0, #2
70003406:	2210      	movs	r2, #16
70003408:	9000      	str	r0, [sp, #0]
7000340a:	e019      	b.n	0x70003440
7000340c:	cc02      	ldmia	r4!, {r1}
7000340e:	2900      	cmp	r1, #0
70003410:	da05      	bge.n	0x7000341e
70003412:	9800      	ldr	r0, [sp, #0]
70003414:	222d      	movs	r2, #45	@ 0x2d
70003416:	7002      	strb	r2, [r0, #0]
70003418:	1c40      	adds	r0, r0, #1
7000341a:	4249      	negs	r1, r1
7000341c:	9000      	str	r0, [sp, #0]
7000341e:	220a      	movs	r2, #10
70003420:	e00e      	b.n	0x70003440
70003422:	cc02      	ldmia	r4!, {r1}
70003424:	2900      	cmp	r1, #0
70003426:	da05      	bge.n	0x70003434
70003428:	9800      	ldr	r0, [sp, #0]
7000342a:	222d      	movs	r2, #45	@ 0x2d
7000342c:	7002      	strb	r2, [r0, #0]
7000342e:	1c40      	adds	r0, r0, #1
70003430:	4249      	negs	r1, r1
70003432:	9000      	str	r0, [sp, #0]
70003434:	9800      	ldr	r0, [sp, #0]
70003436:	2230      	movs	r2, #48	@ 0x30
70003438:	7002      	strb	r2, [r0, #0]
7000343a:	1c40      	adds	r0, r0, #1
7000343c:	2208      	movs	r2, #8
7000343e:	9000      	str	r0, [sp, #0]
70003440:	4668      	mov	r0, sp
70003442:	f001 f917 	bl	0x70004674
70003446:	e03d      	b.n	0x700034c4
70003448:	cc02      	ldmia	r4!, {r1}
7000344a:	e7d6      	b.n	0x700033fa
7000344c:	cc02      	ldmia	r4!, {r1}
7000344e:	9800      	ldr	r0, [sp, #0]
70003450:	7001      	strb	r1, [r0, #0]
70003452:	1c40      	adds	r0, r0, #1
70003454:	9000      	str	r0, [sp, #0]
70003456:	e035      	b.n	0x700034c4
70003458:	e045      	b.n	0x700034e6
7000345a:	9800      	ldr	r0, [sp, #0]
7000345c:	2130      	movs	r1, #48	@ 0x30
7000345e:	7001      	strb	r1, [r0, #0]
70003460:	1c40      	adds	r0, r0, #1
70003462:	9000      	str	r0, [sp, #0]
70003464:	9800      	ldr	r0, [sp, #0]
70003466:	212e      	movs	r1, #46	@ 0x2e
70003468:	7001      	strb	r1, [r0, #0]
7000346a:	1c40      	adds	r0, r0, #1
7000346c:	17e9      	asrs	r1, r5, #31
7000346e:	9000      	str	r0, [sp, #0]
70003470:	003b      	movs	r3, r7
70003472:	1b68      	subs	r0, r5, r5
70003474:	418b      	sbcs	r3, r1
70003476:	4a20      	ldr	r2, [pc, #128]	@ (0x700034f8)
70003478:	0019      	movs	r1, r3
7000347a:	f003 ef5a 	blx	0x70007330
7000347e:	4a1f      	ldr	r2, [pc, #124]	@ (0x700034fc)
70003480:	2100      	movs	r1, #0
70003482:	0015      	movs	r5, r2
70003484:	3514      	adds	r5, #20
70003486:	000f      	movs	r7, r1
70003488:	7511      	strb	r1, [r2, #20]
7000348a:	210a      	movs	r1, #10
7000348c:	f004 e954 	blx	0x70007738
70003490:	3130      	adds	r1, #48	@ 0x30
70003492:	1e6d      	subs	r5, r5, #1
70003494:	1c7f      	adds	r7, r7, #1
70003496:	2f04      	cmp	r7, #4
70003498:	7029      	strb	r1, [r5, #0]
7000349a:	dbf6      	blt.n	0x7000348a
7000349c:	e004      	b.n	0x700034a8
7000349e:	9800      	ldr	r0, [sp, #0]
700034a0:	1c6d      	adds	r5, r5, #1
700034a2:	7001      	strb	r1, [r0, #0]
700034a4:	1c40      	adds	r0, r0, #1
700034a6:	9000      	str	r0, [sp, #0]
700034a8:	7829      	ldrb	r1, [r5, #0]
700034aa:	2900      	cmp	r1, #0
700034ac:	d1f7      	bne.n	0x7000349e
700034ae:	e009      	b.n	0x700034c4
700034b0:	cc01      	ldmia	r4!, {r0}
700034b2:	e004      	b.n	0x700034be
700034b4:	9900      	ldr	r1, [sp, #0]
700034b6:	700a      	strb	r2, [r1, #0]
700034b8:	1c49      	adds	r1, r1, #1
700034ba:	1c40      	adds	r0, r0, #1
700034bc:	9100      	str	r1, [sp, #0]
700034be:	7802      	ldrb	r2, [r0, #0]
700034c0:	2a00      	cmp	r2, #0
700034c2:	d1f7      	bne.n	0x700034b4
700034c4:	1c76      	adds	r6, r6, #1
700034c6:	7830      	ldrb	r0, [r6, #0]
700034c8:	2800      	cmp	r0, #0
700034ca:	d000      	beq.n	0x700034ce
700034cc:	e752      	b.n	0x70003374
700034ce:	9900      	ldr	r1, [sp, #0]
700034d0:	7008      	strb	r0, [r1, #0]
700034d2:	4805      	ldr	r0, [pc, #20]	@ (0x700034e8)
700034d4:	e003      	b.n	0x700034de
700034d6:	f000 fc9d 	bl	0x70003e14
700034da:	9800      	ldr	r0, [sp, #0]
700034dc:	1c40      	adds	r0, r0, #1
700034de:	9000      	str	r0, [sp, #0]
700034e0:	7800      	ldrb	r0, [r0, #0]
700034e2:	2800      	cmp	r0, #0
700034e4:	d1f7      	bne.n	0x700034d6
700034e6:	bdf8      	pop	{r3, r4, r5, r6, r7, pc}
700034e8:	0000      	movs	r0, r0
700034ea:	0003      	movs	r3, r0
700034ec:	2000      	movs	r0, #0
700034ee:	0001      	movs	r1, r0
700034f0:	0000      	movs	r0, r0
700034f2:	0000      	movs	r0, r0
700034f4:	0000      	movs	r0, r0
700034f6:	3ff0      	subs	r7, #240	@ 0xf0
700034f8:	2710      	movs	r7, #16
700034fa:	0000      	movs	r0, r0
700034fc:	20f9      	movs	r0, #249	@ 0xf9
700034fe:	0001      	movs	r1, r0
70003500:	2000      	movs	r0, #0
70003502:	43c0      	mvns	r0, r0
70003504:	4770      	bx	lr
70003506:	0000      	movs	r0, r0
70003508:	4800      	ldr	r0, [pc, #0]	@ (0x7000350c)
7000350a:	4770      	bx	lr
7000350c:	b000      	add	sp, #0
7000350e:	1000      	asrs	r0, r0, #32
70003510:	b5f7      	push	{r0, r1, r2, r4, r5, r6, r7, lr}
70003512:	b084      	sub	sp, #16
70003514:	9805      	ldr	r0, [sp, #20]
70003516:	2183      	movs	r1, #131	@ 0x83
70003518:	4ff1      	ldr	r7, [pc, #964]	@ (0x700038e0)
7000351a:	0014      	movs	r4, r2
7000351c:	1e40      	subs	r0, r0, #1
7000351e:	0089      	lsls	r1, r1, #2
70003520:	2600      	movs	r6, #0
70003522:	4288      	cmp	r0, r1
70003524:	d223      	bcs.n	0x7000356e
70003526:	9805      	ldr	r0, [sp, #20]
70003528:	21ff      	movs	r1, #255	@ 0xff
7000352a:	7825      	ldrb	r5, [r4, #0]
7000352c:	31fe      	adds	r1, #254	@ 0xfe
7000352e:	1a43      	subs	r3, r0, r1
70003530:	4288      	cmp	r0, r1
70003532:	d050      	beq.n	0x700035d6
70003534:	dc38      	bgt.n	0x700035a8
70003536:	4aeb      	ldr	r2, [pc, #940]	@ (0x700038e4)
70003538:	1a81      	subs	r1, r0, r2
7000353a:	4290      	cmp	r0, r2
7000353c:	d04e      	beq.n	0x700035dc
7000353e:	dc1e      	bgt.n	0x7000357e
70003540:	2805      	cmp	r0, #5
70003542:	d078      	beq.n	0x70003636
70003544:	dc14      	bgt.n	0x70003570
70003546:	2802      	cmp	r0, #2
70003548:	d039      	beq.n	0x700035be
7000354a:	2804      	cmp	r0, #4
7000354c:	d172      	bne.n	0x70003634
7000354e:	0200      	lsls	r0, r0, #8
70003550:	6861      	ldr	r1, [r4, #4]
70003552:	1828      	adds	r0, r5, r0
70003554:	f001 ff36 	bl	0x700053c4
70003558:	42b8      	cmp	r0, r7
7000355a:	d06b      	beq.n	0x70003634
7000355c:	0002      	movs	r2, r0
7000355e:	2103      	movs	r1, #3
70003560:	0028      	movs	r0, r5
70003562:	f002 ffb9 	bl	0x700064d8
70003566:	7820      	ldrb	r0, [r4, #0]
70003568:	6861      	ldr	r1, [r4, #4]
7000356a:	f001 f8b7 	bl	0x700046dc
7000356e:	e099      	b.n	0x700036a4
70003570:	2806      	cmp	r0, #6
70003572:	d049      	beq.n	0x70003608
70003574:	38ff      	subs	r0, #255	@ 0xff
70003576:	38f7      	subs	r0, #247	@ 0xf7
70003578:	d1e8      	bne.n	0x7000354c
7000357a:	8862      	ldrh	r2, [r4, #2]
7000357c:	e0c0      	b.n	0x70003700
7000357e:	2901      	cmp	r1, #1
70003580:	d02f      	beq.n	0x700035e2
70003582:	2902      	cmp	r1, #2
70003584:	d024      	beq.n	0x700035d0
70003586:	2903      	cmp	r1, #3
70003588:	d01c      	beq.n	0x700035c4
7000358a:	2904      	cmp	r1, #4
7000358c:	d1de      	bne.n	0x7000354c
7000358e:	002a      	movs	r2, r5
70003590:	2100      	movs	r1, #0
70003592:	2001      	movs	r0, #1
70003594:	f003 eeb8 	blx	0x70007308
70003598:	4ad3      	ldr	r2, [pc, #844]	@ (0x700038e8)
7000359a:	4071      	eors	r1, r6
7000359c:	4010      	ands	r0, r2
7000359e:	4308      	orrs	r0, r1
700035a0:	d0db      	beq.n	0x7000355a
700035a2:	8862      	ldrh	r2, [r4, #2]
700035a4:	210c      	movs	r1, #12
700035a6:	e00f      	b.n	0x700035c8
700035a8:	f002 e9e6 	blx	0x70005978
700035ac:	4410      	add	r0, r2
700035ae:	1e21      	subs	r1, r4, #0
700035b0:	5b58      	ldrh	r0, [r3, r5]
700035b2:	5e44      	ldrsh	r4, [r0, r1]
700035b4:	6961      	ldr	r1, [r4, #20]
700035b6:	4466      	add	r6, ip
700035b8:	7c44      	ldrb	r4, [r0, #17]
700035ba:	4444      	add	r4, r8
700035bc:	4497      	add	pc, r2
700035be:	6862      	ldr	r2, [r4, #4]
700035c0:	2100      	movs	r1, #0
700035c2:	e001      	b.n	0x700035c8
700035c4:	7862      	ldrb	r2, [r4, #1]
700035c6:	2101      	movs	r1, #1
700035c8:	0028      	movs	r0, r5
700035ca:	f002 ff85 	bl	0x700064d8
700035ce:	e069      	b.n	0x700036a4
700035d0:	7862      	ldrb	r2, [r4, #1]
700035d2:	2102      	movs	r1, #2
700035d4:	e7f8      	b.n	0x700035c8
700035d6:	6862      	ldr	r2, [r4, #4]
700035d8:	2104      	movs	r1, #4
700035da:	e7f5      	b.n	0x700035c8
700035dc:	6862      	ldr	r2, [r4, #4]
700035de:	2105      	movs	r1, #5
700035e0:	e7f2      	b.n	0x700035c8
700035e2:	6862      	ldr	r2, [r4, #4]
700035e4:	2106      	movs	r1, #6
700035e6:	e7ef      	b.n	0x700035c8
700035e8:	6862      	ldr	r2, [r4, #4]
700035ea:	2107      	movs	r1, #7
700035ec:	e7ec      	b.n	0x700035c8
700035ee:	002a      	movs	r2, r5
700035f0:	2100      	movs	r1, #0
700035f2:	2001      	movs	r0, #1
700035f4:	f003 ee88 	blx	0x70007308
700035f8:	4abb      	ldr	r2, [pc, #748]	@ (0x700038e8)
700035fa:	4071      	eors	r1, r6
700035fc:	4010      	ands	r0, r2
700035fe:	4308      	orrs	r0, r1
70003600:	d0ab      	beq.n	0x7000355a
70003602:	8862      	ldrh	r2, [r4, #2]
70003604:	210b      	movs	r1, #11
70003606:	e7df      	b.n	0x700035c8
70003608:	002a      	movs	r2, r5
7000360a:	2100      	movs	r1, #0
7000360c:	2001      	movs	r0, #1
7000360e:	f003 ee7c 	blx	0x70007308
70003612:	4ab5      	ldr	r2, [pc, #724]	@ (0x700038e8)
70003614:	4071      	eors	r1, r6
70003616:	4010      	ands	r0, r2
70003618:	4308      	orrs	r0, r1
7000361a:	d197      	bne.n	0x7000354c
7000361c:	2003      	movs	r0, #3
7000361e:	0240      	lsls	r0, r0, #9
70003620:	6861      	ldr	r1, [r4, #4]
70003622:	1828      	adds	r0, r5, r0
70003624:	f001 fece 	bl	0x700053c4
70003628:	42b8      	cmp	r0, r7
7000362a:	d096      	beq.n	0x7000355a
7000362c:	0002      	movs	r2, r0
7000362e:	210d      	movs	r1, #13
70003630:	e7ca      	b.n	0x700035c8
70003632:	e000      	b.n	0x70003636
70003634:	e101      	b.n	0x7000383a
70003636:	466b      	mov	r3, sp
70003638:	2001      	movs	r0, #1
7000363a:	701d      	strb	r5, [r3, #0]
7000363c:	9001      	str	r0, [sp, #4]
7000363e:	7820      	ldrb	r0, [r4, #0]
70003640:	2104      	movs	r1, #4
70003642:	aa02      	add	r2, sp, #8
70003644:	7218      	strb	r0, [r3, #8]
70003646:	6860      	ldr	r0, [r4, #4]
70003648:	9003      	str	r0, [sp, #12]
7000364a:	9804      	ldr	r0, [sp, #16]
7000364c:	f7ff ff60 	bl	0x70003510
70003650:	9804      	ldr	r0, [sp, #16]
70003652:	2102      	movs	r1, #2
70003654:	466a      	mov	r2, sp
70003656:	f7ff ff5b 	bl	0x70003510
7000365a:	e023      	b.n	0x700036a4
7000365c:	6862      	ldr	r2, [r4, #4]
7000365e:	211f      	movs	r1, #31
70003660:	e7b2      	b.n	0x700035c8
70003662:	6862      	ldr	r2, [r4, #4]
70003664:	2121      	movs	r1, #33	@ 0x21
70003666:	e7af      	b.n	0x700035c8
70003668:	6862      	ldr	r2, [r4, #4]
7000366a:	2128      	movs	r1, #40	@ 0x28
7000366c:	e7ac      	b.n	0x700035c8
7000366e:	6862      	ldr	r2, [r4, #4]
70003670:	212a      	movs	r1, #42	@ 0x2a
70003672:	0028      	movs	r0, r5
70003674:	f002 ff30 	bl	0x700064d8
70003678:	6862      	ldr	r2, [r4, #4]
7000367a:	2119      	movs	r1, #25
7000367c:	e7a4      	b.n	0x700035c8
7000367e:	489b      	ldr	r0, [pc, #620]	@ (0x700038ec)
70003680:	6861      	ldr	r1, [r4, #4]
70003682:	1828      	adds	r0, r5, r0
70003684:	f001 fe9e 	bl	0x700053c4
70003688:	7821      	ldrb	r1, [r4, #0]
7000368a:	4b99      	ldr	r3, [pc, #612]	@ (0x700038f0)
7000368c:	290f      	cmp	r1, #15
7000368e:	d102      	bne.n	0x70003696
70003690:	0002      	movs	r2, r0
70003692:	2118      	movs	r1, #24
70003694:	e003      	b.n	0x7000369e
70003696:	2910      	cmp	r1, #16
70003698:	d1bf      	bne.n	0x7000361a
7000369a:	0002      	movs	r2, r0
7000369c:	2116      	movs	r1, #22
7000369e:	0018      	movs	r0, r3
700036a0:	f002 f91e 	bl	0x700058e0
700036a4:	4993      	ldr	r1, [pc, #588]	@ (0x700038f4)
700036a6:	9805      	ldr	r0, [sp, #20]
700036a8:	2502      	movs	r5, #2
700036aa:	1a43      	subs	r3, r0, r1
700036ac:	4288      	cmp	r0, r1
700036ae:	d07c      	beq.n	0x700037aa
700036b0:	dc41      	bgt.n	0x70003736
700036b2:	4a91      	ldr	r2, [pc, #580]	@ (0x700038f8)
700036b4:	1a81      	subs	r1, r0, r2
700036b6:	4290      	cmp	r0, r2
700036b8:	d06f      	beq.n	0x7000379a
700036ba:	dc2a      	bgt.n	0x70003712
700036bc:	4a8f      	ldr	r2, [pc, #572]	@ (0x700038fc)
700036be:	1a81      	subs	r1, r0, r2
700036c0:	4290      	cmp	r0, r2
700036c2:	d056      	beq.n	0x70003772
700036c4:	dc1e      	bgt.n	0x70003704
700036c6:	498e      	ldr	r1, [pc, #568]	@ (0x70003900)
700036c8:	1a40      	subs	r0, r0, r1
700036ca:	d05e      	beq.n	0x7000378a
700036cc:	2805      	cmp	r0, #5
700036ce:	d1a4      	bne.n	0x7000361a
700036d0:	2039      	movs	r0, #57	@ 0x39
700036d2:	f001 f851 	bl	0x70004778
700036d6:	8060      	strh	r0, [r4, #2]
700036d8:	e0fb      	b.n	0x700038d2
700036da:	002a      	movs	r2, r5
700036dc:	2100      	movs	r1, #0
700036de:	2001      	movs	r0, #1
700036e0:	f003 ee12 	blx	0x70007308
700036e4:	4a80      	ldr	r2, [pc, #512]	@ (0x700038e8)
700036e6:	4071      	eors	r1, r6
700036e8:	4010      	ands	r0, r2
700036ea:	4308      	orrs	r0, r1
700036ec:	d088      	beq.n	0x70003600
700036ee:	2083      	movs	r0, #131	@ 0x83
700036f0:	0280      	lsls	r0, r0, #10
700036f2:	6861      	ldr	r1, [r4, #4]
700036f4:	1828      	adds	r0, r5, r0
700036f6:	f001 fe65 	bl	0x700053c4
700036fa:	42b8      	cmp	r0, r7
700036fc:	d095      	beq.n	0x7000362a
700036fe:	0002      	movs	r2, r0
70003700:	210a      	movs	r1, #10
70003702:	e761      	b.n	0x700035c8
70003704:	2903      	cmp	r1, #3
70003706:	d049      	beq.n	0x7000379c
70003708:	2904      	cmp	r1, #4
7000370a:	d186      	bne.n	0x7000361a
7000370c:	7861      	ldrb	r1, [r4, #1]
7000370e:	203d      	movs	r0, #61	@ 0x3d
70003710:	e046      	b.n	0x700037a0
70003712:	4a7b      	ldr	r2, [pc, #492]	@ (0x70003900)
70003714:	1c92      	adds	r2, r2, #2
70003716:	1a88      	subs	r0, r1, r2
70003718:	4291      	cmp	r1, r2
7000371a:	d086      	beq.n	0x7000362a
7000371c:	dc04      	bgt.n	0x70003728
7000371e:	2901      	cmp	r1, #1
70003720:	d1ba      	bne.n	0x70003698
70003722:	7821      	ldrb	r1, [r4, #0]
70003724:	2037      	movs	r0, #55	@ 0x37
70003726:	e0c0      	b.n	0x700038aa
70003728:	2801      	cmp	r0, #1
7000372a:	d03c      	beq.n	0x700037a6
7000372c:	2802      	cmp	r0, #2
7000372e:	d1b3      	bne.n	0x70003698
70003730:	2001      	movs	r0, #1
70003732:	6020      	str	r0, [r4, #0]
70003734:	e0cd      	b.n	0x700038d2
70003736:	4873      	ldr	r0, [pc, #460]	@ (0x70003904)
70003738:	2b0a      	cmp	r3, #10
7000373a:	d06c      	beq.n	0x70003816
7000373c:	dc04      	bgt.n	0x70003748
7000373e:	f002 e91c 	blx	0x70005978
70003742:	cb03      	ldmia	r3!, {r0, r1}
70003744:	4b45      	ldr	r3, [pc, #276]	@ (0x7000385c)
70003746:	00cb      	lsls	r3, r1, #3
70003748:	2b0b      	cmp	r3, #11
7000374a:	d073      	beq.n	0x70003834
7000374c:	207d      	movs	r0, #125	@ 0x7d
7000374e:	00c0      	lsls	r0, r0, #3
70003750:	1a18      	subs	r0, r3, r0
70003752:	d070      	beq.n	0x70003836
70003754:	496c      	ldr	r1, [pc, #432]	@ (0x70003908)
70003756:	4a6d      	ldr	r2, [pc, #436]	@ (0x7000390c)
70003758:	1840      	adds	r0, r0, r1
7000375a:	496d      	ldr	r1, [pc, #436]	@ (0x70003910)
7000375c:	d06c      	beq.n	0x70003838
7000375e:	2801      	cmp	r0, #1
70003760:	d19a      	bne.n	0x70003698
70003762:	6820      	ldr	r0, [r4, #0]
70003764:	1882      	adds	r2, r0, r2
70003766:	428a      	cmp	r2, r1
70003768:	d867      	bhi.n	0x7000383a
7000376a:	1840      	adds	r0, r0, r1
7000376c:	8800      	ldrh	r0, [r0, #0]
7000376e:	80a0      	strh	r0, [r4, #4]
70003770:	e0af      	b.n	0x700038d2
70003772:	2102      	movs	r1, #2
70003774:	5e61      	ldrsh	r1, [r4, r1]
70003776:	4867      	ldr	r0, [pc, #412]	@ (0x70003914)
70003778:	f001 fe24 	bl	0x700053c4
7000377c:	42b8      	cmp	r0, r7
7000377e:	d0b5      	beq.n	0x700036ec
70003780:	0002      	movs	r2, r0
70003782:	4860      	ldr	r0, [pc, #384]	@ (0x70003904)
70003784:	2139      	movs	r1, #57	@ 0x39
70003786:	30e0      	adds	r0, #224	@ 0xe0
70003788:	e09a      	b.n	0x700038c0
7000378a:	7a20      	ldrb	r0, [r4, #8]
7000378c:	2800      	cmp	r0, #0
7000378e:	d1a3      	bne.n	0x700036d8
70003790:	6860      	ldr	r0, [r4, #4]
70003792:	f000 ffd9 	bl	0x70004748
70003796:	e09c      	b.n	0x700038d2
70003798:	e007      	b.n	0x700037aa
7000379a:	e084      	b.n	0x700038a6
7000379c:	6861      	ldr	r1, [r4, #4]
7000379e:	203e      	movs	r0, #62	@ 0x3e
700037a0:	f001 f808 	bl	0x700047b4
700037a4:	e095      	b.n	0x700038d2
700037a6:	2005      	movs	r0, #5
700037a8:	e7c3      	b.n	0x70003732
700037aa:	2003      	movs	r0, #3
700037ac:	f001 f80c 	bl	0x700047c8
700037b0:	2801      	cmp	r0, #1
700037b2:	d105      	bne.n	0x700037c0
700037b4:	4953      	ldr	r1, [pc, #332]	@ (0x70003904)
700037b6:	3920      	subs	r1, #32
700037b8:	8a88      	ldrh	r0, [r1, #20]
700037ba:	43a8      	bics	r0, r5
700037bc:	4328      	orrs	r0, r5
700037be:	8288      	strh	r0, [r1, #20]
700037c0:	7820      	ldrb	r0, [r4, #0]
700037c2:	2807      	cmp	r0, #7
700037c4:	d288      	bcs.n	0x700036d8
700037c6:	6862      	ldr	r2, [r4, #4]
700037c8:	2110      	movs	r1, #16
700037ca:	e021      	b.n	0x70003810
700037cc:	7820      	ldrb	r0, [r4, #0]
700037ce:	2807      	cmp	r0, #7
700037d0:	d27f      	bcs.n	0x700038d2
700037d2:	7862      	ldrb	r2, [r4, #1]
700037d4:	2111      	movs	r1, #17
700037d6:	e01b      	b.n	0x70003810
700037d8:	7821      	ldrb	r1, [r4, #0]
700037da:	466b      	mov	r3, sp
700037dc:	484e      	ldr	r0, [pc, #312]	@ (0x70003918)
700037de:	7219      	strb	r1, [r3, #8]
700037e0:	7861      	ldrb	r1, [r4, #1]
700037e2:	2918      	cmp	r1, #24
700037e4:	d904      	bls.n	0x700037f0
700037e6:	2101      	movs	r1, #1
700037e8:	9103      	str	r1, [sp, #12]
700037ea:	7861      	ldrb	r1, [r4, #1]
700037ec:	0849      	lsrs	r1, r1, #1
700037ee:	e001      	b.n	0x700037f4
700037f0:	9603      	str	r6, [sp, #12]
700037f2:	7861      	ldrb	r1, [r4, #1]
700037f4:	f001 fde6 	bl	0x700053c4
700037f8:	493e      	ldr	r1, [pc, #248]	@ (0x700038f4)
700037fa:	0005      	movs	r5, r0
700037fc:	9804      	ldr	r0, [sp, #16]
700037fe:	310a      	adds	r1, #10
70003800:	aa02      	add	r2, sp, #8
70003802:	f7ff fe85 	bl	0x70003510
70003806:	42bd      	cmp	r5, r7
70003808:	d063      	beq.n	0x700038d2
7000380a:	7820      	ldrb	r0, [r4, #0]
7000380c:	002a      	movs	r2, r5
7000380e:	2112      	movs	r1, #18
70003810:	f000 ffba 	bl	0x70004788
70003814:	e05d      	b.n	0x700038d2
70003816:	7821      	ldrb	r1, [r4, #0]
70003818:	23ff      	movs	r3, #255	@ 0xff
7000381a:	3301      	adds	r3, #1
7000381c:	2901      	cmp	r1, #1
7000381e:	d00d      	beq.n	0x7000383c
70003820:	2902      	cmp	r1, #2
70003822:	d115      	bne.n	0x70003850
70003824:	8801      	ldrh	r1, [r0, #0]
70003826:	6862      	ldr	r2, [r4, #4]
70003828:	07d2      	lsls	r2, r2, #31
7000382a:	4399      	bics	r1, r3
7000382c:	0dd2      	lsrs	r2, r2, #23
7000382e:	430a      	orrs	r2, r1
70003830:	8002      	strh	r2, [r0, #0]
70003832:	e04e      	b.n	0x700038d2
70003834:	e013      	b.n	0x7000385e
70003836:	e03b      	b.n	0x700038b0
70003838:	e045      	b.n	0x700038c6
7000383a:	e04d      	b.n	0x700038d8
7000383c:	4a31      	ldr	r2, [pc, #196]	@ (0x70003904)
7000383e:	3a20      	subs	r2, #32
70003840:	8a10      	ldrh	r0, [r2, #16]
70003842:	6861      	ldr	r1, [r4, #4]
70003844:	07c9      	lsls	r1, r1, #31
70003846:	4398      	bics	r0, r3
70003848:	0dc9      	lsrs	r1, r1, #23
7000384a:	4301      	orrs	r1, r0
7000384c:	8211      	strh	r1, [r2, #16]
7000384e:	e040      	b.n	0x700038d2
70003850:	2200      	movs	r2, #0
70003852:	9201      	str	r2, [sp, #4]
70003854:	9202      	str	r2, [sp, #8]
70003856:	9203      	str	r2, [sp, #12]
70003858:	9200      	str	r2, [sp, #0]
7000385a:	4a30      	ldr	r2, [pc, #192]	@ (0x7000391c)
7000385c:	e01d      	b.n	0x7000389a
7000385e:	7821      	ldrb	r1, [r4, #0]
70003860:	2901      	cmp	r1, #1
70003862:	d009      	beq.n	0x70003878
70003864:	2902      	cmp	r1, #2
70003866:	d111      	bne.n	0x7000388c
70003868:	8881      	ldrh	r1, [r0, #4]
7000386a:	6862      	ldr	r2, [r4, #4]
7000386c:	07d2      	lsls	r2, r2, #31
7000386e:	43a9      	bics	r1, r5
70003870:	0f92      	lsrs	r2, r2, #30
70003872:	430a      	orrs	r2, r1
70003874:	8082      	strh	r2, [r0, #4]
70003876:	e02c      	b.n	0x700038d2
70003878:	4a22      	ldr	r2, [pc, #136]	@ (0x70003904)
7000387a:	3a20      	subs	r2, #32
7000387c:	8a90      	ldrh	r0, [r2, #20]
7000387e:	6861      	ldr	r1, [r4, #4]
70003880:	07c9      	lsls	r1, r1, #31
70003882:	43a8      	bics	r0, r5
70003884:	0f89      	lsrs	r1, r1, #30
70003886:	4301      	orrs	r1, r0
70003888:	8291      	strh	r1, [r2, #20]
7000388a:	e022      	b.n	0x700038d2
7000388c:	2200      	movs	r2, #0
7000388e:	9201      	str	r2, [sp, #4]
70003890:	9202      	str	r2, [sp, #8]
70003892:	9203      	str	r2, [sp, #12]
70003894:	9200      	str	r2, [sp, #0]
70003896:	2231      	movs	r2, #49	@ 0x31
70003898:	0152      	lsls	r2, r2, #5
7000389a:	2300      	movs	r3, #0
7000389c:	a120      	add	r1, pc, #128	@ (adr r1, 0x70003920)
7000389e:	a029      	add	r0, pc, #164	@ (adr r0, 0x70003944)
700038a0:	f002 f882 	bl	0x700059a8
700038a4:	e015      	b.n	0x700038d2
700038a6:	6821      	ldr	r1, [r4, #0]
700038a8:	2038      	movs	r0, #56	@ 0x38
700038aa:	f000 ff79 	bl	0x700047a0
700038ae:	e010      	b.n	0x700038d2
700038b0:	6821      	ldr	r1, [r4, #0]
700038b2:	4825      	ldr	r0, [pc, #148]	@ (0x70003948)
700038b4:	2900      	cmp	r1, #0
700038b6:	d001      	beq.n	0x700038bc
700038b8:	2207      	movs	r2, #7
700038ba:	e000      	b.n	0x700038be
700038bc:	2200      	movs	r2, #0
700038be:	210f      	movs	r1, #15
700038c0:	f002 f80e 	bl	0x700058e0
700038c4:	e005      	b.n	0x700038d2
700038c6:	6820      	ldr	r0, [r4, #0]
700038c8:	1880      	adds	r0, r0, r2
700038ca:	4288      	cmp	r0, r1
700038cc:	d804      	bhi.n	0x700038d8
700038ce:	88a1      	ldrh	r1, [r4, #4]
700038d0:	8001      	strh	r1, [r0, #0]
700038d2:	2000      	movs	r0, #0
700038d4:	b007      	add	sp, #28
700038d6:	bdf0      	pop	{r4, r5, r6, r7, pc}
700038d8:	2002      	movs	r0, #2
700038da:	43c0      	mvns	r0, r0
700038dc:	e7fa      	b.n	0x700038d4
700038de:	0000      	movs	r0, r0
700038e0:	ffff 0000 	vaddl.u<illegal width 64>	q8, d15, d0
700038e4:	01f8      	lsls	r0, r7, #7
700038e6:	0000      	movs	r0, r0
700038e8:	ffff f7ff 	vqshl.u64	<illegal reg q15.5>, <illegal reg q15.5>, #63	@ 0x3f
700038ec:	0500      	lsls	r0, r0, #20
700038ee:	0002      	movs	r2, r0
700038f0:	0050      	lsls	r0, r2, #1
700038f2:	a070      	add	r0, pc, #448	@ (adr r0, 0x70003ab4)
700038f4:	1b58      	subs	r0, r3, r5
700038f6:	0000      	movs	r0, r0
700038f8:	0bb8      	lsrs	r0, r7, #14
700038fa:	0000      	movs	r0, r0
700038fc:	07d6      	lsls	r6, r2, #31
700038fe:	0000      	movs	r0, r0
70003900:	07d0      	lsls	r0, r2, #31
70003902:	0000      	movs	r0, r0
70003904:	0c20      	lsrs	r0, r4, #16
70003906:	a070      	add	r0, pc, #448	@ (adr r0, 0x70003ac8)
70003908:	fc13 ffff 	ldc2	15, cr15, [r3], {255}	@ 0xff
7000390c:	0000      	movs	r0, r0
7000390e:	a070      	add	r0, pc, #448	@ (adr r0, 0x70003ad0)
70003910:	1000      	asrs	r0, r0, #32
70003912:	a070      	add	r0, pc, #448	@ (adr r0, 0x70003ad4)
70003914:	d600      	bvs.n	0x70003918
70003916:	0007      	movs	r7, r0
70003918:	5aff      	ldrh	r7, [r7, r3]
7000391a:	001b      	movs	r3, r3
7000391c:	0602      	lsls	r2, r0, #24
7000391e:	0000      	movs	r0, r0
70003920:	6168      	str	r0, [r5, #20]
70003922:	5c6c      	ldrb	r4, [r5, r1]
70003924:	6570      	str	r0, [r6, #84]	@ 0x54
70003926:	6972      	ldr	r2, [r6, #20]
70003928:	6870      	ldr	r0, [r6, #4]
7000392a:	7265      	strb	r5, [r4, #9]
7000392c:	6c61      	ldr	r1, [r4, #68]	@ 0x44
7000392e:	735c      	strb	r4, [r3, #13]
70003930:	6372      	str	r2, [r6, #52]	@ 0x34
70003932:	645c      	str	r4, [r3, #68]	@ 0x44
70003934:	6c63      	ldr	r3, [r4, #68]	@ 0x44
70003936:	705f      	strb	r7, [r3, #1]
70003938:	756d      	strb	r5, [r5, #21]
7000393a:	3236      	adds	r2, #54	@ 0x36
7000393c:	3136      	adds	r1, #54	@ 0x36
7000393e:	632e      	str	r6, [r5, #48]	@ 0x30
70003940:	0000      	movs	r0, r0
70003942:	0000      	movs	r0, r0
70003944:	0030      	movs	r0, r6
70003946:	0000      	movs	r0, r0
70003948:	0a00      	lsrs	r0, r0, #8
7000394a:	a070      	add	r0, pc, #448	@ (adr r0, 0x70003b0c)
7000394c:	b530      	push	{r4, r5, lr}
7000394e:	4847      	ldr	r0, [pc, #284]	@ (0x70003a6c)
70003950:	8800      	ldrh	r0, [r0, #0]
70003952:	4946      	ldr	r1, [pc, #280]	@ (0x70003a6c)
70003954:	0840      	lsrs	r0, r0, #1
70003956:	0040      	lsls	r0, r0, #1
70003958:	8008      	strh	r0, [r1, #0]
7000395a:	4944      	ldr	r1, [pc, #272]	@ (0x70003a6c)
7000395c:	31e0      	adds	r1, #224	@ 0xe0
7000395e:	8a08      	ldrh	r0, [r1, #16]
70003960:	2301      	movs	r3, #1
70003962:	02db      	lsls	r3, r3, #11
70003964:	001a      	movs	r2, r3
70003966:	4398      	bics	r0, r3
70003968:	4310      	orrs	r0, r2
7000396a:	8208      	strh	r0, [r1, #16]
7000396c:	4940      	ldr	r1, [pc, #256]	@ (0x70003a70)
7000396e:	8808      	ldrh	r0, [r1, #0]
70003970:	4398      	bics	r0, r3
70003972:	4310      	orrs	r0, r2
70003974:	8008      	strh	r0, [r1, #0]
70003976:	483e      	ldr	r0, [pc, #248]	@ (0x70003a70)
70003978:	3060      	adds	r0, #96	@ 0x60
7000397a:	8b81      	ldrh	r1, [r0, #28]
7000397c:	23ff      	movs	r3, #255	@ 0xff
7000397e:	33f1      	adds	r3, #241	@ 0xf1
70003980:	22ff      	movs	r2, #255	@ 0xff
70003982:	3221      	adds	r2, #33	@ 0x21
70003984:	4399      	bics	r1, r3
70003986:	4311      	orrs	r1, r2
70003988:	8381      	strh	r1, [r0, #28]
7000398a:	8b82      	ldrh	r2, [r0, #28]
7000398c:	2108      	movs	r1, #8
7000398e:	438a      	bics	r2, r1
70003990:	430a      	orrs	r2, r1
70003992:	8382      	strh	r2, [r0, #28]
70003994:	4837      	ldr	r0, [pc, #220]	@ (0x70003a74)
70003996:	8802      	ldrh	r2, [r0, #0]
70003998:	230b      	movs	r3, #11
7000399a:	031b      	lsls	r3, r3, #12
7000399c:	0512      	lsls	r2, r2, #20
7000399e:	0d12      	lsrs	r2, r2, #20
700039a0:	431a      	orrs	r2, r3
700039a2:	8002      	strh	r2, [r0, #0]
700039a4:	8802      	ldrh	r2, [r0, #0]
700039a6:	2301      	movs	r3, #1
700039a8:	439a      	bics	r2, r3
700039aa:	431a      	orrs	r2, r3
700039ac:	8002      	strh	r2, [r0, #0]
700039ae:	8882      	ldrh	r2, [r0, #4]
700039b0:	2430      	movs	r4, #48	@ 0x30
700039b2:	2320      	movs	r3, #32
700039b4:	43a2      	bics	r2, r4
700039b6:	431a      	orrs	r2, r3
700039b8:	8082      	strh	r2, [r0, #4]
700039ba:	8a02      	ldrh	r2, [r0, #16]
700039bc:	2407      	movs	r4, #7
700039be:	0224      	lsls	r4, r4, #8
700039c0:	43a2      	bics	r2, r4
700039c2:	8202      	strh	r2, [r0, #16]
700039c4:	8a82      	ldrh	r2, [r0, #20]
700039c6:	024c      	lsls	r4, r1, #9
700039c8:	43a2      	bics	r2, r4
700039ca:	4322      	orrs	r2, r4
700039cc:	8282      	strh	r2, [r0, #20]
700039ce:	8a82      	ldrh	r2, [r0, #20]
700039d0:	2570      	movs	r5, #112	@ 0x70
700039d2:	2410      	movs	r4, #16
700039d4:	43aa      	bics	r2, r5
700039d6:	4322      	orrs	r2, r4
700039d8:	8282      	strh	r2, [r0, #20]
700039da:	4826      	ldr	r0, [pc, #152]	@ (0x70003a74)
700039dc:	3020      	adds	r0, #32
700039de:	8882      	ldrh	r2, [r0, #4]
700039e0:	2503      	movs	r5, #3
700039e2:	0912      	lsrs	r2, r2, #4
700039e4:	0112      	lsls	r2, r2, #4
700039e6:	432a      	orrs	r2, r5
700039e8:	8082      	strh	r2, [r0, #4]
700039ea:	8905      	ldrh	r5, [r0, #8]
700039ec:	2240      	movs	r2, #64	@ 0x40
700039ee:	4395      	bics	r5, r2
700039f0:	8105      	strh	r5, [r0, #8]
700039f2:	8905      	ldrh	r5, [r0, #8]
700039f4:	439d      	bics	r5, r3
700039f6:	8105      	strh	r5, [r0, #8]
700039f8:	8903      	ldrh	r3, [r0, #8]
700039fa:	43a3      	bics	r3, r4
700039fc:	8103      	strh	r3, [r0, #8]
700039fe:	8983      	ldrh	r3, [r0, #12]
70003a00:	020d      	lsls	r5, r1, #8
70003a02:	020c      	lsls	r4, r1, #8
70003a04:	43ab      	bics	r3, r5
70003a06:	4323      	orrs	r3, r4
70003a08:	8183      	strh	r3, [r0, #12]
70003a0a:	8983      	ldrh	r3, [r0, #12]
70003a0c:	01cc      	lsls	r4, r1, #7
70003a0e:	43a3      	bics	r3, r4
70003a10:	4323      	orrs	r3, r4
70003a12:	8183      	strh	r3, [r0, #12]
70003a14:	8a03      	ldrh	r3, [r0, #16]
70003a16:	2480      	movs	r4, #128	@ 0x80
70003a18:	43a3      	bics	r3, r4
70003a1a:	4323      	orrs	r3, r4
70003a1c:	8203      	strh	r3, [r0, #16]
70003a1e:	8a03      	ldrh	r3, [r0, #16]
70003a20:	4393      	bics	r3, r2
70003a22:	4313      	orrs	r3, r2
70003a24:	8203      	strh	r3, [r0, #16]
70003a26:	8a02      	ldrh	r2, [r0, #16]
70003a28:	2304      	movs	r3, #4
70003a2a:	439a      	bics	r2, r3
70003a2c:	431a      	orrs	r2, r3
70003a2e:	8202      	strh	r2, [r0, #16]
70003a30:	4810      	ldr	r0, [pc, #64]	@ (0x70003a74)
70003a32:	3080      	adds	r0, #128	@ 0x80
70003a34:	8802      	ldrh	r2, [r0, #0]
70003a36:	438a      	bics	r2, r1
70003a38:	430a      	orrs	r2, r1
70003a3a:	8002      	strh	r2, [r0, #0]
70003a3c:	8882      	ldrh	r2, [r0, #4]
70003a3e:	438a      	bics	r2, r1
70003a40:	430a      	orrs	r2, r1
70003a42:	8082      	strh	r2, [r0, #4]
70003a44:	480c      	ldr	r0, [pc, #48]	@ (0x70003a78)
70003a46:	8981      	ldrh	r1, [r0, #12]
70003a48:	031a      	lsls	r2, r3, #12
70003a4a:	4391      	bics	r1, r2
70003a4c:	4311      	orrs	r1, r2
70003a4e:	8181      	strh	r1, [r0, #12]
70003a50:	8981      	ldrh	r1, [r0, #12]
70003a52:	10d3      	asrs	r3, r2, #3
70003a54:	10d2      	asrs	r2, r2, #3
70003a56:	4399      	bics	r1, r3
70003a58:	4311      	orrs	r1, r2
70003a5a:	8181      	strh	r1, [r0, #12]
70003a5c:	8b01      	ldrh	r1, [r0, #24]
70003a5e:	230f      	movs	r3, #15
70003a60:	021b      	lsls	r3, r3, #8
70003a62:	4399      	bics	r1, r3
70003a64:	4311      	orrs	r1, r2
70003a66:	8301      	strh	r1, [r0, #24]
70003a68:	bd30      	pop	{r4, r5, pc}
70003a6a:	0000      	movs	r0, r0
70003a6c:	00c0      	lsls	r0, r0, #3
70003a6e:	a070      	add	r0, pc, #448	@ (adr r0, 0x70003c30)
70003a70:	01c0      	lsls	r0, r0, #7
70003a72:	a070      	add	r0, pc, #448	@ (adr r0, 0x70003c34)
70003a74:	0a00      	lsrs	r0, r0, #8
70003a76:	a070      	add	r0, pc, #448	@ (adr r0, 0x70003c38)
70003a78:	0d00      	lsrs	r0, r0, #20
70003a7a:	a070      	add	r0, pc, #448	@ (adr r0, 0x70003c3c)
70003a7c:	4800      	ldr	r0, [pc, #0]	@ (0x70003a80)
70003a7e:	4770      	bx	lr
70003a80:	8b9c      	ldrh	r4, [r3, #28]
70003a82:	1000      	asrs	r0, r0, #32
70003a84:	b5f8      	push	{r3, r4, r5, r6, r7, lr}
70003a86:	481a      	ldr	r0, [pc, #104]	@ (0x70003af0)
70003a88:	2100      	movs	r1, #0
70003a8a:	f000 f91f 	bl	0x70003ccc
70003a8e:	0006      	movs	r6, r0
70003a90:	4917      	ldr	r1, [pc, #92]	@ (0x70003af0)
70003a92:	2000      	movs	r0, #0
70003a94:	9000      	str	r0, [sp, #0]
70003a96:	31b8      	adds	r1, #184	@ 0xb8
70003a98:	0030      	movs	r0, r6
70003a9a:	466a      	mov	r2, sp
70003a9c:	f001 f902 	bl	0x70004ca4
70003aa0:	204b      	movs	r0, #75	@ 0x4b
70003aa2:	0100      	lsls	r0, r0, #4
70003aa4:	466b      	mov	r3, sp
70003aa6:	8058      	strh	r0, [r3, #2]
70003aa8:	4912      	ldr	r1, [pc, #72]	@ (0x70003af4)
70003aaa:	0030      	movs	r0, r6
70003aac:	466a      	mov	r2, sp
70003aae:	f001 f8f9 	bl	0x70004ca4
70003ab2:	4911      	ldr	r1, [pc, #68]	@ (0x70003af8)
70003ab4:	0030      	movs	r0, r6
70003ab6:	466a      	mov	r2, sp
70003ab8:	f001 f8f4 	bl	0x70004ca4
70003abc:	4d0e      	ldr	r5, [pc, #56]	@ (0x70003af8)
70003abe:	2001      	movs	r0, #1
70003ac0:	466b      	mov	r3, sp
70003ac2:	7018      	strb	r0, [r3, #0]
70003ac4:	2430      	movs	r4, #48	@ 0x30
70003ac6:	1c6d      	adds	r5, r5, #1
70003ac8:	0029      	movs	r1, r5
70003aca:	0030      	movs	r0, r6
70003acc:	466a      	mov	r2, sp
70003ace:	705c      	strb	r4, [r3, #1]
70003ad0:	f001 f8e8 	bl	0x70004ca4
70003ad4:	2002      	movs	r0, #2
70003ad6:	466b      	mov	r3, sp
70003ad8:	7018      	strb	r0, [r3, #0]
70003ada:	0029      	movs	r1, r5
70003adc:	0030      	movs	r0, r6
70003ade:	466a      	mov	r2, sp
70003ae0:	705c      	strb	r4, [r3, #1]
70003ae2:	f001 f8df 	bl	0x70004ca4
70003ae6:	0030      	movs	r0, r6
70003ae8:	f000 f8ee 	bl	0x70003cc8
70003aec:	bdf8      	pop	{r3, r4, r5, r6, r7, pc}
70003aee:	0000      	movs	r0, r0
70003af0:	0b01      	lsrs	r1, r0, #12
70003af2:	0000      	movs	r0, r0
70003af4:	07d6      	lsls	r6, r2, #31
70003af6:	0000      	movs	r0, r0
70003af8:	1b59      	subs	r1, r3, r5
70003afa:	0000      	movs	r0, r0
70003afc:	b5f1      	push	{r0, r4, r5, r6, r7, lr}
70003afe:	2000      	movs	r0, #0
70003b00:	43c0      	mvns	r0, r0
70003b02:	b084      	sub	sp, #16
70003b04:	9001      	str	r0, [sp, #4]
70003b06:	9002      	str	r0, [sp, #8]
70003b08:	9003      	str	r0, [sp, #12]
70003b0a:	f000 fcdd 	bl	0x700044c8
70003b0e:	f000 fccb 	bl	0x700044a8
70003b12:	4d4d      	ldr	r5, [pc, #308]	@ (0x70003c48)
70003b14:	2400      	movs	r4, #0
70003b16:	2200      	movs	r2, #0
70003b18:	5d28      	ldrb	r0, [r5, r4]
70003b1a:	2104      	movs	r1, #4
70003b1c:	0013      	movs	r3, r2
70003b1e:	f001 fcb5 	bl	0x7000548c
70003b22:	1c64      	adds	r4, r4, #1
70003b24:	2c05      	cmp	r4, #5
70003b26:	d3f6      	bcc.n	0x70003b16
70003b28:	4e48      	ldr	r6, [pc, #288]	@ (0x70003c4c)
70003b2a:	2400      	movs	r4, #0
70003b2c:	5d28      	ldrb	r0, [r5, r4]
70003b2e:	28ff      	cmp	r0, #255	@ 0xff
70003b30:	d022      	beq.n	0x70003b78
70003b32:	0020      	movs	r0, r4
70003b34:	f001 ff50 	bl	0x700059d8
70003b38:	0020      	movs	r0, r4
70003b3a:	a901      	add	r1, sp, #4
70003b3c:	f000 fe50 	bl	0x700047e0
70003b40:	2700      	movs	r7, #0
70003b42:	5de8      	ldrb	r0, [r5, r7]
70003b44:	2201      	movs	r2, #1
70003b46:	2104      	movs	r1, #4
70003b48:	2300      	movs	r3, #0
70003b4a:	f001 fc9f 	bl	0x7000548c
70003b4e:	1c7f      	adds	r7, r7, #1
70003b50:	2f05      	cmp	r7, #5
70003b52:	d3f6      	bcc.n	0x70003b42
70003b54:	493e      	ldr	r1, [pc, #248]	@ (0x70003c50)
70003b56:	68b0      	ldr	r0, [r6, #8]
70003b58:	68b3      	ldr	r3, [r6, #8]
70003b5a:	4298      	cmp	r0, r3
70003b5c:	d101      	bne.n	0x70003b62
70003b5e:	1e49      	subs	r1, r1, #1
70003b60:	e008      	b.n	0x70003b74
70003b62:	1a1a      	subs	r2, r3, r0
70003b64:	4283      	cmp	r3, r0
70003b66:	d200      	bcs.n	0x70003b6a
70003b68:	1e52      	subs	r2, r2, #1
70003b6a:	4b3a      	ldr	r3, [pc, #232]	@ (0x70003c54)
70003b6c:	435a      	muls	r2, r3
70003b6e:	0a92      	lsrs	r2, r2, #10
70003b70:	2aa0      	cmp	r2, #160	@ 0xa0
70003b72:	d201      	bcs.n	0x70003b78
70003b74:	2900      	cmp	r1, #0
70003b76:	d1ef      	bne.n	0x70003b58
70003b78:	1c64      	adds	r4, r4, #1
70003b7a:	2c05      	cmp	r4, #5
70003b7c:	d3d6      	bcc.n	0x70003b2c
70003b7e:	2400      	movs	r4, #0
70003b80:	2200      	movs	r2, #0
70003b82:	5d28      	ldrb	r0, [r5, r4]
70003b84:	2104      	movs	r1, #4
70003b86:	0013      	movs	r3, r2
70003b88:	f001 fc80 	bl	0x7000548c
70003b8c:	1c64      	adds	r4, r4, #1
70003b8e:	2c05      	cmp	r4, #5
70003b90:	d3f6      	bcc.n	0x70003b80
70003b92:	492f      	ldr	r1, [pc, #188]	@ (0x70003c50)
70003b94:	68b2      	ldr	r2, [r6, #8]
70003b96:	68b0      	ldr	r0, [r6, #8]
70003b98:	4282      	cmp	r2, r0
70003b9a:	d101      	bne.n	0x70003ba0
70003b9c:	1e49      	subs	r1, r1, #1
70003b9e:	e008      	b.n	0x70003bb2
70003ba0:	1a84      	subs	r4, r0, r2
70003ba2:	4290      	cmp	r0, r2
70003ba4:	d200      	bcs.n	0x70003ba8
70003ba6:	1e64      	subs	r4, r4, #1
70003ba8:	482a      	ldr	r0, [pc, #168]	@ (0x70003c54)
70003baa:	4360      	muls	r0, r4
70003bac:	0a80      	lsrs	r0, r0, #10
70003bae:	281e      	cmp	r0, #30
70003bb0:	d201      	bcs.n	0x70003bb6
70003bb2:	2900      	cmp	r1, #0
70003bb4:	d1ef      	bne.n	0x70003b96
70003bb6:	f000 fc87 	bl	0x700044c8
70003bba:	f000 fca1 	bl	0x70004500
70003bbe:	4d22      	ldr	r5, [pc, #136]	@ (0x70003c48)
70003bc0:	2400      	movs	r4, #0
70003bc2:	1d6d      	adds	r5, r5, #5
70003bc4:	5d28      	ldrb	r0, [r5, r4]
70003bc6:	28ff      	cmp	r0, #255	@ 0xff
70003bc8:	d02a      	beq.n	0x70003c20
70003bca:	2001      	movs	r0, #1
70003bcc:	491e      	ldr	r1, [pc, #120]	@ (0x70003c48)
70003bce:	40a0      	lsls	r0, r4
70003bd0:	1f09      	subs	r1, r1, #4
70003bd2:	6809      	ldr	r1, [r1, #0]
70003bd4:	4208      	tst	r0, r1
70003bd6:	d023      	beq.n	0x70003c20
70003bd8:	0020      	movs	r0, r4
70003bda:	f000 fe65 	bl	0x700048a8
70003bde:	9a04      	ldr	r2, [sp, #16]
70003be0:	0020      	movs	r0, r4
70003be2:	a901      	add	r1, sp, #4
70003be4:	f000 fe96 	bl	0x70004914
70003be8:	2700      	movs	r7, #0
70003bea:	5de8      	ldrb	r0, [r5, r7]
70003bec:	2201      	movs	r2, #1
70003bee:	2104      	movs	r1, #4
70003bf0:	2300      	movs	r3, #0
70003bf2:	f001 fc4b 	bl	0x7000548c
70003bf6:	1c7f      	adds	r7, r7, #1
70003bf8:	2f05      	cmp	r7, #5
70003bfa:	d3f6      	bcc.n	0x70003bea
70003bfc:	4a14      	ldr	r2, [pc, #80]	@ (0x70003c50)
70003bfe:	68b1      	ldr	r1, [r6, #8]
70003c00:	68b0      	ldr	r0, [r6, #8]
70003c02:	4281      	cmp	r1, r0
70003c04:	d101      	bne.n	0x70003c0a
70003c06:	1e52      	subs	r2, r2, #1
70003c08:	e008      	b.n	0x70003c1c
70003c0a:	1a47      	subs	r7, r0, r1
70003c0c:	4288      	cmp	r0, r1
70003c0e:	d200      	bcs.n	0x70003c12
70003c10:	1e7f      	subs	r7, r7, #1
70003c12:	4810      	ldr	r0, [pc, #64]	@ (0x70003c54)
70003c14:	4378      	muls	r0, r7
70003c16:	0a80      	lsrs	r0, r0, #10
70003c18:	280f      	cmp	r0, #15
70003c1a:	d201      	bcs.n	0x70003c20
70003c1c:	2a00      	cmp	r2, #0
70003c1e:	d1ef      	bne.n	0x70003c00
70003c20:	1c64      	adds	r4, r4, #1
70003c22:	2c05      	cmp	r4, #5
70003c24:	d3ce      	bcc.n	0x70003bc4
70003c26:	2400      	movs	r4, #0
70003c28:	2200      	movs	r2, #0
70003c2a:	5d28      	ldrb	r0, [r5, r4]
70003c2c:	2104      	movs	r1, #4
70003c2e:	0013      	movs	r3, r2
70003c30:	f001 fc2c 	bl	0x7000548c
70003c34:	1c64      	adds	r4, r4, #1
70003c36:	2c05      	cmp	r4, #5
70003c38:	d3f6      	bcc.n	0x70003c28
70003c3a:	f000 fc45 	bl	0x700044c8
70003c3e:	f000 fe63 	bl	0x70004908
70003c42:	b005      	add	sp, #20
70003c44:	bdf0      	pop	{r4, r5, r6, r7, pc}
70003c46:	0000      	movs	r0, r0
70003c48:	2fc4      	cmp	r7, #196	@ 0xc4
70003c4a:	0001      	movs	r1, r0
70003c4c:	0080      	lsls	r0, r0, #2
70003c4e:	a018      	add	r0, pc, #96	@ (adr r0, 0x70003cb0)
70003c50:	ffff 0000 	vaddl.u<illegal width 64>	q8, d15, d0
70003c54:	0455      	lsls	r5, r2, #17
70003c56:	0000      	movs	r0, r0
70003c58:	4810      	ldr	r0, [pc, #64]	@ (0x70003c9c)
70003c5a:	4a13      	ldr	r2, [pc, #76]	@ (0x70003ca8)
70003c5c:	7801      	ldrb	r1, [r0, #0]
70003c5e:	4810      	ldr	r0, [pc, #64]	@ (0x70003ca0)
70003c60:	7001      	strb	r1, [r0, #0]
70003c62:	4910      	ldr	r1, [pc, #64]	@ (0x70003ca4)
70003c64:	7809      	ldrb	r1, [r1, #0]
70003c66:	7041      	strb	r1, [r0, #1]
70003c68:	7811      	ldrb	r1, [r2, #0]
70003c6a:	4a10      	ldr	r2, [pc, #64]	@ (0x70003cac)
70003c6c:	7081      	strb	r1, [r0, #2]
70003c6e:	7811      	ldrb	r1, [r2, #0]
70003c70:	4a0f      	ldr	r2, [pc, #60]	@ (0x70003cb0)
70003c72:	70c1      	strb	r1, [r0, #3]
70003c74:	7811      	ldrb	r1, [r2, #0]
70003c76:	4a0f      	ldr	r2, [pc, #60]	@ (0x70003cb4)
70003c78:	7101      	strb	r1, [r0, #4]
70003c7a:	7811      	ldrb	r1, [r2, #0]
70003c7c:	1d40      	adds	r0, r0, #5
70003c7e:	4a0f      	ldr	r2, [pc, #60]	@ (0x70003cbc)
70003c80:	7001      	strb	r1, [r0, #0]
70003c82:	490d      	ldr	r1, [pc, #52]	@ (0x70003cb8)
70003c84:	7809      	ldrb	r1, [r1, #0]
70003c86:	7041      	strb	r1, [r0, #1]
70003c88:	7811      	ldrb	r1, [r2, #0]
70003c8a:	4a0d      	ldr	r2, [pc, #52]	@ (0x70003cc0)
70003c8c:	7081      	strb	r1, [r0, #2]
70003c8e:	7811      	ldrb	r1, [r2, #0]
70003c90:	4a0c      	ldr	r2, [pc, #48]	@ (0x70003cc4)
70003c92:	70c1      	strb	r1, [r0, #3]
70003c94:	7811      	ldrb	r1, [r2, #0]
70003c96:	7101      	strb	r1, [r0, #4]
70003c98:	4770      	bx	lr
70003c9a:	0000      	movs	r0, r0
70003c9c:	8b98      	ldrh	r0, [r3, #28]
70003c9e:	1000      	asrs	r0, r0, #32
70003ca0:	2fc4      	cmp	r7, #196	@ 0xc4
70003ca2:	0001      	movs	r1, r0
70003ca4:	8b97      	ldrh	r7, [r2, #28]
70003ca6:	1000      	asrs	r0, r0, #32
70003ca8:	8b96      	ldrh	r6, [r2, #28]
70003caa:	1000      	asrs	r0, r0, #32
70003cac:	8b95      	ldrh	r5, [r2, #28]
70003cae:	1000      	asrs	r0, r0, #32
70003cb0:	8b94      	ldrh	r4, [r2, #28]
70003cb2:	1000      	asrs	r0, r0, #32
70003cb4:	8b93      	ldrh	r3, [r2, #28]
70003cb6:	1000      	asrs	r0, r0, #32
70003cb8:	8b92      	ldrh	r2, [r2, #28]
70003cba:	1000      	asrs	r0, r0, #32
70003cbc:	8b91      	ldrh	r1, [r2, #28]
70003cbe:	1000      	asrs	r0, r0, #32
70003cc0:	8b90      	ldrh	r0, [r2, #28]
70003cc2:	1000      	asrs	r0, r0, #32
70003cc4:	8b99      	ldrh	r1, [r3, #28]
70003cc6:	1000      	asrs	r0, r0, #32
70003cc8:	2000      	movs	r0, #0
70003cca:	4770      	bx	lr
70003ccc:	4905      	ldr	r1, [pc, #20]	@ (0x70003ce4)
70003cce:	4288      	cmp	r0, r1
70003cd0:	d002      	beq.n	0x70003cd8
70003cd2:	2000      	movs	r0, #0
70003cd4:	43c0      	mvns	r0, r0
70003cd6:	4770      	bx	lr
70003cd8:	4903      	ldr	r1, [pc, #12]	@ (0x70003ce8)
70003cda:	6808      	ldr	r0, [r1, #0]
70003cdc:	1c40      	adds	r0, r0, #1
70003cde:	6008      	str	r0, [r1, #0]
70003ce0:	4770      	bx	lr
70003ce2:	0000      	movs	r0, r0
70003ce4:	0b01      	lsrs	r1, r0, #12
70003ce6:	0000      	movs	r0, r0
70003ce8:	2ed0      	cmp	r6, #208	@ 0xd0
70003cea:	0001      	movs	r1, r0
70003cec:	b570      	push	{r4, r5, r6, lr}
70003cee:	0006      	movs	r6, r0
70003cf0:	000d      	movs	r5, r1
70003cf2:	0014      	movs	r4, r2
70003cf4:	2900      	cmp	r1, #0
70003cf6:	b086      	sub	sp, #24
70003cf8:	d10a      	bne.n	0x70003d10
70003cfa:	2200      	movs	r2, #0
70003cfc:	9201      	str	r2, [sp, #4]
70003cfe:	9202      	str	r2, [sp, #8]
70003d00:	9203      	str	r2, [sp, #12]
70003d02:	9200      	str	r2, [sp, #0]
70003d04:	4a0a      	ldr	r2, [pc, #40]	@ (0x70003d30)
70003d06:	2300      	movs	r3, #0
70003d08:	a10a      	add	r1, pc, #40	@ (adr r1, 0x70003d34)
70003d0a:	a013      	add	r0, pc, #76	@ (adr r0, 0x70003d58)
70003d0c:	f001 fe4c 	bl	0x700059a8
70003d10:	0029      	movs	r1, r5
70003d12:	0030      	movs	r0, r6
70003d14:	aa05      	add	r2, sp, #20
70003d16:	f002 f87f 	bl	0x70005e18
70003d1a:	2800      	cmp	r0, #0
70003d1c:	d105      	bne.n	0x70003d2a
70003d1e:	9805      	ldr	r0, [sp, #20]
70003d20:	0a40      	lsrs	r0, r0, #9
70003d22:	6020      	str	r0, [r4, #0]
70003d24:	2000      	movs	r0, #0
70003d26:	b006      	add	sp, #24
70003d28:	bd70      	pop	{r4, r5, r6, pc}
70003d2a:	f002 f8bb 	bl	0x70005ea4
70003d2e:	e7fa      	b.n	0x70003d26
70003d30:	03c1      	lsls	r1, r0, #15
70003d32:	0000      	movs	r0, r0
70003d34:	6168      	str	r0, [r5, #20]
70003d36:	5c6c      	ldrb	r4, [r5, r1]
70003d38:	7973      	ldrb	r3, [r6, #5]
70003d3a:	7473      	strb	r3, [r6, #17]
70003d3c:	6d65      	ldr	r5, [r4, #84]	@ 0x54
70003d3e:	625c      	str	r4, [r3, #36]	@ 0x24
70003d40:	6f6f      	ldr	r7, [r5, #116]	@ 0x74
70003d42:	6c74      	ldr	r4, [r6, #68]	@ 0x44
70003d44:	616f      	str	r7, [r5, #20]
70003d46:	6564      	str	r4, [r4, #84]	@ 0x54
70003d48:	5c72      	ldrb	r2, [r6, r1]
70003d4a:	7273      	strb	r3, [r6, #9]
70003d4c:	5c63      	ldrb	r3, [r4, r1]
70003d4e:	6c62      	ldr	r2, [r4, #68]	@ 0x44
70003d50:	465f      	mov	r7, fp
70003d52:	4c54      	ldr	r4, [pc, #336]	@ (0x70003ea4)
70003d54:	632e      	str	r6, [r5, #48]	@ 0x30
70003d56:	0000      	movs	r0, r0
70003d58:	4270      	negs	r0, r6
70003d5a:	6f6c      	ldr	r4, [r5, #116]	@ 0x74
70003d5c:	6b63      	ldr	r3, [r4, #52]	@ 0x34
70003d5e:	0000      	movs	r0, r0
70003d60:	b57f      	push	{r0, r1, r2, r3, r4, r5, r6, lr}
70003d62:	0006      	movs	r6, r0
70003d64:	000d      	movs	r5, r1
70003d66:	0014      	movs	r4, r2
70003d68:	d109      	bne.n	0x70003d7e
70003d6a:	9201      	str	r2, [sp, #4]
70003d6c:	9202      	str	r2, [sp, #8]
70003d6e:	9203      	str	r2, [sp, #12]
70003d70:	9200      	str	r2, [sp, #0]
70003d72:	4a06      	ldr	r2, [pc, #24]	@ (0x70003d8c)
70003d74:	2300      	movs	r3, #0
70003d76:	a106      	add	r1, pc, #24	@ (adr r1, 0x70003d90)
70003d78:	a00e      	add	r0, pc, #56	@ (adr r0, 0x70003db4)
70003d7a:	f001 fe15 	bl	0x700059a8
70003d7e:	0269      	lsls	r1, r5, #9
70003d80:	0022      	movs	r2, r4
70003d82:	0030      	movs	r0, r6
70003d84:	f002 f86e 	bl	0x70005e64
70003d88:	b004      	add	sp, #16
70003d8a:	bd70      	pop	{r4, r5, r6, pc}
70003d8c:	03d2      	lsls	r2, r2, #15
70003d8e:	0000      	movs	r0, r0
70003d90:	6168      	str	r0, [r5, #20]
70003d92:	5c6c      	ldrb	r4, [r5, r1]
70003d94:	7973      	ldrb	r3, [r6, #5]
70003d96:	7473      	strb	r3, [r6, #17]
70003d98:	6d65      	ldr	r5, [r4, #84]	@ 0x54
70003d9a:	625c      	str	r4, [r3, #36]	@ 0x24
70003d9c:	6f6f      	ldr	r7, [r5, #116]	@ 0x74
70003d9e:	6c74      	ldr	r4, [r6, #68]	@ 0x44
70003da0:	616f      	str	r7, [r5, #20]
70003da2:	6564      	str	r4, [r4, #84]	@ 0x54
70003da4:	5c72      	ldrb	r2, [r6, r1]
70003da6:	7273      	strb	r3, [r6, #9]
70003da8:	5c63      	ldrb	r3, [r4, r1]
70003daa:	6c62      	ldr	r2, [r4, #68]	@ 0x44
70003dac:	465f      	mov	r7, fp
70003dae:	4c54      	ldr	r4, [pc, #336]	@ (0x70003f00)
70003db0:	632e      	str	r6, [r5, #48]	@ 0x30
70003db2:	0000      	movs	r0, r0
70003db4:	6461      	str	r1, [r4, #68]	@ 0x44
70003db6:	7264      	strb	r4, [r4, #9]
70003db8:	0000      	movs	r0, r0
70003dba:	0000      	movs	r0, r0
70003dbc:	2000      	movs	r0, #0
70003dbe:	4770      	bx	lr
70003dc0:	2000      	movs	r0, #0
70003dc2:	4770      	bx	lr
70003dc4:	4800      	ldr	r0, [pc, #0]	@ (0x70003dc8)
70003dc6:	4770      	bx	lr
70003dc8:	d8f5      	bhi.n	0x70003db6
70003dca:	ffff b510 	vsli.32	d27, d0, #31
70003dce:	f002 f85d 	bl	0x70005e8c
70003dd2:	bd10      	pop	{r4, pc}
70003dd4:	2001      	movs	r0, #1
70003dd6:	0240      	lsls	r0, r0, #9
70003dd8:	4770      	bx	lr
70003dda:	0000      	movs	r0, r0
70003ddc:	b510      	push	{r4, lr}
70003dde:	4c06      	ldr	r4, [pc, #24]	@ (0x70003df8)
70003de0:	7820      	ldrb	r0, [r4, #0]
70003de2:	2800      	cmp	r0, #0
70003de4:	d001      	beq.n	0x70003dea
70003de6:	2000      	movs	r0, #0
70003de8:	bd10      	pop	{r4, pc}
70003dea:	f002 f8b1 	bl	0x70005f50
70003dee:	2101      	movs	r1, #1
70003df0:	7021      	strb	r1, [r4, #0]
70003df2:	f002 f857 	bl	0x70005ea4
70003df6:	bd10      	pop	{r4, pc}
70003df8:	210e      	movs	r1, #14
70003dfa:	0001      	movs	r1, r0
70003dfc:	2000      	movs	r0, #0
70003dfe:	4770      	bx	lr
70003e00:	b510      	push	{r4, lr}
70003e02:	f002 f887 	bl	0x70005f14
70003e06:	f002 f84d 	bl	0x70005ea4
70003e0a:	bd10      	pop	{r4, pc}
70003e0c:	4800      	ldr	r0, [pc, #0]	@ (0x70003e10)
70003e0e:	4770      	bx	lr
70003e10:	d8f1      	bhi.n	0x70003df6
70003e12:	ffff 4a03 	vtbl.8	d20, {d15-d17}, d3
70003e16:	7811      	ldrb	r1, [r2, #0]
70003e18:	0689      	lsls	r1, r1, #26
70003e1a:	d5fc      	bpl.n	0x70003e16
70003e1c:	4901      	ldr	r1, [pc, #4]	@ (0x70003e24)
70003e1e:	3914      	subs	r1, #20
70003e20:	7008      	strb	r0, [r1, #0]
70003e22:	4770      	bx	lr
70003e24:	0014      	movs	r4, r2
70003e26:	a008      	add	r0, pc, #32	@ (adr r0, 0x70003e48)
70003e28:	b510      	push	{r4, lr}
70003e2a:	f002 fa99 	bl	0x70006360
70003e2e:	f002 f93d 	bl	0x700060ac
70003e32:	f002 fa2f 	bl	0x70006294
70003e36:	0004      	movs	r4, r0
70003e38:	2801      	cmp	r0, #1
70003e3a:	d101      	bne.n	0x70003e40
70003e3c:	f002 fa70 	bl	0x70006320
70003e40:	f002 f93a 	bl	0x700060b8
70003e44:	0020      	movs	r0, r4
70003e46:	bd10      	pop	{r4, pc}
70003e48:	b57f      	push	{r0, r1, r2, r3, r4, r5, r6, lr}
70003e4a:	000d      	movs	r5, r1
70003e4c:	2400      	movs	r4, #0
70003e4e:	2800      	cmp	r0, #0
70003e50:	d003      	beq.n	0x70003e5a
70003e52:	2801      	cmp	r0, #1
70003e54:	d104      	bne.n	0x70003e60
70003e56:	4c0b      	ldr	r4, [pc, #44]	@ (0x70003e84)
70003e58:	e00d      	b.n	0x70003e76
70003e5a:	4c0a      	ldr	r4, [pc, #40]	@ (0x70003e84)
70003e5c:	1f24      	subs	r4, r4, #4
70003e5e:	e00a      	b.n	0x70003e76
70003e60:	2200      	movs	r2, #0
70003e62:	9201      	str	r2, [sp, #4]
70003e64:	9202      	str	r2, [sp, #8]
70003e66:	9203      	str	r2, [sp, #12]
70003e68:	9200      	str	r2, [sp, #0]
70003e6a:	4a07      	ldr	r2, [pc, #28]	@ (0x70003e88)
70003e6c:	2300      	movs	r3, #0
70003e6e:	a107      	add	r1, pc, #28	@ (adr r1, 0x70003e8c)
70003e70:	a00d      	add	r0, pc, #52	@ (adr r0, 0x70003ea8)
70003e72:	f001 fd99 	bl	0x700059a8
70003e76:	8821      	ldrh	r1, [r4, #0]
70003e78:	0020      	movs	r0, r4
70003e7a:	43a9      	bics	r1, r5
70003e7c:	f002 fb90 	bl	0x700065a0
70003e80:	bd7f      	pop	{r0, r1, r2, r3, r4, r5, r6, pc}
70003e82:	0000      	movs	r0, r0
70003e84:	005c      	lsls	r4, r3, #1
70003e86:	a071      	add	r0, pc, #452	@ (adr r0, 0x7000404c)
70003e88:	12d2      	asrs	r2, r2, #11
70003e8a:	0000      	movs	r0, r0
70003e8c:	6168      	str	r0, [r5, #20]
70003e8e:	5c6c      	ldrb	r4, [r5, r1]
70003e90:	6570      	str	r0, [r6, #84]	@ 0x54
70003e92:	6972      	ldr	r2, [r6, #20]
70003e94:	6870      	ldr	r0, [r6, #4]
70003e96:	7265      	strb	r5, [r4, #9]
70003e98:	6c61      	ldr	r1, [r4, #68]	@ 0x44
70003e9a:	735c      	strb	r4, [r3, #13]
70003e9c:	6372      	str	r2, [r6, #52]	@ 0x34
70003e9e:	725c      	strb	r4, [r3, #9]
70003ea0:	6374      	str	r4, [r6, #52]	@ 0x34
70003ea2:	632e      	str	r6, [r5, #48]	@ 0x30
70003ea4:	0000      	movs	r0, r0
70003ea6:	0000      	movs	r0, r0
70003ea8:	0030      	movs	r0, r6
70003eaa:	0000      	movs	r0, r0
70003eac:	4a16      	ldr	r2, [pc, #88]	@ (0x70003f08)
70003eae:	b500      	push	{lr}
70003eb0:	6910      	ldr	r0, [r2, #16]
70003eb2:	2101      	movs	r1, #1
70003eb4:	0349      	lsls	r1, r1, #13
70003eb6:	4388      	bics	r0, r1
70003eb8:	6110      	str	r0, [r2, #16]
70003eba:	4a14      	ldr	r2, [pc, #80]	@ (0x70003f0c)
70003ebc:	6910      	ldr	r0, [r2, #16]
70003ebe:	4308      	orrs	r0, r1
70003ec0:	6110      	str	r0, [r2, #16]
70003ec2:	4913      	ldr	r1, [pc, #76]	@ (0x70003f10)
70003ec4:	6908      	ldr	r0, [r1, #16]
70003ec6:	220f      	movs	r2, #15
70003ec8:	0512      	lsls	r2, r2, #20
70003eca:	4390      	bics	r0, r2
70003ecc:	6108      	str	r0, [r1, #16]
70003ece:	4b11      	ldr	r3, [pc, #68]	@ (0x70003f14)
70003ed0:	8b18      	ldrh	r0, [r3, #24]
70003ed2:	0601      	lsls	r1, r0, #24
70003ed4:	d50a      	bpl.n	0x70003eec
70003ed6:	2180      	movs	r1, #128	@ 0x80
70003ed8:	4388      	bics	r0, r1
70003eda:	8318      	strh	r0, [r3, #24]
70003edc:	f001 fd3c 	bl	0x70005958
70003ee0:	480d      	ldr	r0, [pc, #52]	@ (0x70003f18)
70003ee2:	8218      	strh	r0, [r3, #16]
70003ee4:	f001 fd38 	bl	0x70005958
70003ee8:	2001      	movs	r0, #1
70003eea:	bd00      	pop	{pc}
70003eec:	4909      	ldr	r1, [pc, #36]	@ (0x70003f14)
70003eee:	3940      	subs	r1, #64	@ 0x40
70003ef0:	8808      	ldrh	r0, [r1, #0]
70003ef2:	2209      	movs	r2, #9
70003ef4:	4010      	ands	r0, r2
70003ef6:	2243      	movs	r2, #67	@ 0x43
70003ef8:	0212      	lsls	r2, r2, #8
70003efa:	1880      	adds	r0, r0, r2
70003efc:	8008      	strh	r0, [r1, #0]
70003efe:	f001 fd2b 	bl	0x70005958
70003f02:	2000      	movs	r0, #0
70003f04:	bd00      	pop	{pc}
70003f06:	0000      	movs	r0, r0
70003f08:	0300      	lsls	r0, r0, #12
70003f0a:	a002      	add	r0, pc, #8	@ (adr r0, 0x70003f14)
70003f0c:	0000      	movs	r0, r0
70003f0e:	a002      	add	r0, pc, #8	@ (adr r0, 0x70003f18)
70003f10:	0c40      	lsrs	r0, r0, #17
70003f12:	a002      	add	r0, pc, #8	@ (adr r0, 0x70003f1c)
70003f14:	0040      	lsls	r0, r0, #1
70003f16:	a071      	add	r0, pc, #452	@ (adr r0, 0x700040dc)
70003f18:	1234      	asrs	r4, r6, #8
70003f1a:	0000      	movs	r0, r0
70003f1c:	b500      	push	{lr}
70003f1e:	f002 f89d 	bl	0x7000605c
70003f22:	bd00      	pop	{pc}
70003f24:	4802      	ldr	r0, [pc, #8]	@ (0x70003f30)
70003f26:	8b00      	ldrh	r0, [r0, #24]
70003f28:	2800      	cmp	r0, #0
70003f2a:	d000      	beq.n	0x70003f2e
70003f2c:	2001      	movs	r0, #1
70003f2e:	4770      	bx	lr
70003f30:	0060      	lsls	r0, r4, #1
70003f32:	a071      	add	r0, pc, #452	@ (adr r0, 0x700040f8)
70003f34:	b510      	push	{r4, lr}
70003f36:	f002 f8ed 	bl	0x70006114
70003f3a:	bd10      	pop	{r4, pc}
70003f3c:	4803      	ldr	r0, [pc, #12]	@ (0x70003f4c)
70003f3e:	8800      	ldrh	r0, [r0, #0]
70003f40:	0740      	lsls	r0, r0, #29
70003f42:	d501      	bpl.n	0x70003f48
70003f44:	2001      	movs	r0, #1
70003f46:	4770      	bx	lr
70003f48:	2000      	movs	r0, #0
70003f4a:	4770      	bx	lr
70003f4c:	0000      	movs	r0, r0
70003f4e:	a071      	add	r0, pc, #452	@ (adr r0, 0x70004114)
70003f50:	b5f0      	push	{r4, r5, r6, r7, lr}
70003f52:	0004      	movs	r4, r0
70003f54:	4d4b      	ldr	r5, [pc, #300]	@ (0x70004084)
70003f56:	2001      	movs	r0, #1
70003f58:	0380      	lsls	r0, r0, #14
70003f5a:	b085      	sub	sp, #20
70003f5c:	8228      	strh	r0, [r5, #16]
70003f5e:	2600      	movs	r6, #0
70003f60:	822e      	strh	r6, [r5, #16]
70003f62:	f001 fcf9 	bl	0x70005958
70003f66:	0020      	movs	r0, r4
70003f68:	f002 f8d4 	bl	0x70006114
70003f6c:	4f45      	ldr	r7, [pc, #276]	@ (0x70004084)
70003f6e:	3f60      	subs	r7, #96	@ 0x60
70003f70:	88b8      	ldrh	r0, [r7, #4]
70003f72:	4944      	ldr	r1, [pc, #272]	@ (0x70004084)
70003f74:	2001      	movs	r0, #1
70003f76:	3940      	subs	r1, #64	@ 0x40
70003f78:	8088      	strh	r0, [r1, #4]
70003f7a:	813e      	strh	r6, [r7, #8]
70003f7c:	4a41      	ldr	r2, [pc, #260]	@ (0x70004084)
70003f7e:	3a20      	subs	r2, #32
70003f80:	8b10      	ldrh	r0, [r2, #24]
70003f82:	2180      	movs	r1, #128	@ 0x80
70003f84:	4388      	bics	r0, r1
70003f86:	8310      	strh	r0, [r2, #24]
70003f88:	823e      	strh	r6, [r7, #16]
70003f8a:	f001 fce5 	bl	0x70005958
70003f8e:	8838      	ldrh	r0, [r7, #0]
70003f90:	21fe      	movs	r1, #254	@ 0xfe
70003f92:	4008      	ands	r0, r1
70003f94:	2143      	movs	r1, #67	@ 0x43
70003f96:	0209      	lsls	r1, r1, #8
70003f98:	4308      	orrs	r0, r1
70003f9a:	8038      	strh	r0, [r7, #0]
70003f9c:	f001 fcdc 	bl	0x70005958
70003fa0:	f002 f9be 	bl	0x70006320
70003fa4:	f001 fcd8 	bl	0x70005958
70003fa8:	8b29      	ldrh	r1, [r5, #24]
70003faa:	2000      	movs	r0, #0
70003fac:	4a36      	ldr	r2, [pc, #216]	@ (0x70004088)
70003fae:	4b37      	ldr	r3, [pc, #220]	@ (0x7000408c)
70003fb0:	4011      	ands	r1, r2
70003fb2:	2201      	movs	r2, #1
70003fb4:	8329      	strh	r1, [r5, #24]
70003fb6:	82aa      	strh	r2, [r5, #20]
70003fb8:	8b2e      	ldrh	r6, [r5, #24]
70003fba:	07f6      	lsls	r6, r6, #31
70003fbc:	d002      	beq.n	0x70003fc4
70003fbe:	1c40      	adds	r0, r0, #1
70003fc0:	4298      	cmp	r0, r3
70003fc2:	d3f7      	bcc.n	0x70003fb4
70003fc4:	f002 f80c 	bl	0x70005fe0
70003fc8:	4831      	ldr	r0, [pc, #196]	@ (0x70004090)
70003fca:	2100      	movs	r1, #0
70003fcc:	f001 fbae 	bl	0x7000572c
70003fd0:	4930      	ldr	r1, [pc, #192]	@ (0x70004094)
70003fd2:	0005      	movs	r5, r0
70003fd4:	aa03      	add	r2, sp, #12
70003fd6:	f001 fc1f 	bl	0x70005818
70003fda:	466b      	mov	r3, sp
70003fdc:	7b18      	ldrb	r0, [r3, #12]
70003fde:	2800      	cmp	r0, #0
70003fe0:	d105      	bne.n	0x70003fee
70003fe2:	492c      	ldr	r1, [pc, #176]	@ (0x70004094)
70003fe4:	0028      	movs	r0, r5
70003fe6:	1c89      	adds	r1, r1, #2
70003fe8:	aa02      	add	r2, sp, #8
70003fea:	f001 fc15 	bl	0x70005818
70003fee:	0028      	movs	r0, r5
70003ff0:	f001 fbd4 	bl	0x7000579c
70003ff4:	2600      	movs	r6, #0
70003ff6:	2500      	movs	r5, #0
70003ff8:	4668      	mov	r0, sp
70003ffa:	f002 f82f 	bl	0x7000605c
70003ffe:	466b      	mov	r3, sp
70004000:	78a0      	ldrb	r0, [r4, #2]
70004002:	7899      	ldrb	r1, [r3, #2]
70004004:	4288      	cmp	r0, r1
70004006:	d11e      	bne.n	0x70004046
70004008:	78e0      	ldrb	r0, [r4, #3]
7000400a:	78d9      	ldrb	r1, [r3, #3]
7000400c:	4288      	cmp	r0, r1
7000400e:	d11a      	bne.n	0x70004046
70004010:	7961      	ldrb	r1, [r4, #5]
70004012:	7958      	ldrb	r0, [r3, #5]
70004014:	4281      	cmp	r1, r0
70004016:	d116      	bne.n	0x70004046
70004018:	7920      	ldrb	r0, [r4, #4]
7000401a:	7919      	ldrb	r1, [r3, #4]
7000401c:	4288      	cmp	r0, r1
7000401e:	d112      	bne.n	0x70004046
70004020:	8938      	ldrh	r0, [r7, #8]
70004022:	0440      	lsls	r0, r0, #17
70004024:	d10f      	bne.n	0x70004046
70004026:	4817      	ldr	r0, [pc, #92]	@ (0x70004084)
70004028:	3820      	subs	r0, #32
7000402a:	8a01      	ldrh	r1, [r0, #16]
7000402c:	4a1a      	ldr	r2, [pc, #104]	@ (0x70004098)
7000402e:	4291      	cmp	r1, r2
70004030:	d109      	bne.n	0x70004046
70004032:	8a80      	ldrh	r0, [r0, #20]
70004034:	4919      	ldr	r1, [pc, #100]	@ (0x7000409c)
70004036:	4288      	cmp	r0, r1
70004038:	d105      	bne.n	0x70004046
7000403a:	8a38      	ldrh	r0, [r7, #16]
7000403c:	0440      	lsls	r0, r0, #17
7000403e:	d102      	bne.n	0x70004046
70004040:	8838      	ldrh	r0, [r7, #0]
70004042:	07c0      	lsls	r0, r0, #31
70004044:	d01b      	beq.n	0x7000407e
70004046:	0020      	movs	r0, r4
70004048:	f002 f864 	bl	0x70006114
7000404c:	2000      	movs	r0, #0
7000404e:	8238      	strh	r0, [r7, #16]
70004050:	8138      	strh	r0, [r7, #8]
70004052:	f001 fc81 	bl	0x70005958
70004056:	8838      	ldrh	r0, [r7, #0]
70004058:	21fe      	movs	r1, #254	@ 0xfe
7000405a:	4008      	ands	r0, r1
7000405c:	2143      	movs	r1, #67	@ 0x43
7000405e:	0209      	lsls	r1, r1, #8
70004060:	4308      	orrs	r0, r1
70004062:	8038      	strh	r0, [r7, #0]
70004064:	20ff      	movs	r0, #255	@ 0xff
70004066:	30f5      	adds	r0, #245	@ 0xf5
70004068:	1c6d      	adds	r5, r5, #1
7000406a:	4285      	cmp	r5, r0
7000406c:	d3fc      	bcc.n	0x70004068
7000406e:	f002 f957 	bl	0x70006320
70004072:	f001 fc71 	bl	0x70005958
70004076:	480a      	ldr	r0, [pc, #40]	@ (0x700040a0)
70004078:	1c76      	adds	r6, r6, #1
7000407a:	4286      	cmp	r6, r0
7000407c:	d3bb      	bcc.n	0x70003ff6
7000407e:	b005      	add	sp, #20
70004080:	bdf0      	pop	{r4, r5, r6, r7, pc}
70004082:	0000      	movs	r0, r0
70004084:	0060      	lsls	r0, r4, #1
70004086:	a071      	add	r0, pc, #452	@ (adr r0, 0x7000424c)
70004088:	101e      	asrs	r6, r3, #32
7000408a:	0000      	movs	r0, r0
7000408c:	ffff 0000 	vaddl.u<illegal width 64>	q8, d15, d0
70004090:	1b01      	subs	r1, r0, r4
70004092:	0000      	movs	r0, r0
70004094:	1d01      	adds	r1, r0, #4
70004096:	0000      	movs	r0, r0
70004098:	a357      	add	r3, pc, #348	@ (adr r3, 0x700041f8)
7000409a:	0000      	movs	r0, r0
7000409c:	67d2      	str	r2, [r2, #124]	@ 0x7c
7000409e:	0000      	movs	r0, r0
700040a0:	9680      	str	r6, [sp, #512]	@ 0x200
700040a2:	0098      	lsls	r0, r3, #2
700040a4:	b570      	push	{r4, r5, r6, lr}
700040a6:	4b0b      	ldr	r3, [pc, #44]	@ (0x700040d4)
700040a8:	2100      	movs	r1, #0
700040aa:	8a18      	ldrh	r0, [r3, #16]
700040ac:	07c0      	lsls	r0, r0, #31
700040ae:	d010      	beq.n	0x700040d2
700040b0:	4e08      	ldr	r6, [pc, #32]	@ (0x700040d4)
700040b2:	4a09      	ldr	r2, [pc, #36]	@ (0x700040d8)
700040b4:	2400      	movs	r4, #0
700040b6:	2501      	movs	r5, #1
700040b8:	3660      	adds	r6, #96	@ 0x60
700040ba:	821c      	strh	r4, [r3, #16]
700040bc:	82b5      	strh	r5, [r6, #20]
700040be:	2000      	movs	r0, #0
700040c0:	1c40      	adds	r0, r0, #1
700040c2:	4290      	cmp	r0, r2
700040c4:	d3fc      	bcc.n	0x700040c0
700040c6:	8a18      	ldrh	r0, [r3, #16]
700040c8:	2800      	cmp	r0, #0
700040ca:	d002      	beq.n	0x700040d2
700040cc:	1c49      	adds	r1, r1, #1
700040ce:	4291      	cmp	r1, r2
700040d0:	d3f3      	bcc.n	0x700040ba
700040d2:	bd70      	pop	{r4, r5, r6, pc}
700040d4:	0000      	movs	r0, r0
700040d6:	a071      	add	r0, pc, #452	@ (adr r0, 0x7000429c)
700040d8:	2710      	movs	r7, #16
700040da:	0000      	movs	r0, r0
700040dc:	b51c      	push	{r2, r3, r4, lr}
700040de:	4a19      	ldr	r2, [pc, #100]	@ (0x70004144)
700040e0:	6910      	ldr	r0, [r2, #16]
700040e2:	2101      	movs	r1, #1
700040e4:	0349      	lsls	r1, r1, #13
700040e6:	4388      	bics	r0, r1
700040e8:	6110      	str	r0, [r2, #16]
700040ea:	4a17      	ldr	r2, [pc, #92]	@ (0x70004148)
700040ec:	6910      	ldr	r0, [r2, #16]
700040ee:	4308      	orrs	r0, r1
700040f0:	6110      	str	r0, [r2, #16]
700040f2:	4916      	ldr	r1, [pc, #88]	@ (0x7000414c)
700040f4:	6908      	ldr	r0, [r1, #16]
700040f6:	220f      	movs	r2, #15
700040f8:	0512      	lsls	r2, r2, #20
700040fa:	4390      	bics	r0, r2
700040fc:	6108      	str	r0, [r1, #16]
700040fe:	4814      	ldr	r0, [pc, #80]	@ (0x70004150)
70004100:	2100      	movs	r1, #0
70004102:	f001 fb13 	bl	0x7000572c
70004106:	4913      	ldr	r1, [pc, #76]	@ (0x70004154)
70004108:	0004      	movs	r4, r0
7000410a:	aa01      	add	r2, sp, #4
7000410c:	f001 fb84 	bl	0x70005818
70004110:	466b      	mov	r3, sp
70004112:	7918      	ldrb	r0, [r3, #4]
70004114:	2800      	cmp	r0, #0
70004116:	d107      	bne.n	0x70004128
70004118:	490e      	ldr	r1, [pc, #56]	@ (0x70004154)
7000411a:	2005      	movs	r0, #5
7000411c:	9000      	str	r0, [sp, #0]
7000411e:	1cc9      	adds	r1, r1, #3
70004120:	0020      	movs	r0, r4
70004122:	466a      	mov	r2, sp
70004124:	f001 fb78 	bl	0x70005818
70004128:	0020      	movs	r0, r4
7000412a:	f001 fb37 	bl	0x7000579c
7000412e:	490a      	ldr	r1, [pc, #40]	@ (0x70004158)
70004130:	8808      	ldrh	r0, [r1, #0]
70004132:	4a0a      	ldr	r2, [pc, #40]	@ (0x7000415c)
70004134:	4310      	orrs	r0, r2
70004136:	2204      	movs	r2, #4
70004138:	4390      	bics	r0, r2
7000413a:	8008      	strh	r0, [r1, #0]
7000413c:	f001 fc0c 	bl	0x70005958
70004140:	bd1c      	pop	{r2, r3, r4, pc}
70004142:	0000      	movs	r0, r0
70004144:	0300      	lsls	r0, r0, #12
70004146:	a002      	add	r0, pc, #8	@ (adr r0, 0x70004150)
70004148:	0000      	movs	r0, r0
7000414a:	a002      	add	r0, pc, #8	@ (adr r0, 0x70004154)
7000414c:	0c40      	lsrs	r0, r0, #17
7000414e:	a002      	add	r0, pc, #8	@ (adr r0, 0x70004158)
70004150:	1b01      	subs	r1, r0, r4
70004152:	0000      	movs	r0, r0
70004154:	1d01      	adds	r1, r0, #4
70004156:	0000      	movs	r0, r0
70004158:	0000      	movs	r0, r0
7000415a:	a071      	add	r0, pc, #452	@ (adr r0, 0x70004320)
7000415c:	4308      	orrs	r0, r1
7000415e:	0000      	movs	r0, r0
70004160:	b51f      	push	{r0, r1, r2, r3, r4, lr}
70004162:	490c      	ldr	r1, [pc, #48]	@ (0x70004194)
70004164:	2400      	movs	r4, #0
70004166:	2800      	cmp	r0, #0
70004168:	d003      	beq.n	0x70004172
7000416a:	2801      	cmp	r0, #1
7000416c:	d103      	bne.n	0x70004176
7000416e:	8b8c      	ldrh	r4, [r1, #28]
70004170:	e00c      	b.n	0x7000418c
70004172:	8b0c      	ldrh	r4, [r1, #24]
70004174:	e00a      	b.n	0x7000418c
70004176:	2200      	movs	r2, #0
70004178:	9201      	str	r2, [sp, #4]
7000417a:	9202      	str	r2, [sp, #8]
7000417c:	9203      	str	r2, [sp, #12]
7000417e:	9200      	str	r2, [sp, #0]
70004180:	4a05      	ldr	r2, [pc, #20]	@ (0x70004198)
70004182:	2300      	movs	r3, #0
70004184:	a105      	add	r1, pc, #20	@ (adr r1, 0x7000419c)
70004186:	a00c      	add	r0, pc, #48	@ (adr r0, 0x700041b8)
70004188:	f001 fc0e 	bl	0x700059a8
7000418c:	0020      	movs	r0, r4
7000418e:	b004      	add	sp, #16
70004190:	bd10      	pop	{r4, pc}
70004192:	0000      	movs	r0, r0
70004194:	0040      	lsls	r0, r0, #1
70004196:	a071      	add	r0, pc, #452	@ (adr r0, 0x7000435c)
70004198:	1296      	asrs	r6, r2, #10
7000419a:	0000      	movs	r0, r0
7000419c:	6168      	str	r0, [r5, #20]
7000419e:	5c6c      	ldrb	r4, [r5, r1]
700041a0:	6570      	str	r0, [r6, #84]	@ 0x54
700041a2:	6972      	ldr	r2, [r6, #20]
700041a4:	6870      	ldr	r0, [r6, #4]
700041a6:	7265      	strb	r5, [r4, #9]
700041a8:	6c61      	ldr	r1, [r4, #68]	@ 0x44
700041aa:	735c      	strb	r4, [r3, #13]
700041ac:	6372      	str	r2, [r6, #52]	@ 0x34
700041ae:	725c      	strb	r4, [r3, #9]
700041b0:	6374      	str	r4, [r6, #52]	@ 0x34
700041b2:	632e      	str	r6, [r5, #48]	@ 0x30
700041b4:	0000      	movs	r0, r0
700041b6:	0000      	movs	r0, r0
700041b8:	0030      	movs	r0, r6
700041ba:	0000      	movs	r0, r0
700041bc:	b51f      	push	{r0, r1, r2, r3, r4, lr}
700041be:	4917      	ldr	r1, [pc, #92]	@ (0x7000421c)
700041c0:	4a16      	ldr	r2, [pc, #88]	@ (0x7000421c)
700041c2:	2400      	movs	r4, #0
700041c4:	3920      	subs	r1, #32
700041c6:	0003      	movs	r3, r0
700041c8:	f001 ebd6 	blx	0x70005978
700041cc:	0507      	lsls	r7, r0, #20
700041ce:	0907      	lsrs	r7, r0, #4
700041d0:	1209      	asrs	r1, r1, #8
700041d2:	1714      	asrs	r4, r2, #28
700041d4:	0019      	movs	r1, r3
700041d6:	8814      	ldrh	r4, [r2, #0]
700041d8:	e01c      	b.n	0x70004214
700041da:	8894      	ldrh	r4, [r2, #4]
700041dc:	e01a      	b.n	0x70004214
700041de:	490f      	ldr	r1, [pc, #60]	@ (0x7000421c)
700041e0:	3940      	subs	r1, #64	@ 0x40
700041e2:	8b88      	ldrh	r0, [r1, #28]
700041e4:	8b09      	ldrh	r1, [r1, #24]
700041e6:	0a00      	lsrs	r0, r0, #8
700041e8:	0200      	lsls	r0, r0, #8
700041ea:	0a0c      	lsrs	r4, r1, #8
700041ec:	4304      	orrs	r4, r0
700041ee:	e011      	b.n	0x70004214
700041f0:	8808      	ldrh	r0, [r1, #0]
700041f2:	e000      	b.n	0x700041f6
700041f4:	8888      	ldrh	r0, [r1, #4]
700041f6:	0a04      	lsrs	r4, r0, #8
700041f8:	e00c      	b.n	0x70004214
700041fa:	8908      	ldrh	r0, [r1, #8]
700041fc:	e7fb      	b.n	0x700041f6
700041fe:	2200      	movs	r2, #0
70004200:	9201      	str	r2, [sp, #4]
70004202:	9202      	str	r2, [sp, #8]
70004204:	9203      	str	r2, [sp, #12]
70004206:	9200      	str	r2, [sp, #0]
70004208:	4a05      	ldr	r2, [pc, #20]	@ (0x70004220)
7000420a:	2300      	movs	r3, #0
7000420c:	a105      	add	r1, pc, #20	@ (adr r1, 0x70004224)
7000420e:	a00c      	add	r0, pc, #48	@ (adr r0, 0x70004240)
70004210:	f001 fbca 	bl	0x700059a8
70004214:	0020      	movs	r0, r4
70004216:	b004      	add	sp, #16
70004218:	bd10      	pop	{r4, pc}
7000421a:	0000      	movs	r0, r0
7000421c:	0060      	lsls	r0, r4, #1
7000421e:	a071      	add	r0, pc, #452	@ (adr r0, 0x700043e4)
70004220:	135b      	asrs	r3, r3, #13
70004222:	0000      	movs	r0, r0
70004224:	6168      	str	r0, [r5, #20]
70004226:	5c6c      	ldrb	r4, [r5, r1]
70004228:	6570      	str	r0, [r6, #84]	@ 0x54
7000422a:	6972      	ldr	r2, [r6, #20]
7000422c:	6870      	ldr	r0, [r6, #4]
7000422e:	7265      	strb	r5, [r4, #9]
70004230:	6c61      	ldr	r1, [r4, #68]	@ 0x44
70004232:	735c      	strb	r4, [r3, #13]
70004234:	6372      	str	r2, [r6, #52]	@ 0x34
70004236:	725c      	strb	r4, [r3, #9]
70004238:	6374      	str	r4, [r6, #52]	@ 0x34
7000423a:	632e      	str	r6, [r5, #48]	@ 0x30
7000423c:	0000      	movs	r0, r0
7000423e:	0000      	movs	r0, r0
70004240:	0030      	movs	r0, r6
70004242:	0000      	movs	r0, r0
70004244:	b570      	push	{r4, r5, r6, lr}
70004246:	4c18      	ldr	r4, [pc, #96]	@ (0x700042a8)
70004248:	8b23      	ldrh	r3, [r4, #24]
7000424a:	2580      	movs	r5, #128	@ 0x80
7000424c:	43ab      	bics	r3, r5
7000424e:	00ed      	lsls	r5, r5, #3
70004250:	2800      	cmp	r0, #0
70004252:	d01c      	beq.n	0x7000428e
70004254:	2801      	cmp	r0, #1
70004256:	d01c      	beq.n	0x70004292
70004258:	2802      	cmp	r0, #2
7000425a:	d102      	bne.n	0x70004262
7000425c:	2003      	movs	r0, #3
7000425e:	0280      	lsls	r0, r0, #10
70004260:	4303      	orrs	r3, r0
70004262:	2603      	movs	r6, #3
70004264:	0336      	lsls	r6, r6, #12
70004266:	2900      	cmp	r1, #0
70004268:	d018      	beq.n	0x7000429c
7000426a:	2501      	movs	r5, #1
7000426c:	032d      	lsls	r5, r5, #12
7000426e:	0068      	lsls	r0, r5, #1
70004270:	2901      	cmp	r1, #1
70004272:	d015      	beq.n	0x700042a0
70004274:	2902      	cmp	r1, #2
70004276:	d013      	beq.n	0x700042a0
70004278:	2903      	cmp	r1, #3
7000427a:	d100      	bne.n	0x7000427e
7000427c:	4333      	orrs	r3, r6
7000427e:	2a01      	cmp	r2, #1
70004280:	d101      	bne.n	0x70004286
70004282:	0250      	lsls	r0, r2, #9
70004284:	4303      	orrs	r3, r0
70004286:	8323      	strh	r3, [r4, #24]
70004288:	f001 fb66 	bl	0x70005958
7000428c:	bd70      	pop	{r4, r5, r6, pc}
7000428e:	43ab      	bics	r3, r5
70004290:	e7e7      	b.n	0x70004262
70004292:	2001      	movs	r0, #1
70004294:	432b      	orrs	r3, r5
70004296:	02c0      	lsls	r0, r0, #11
70004298:	4383      	bics	r3, r0
7000429a:	e7e2      	b.n	0x70004262
7000429c:	43b3      	bics	r3, r6
7000429e:	e7ee      	b.n	0x7000427e
700042a0:	432b      	orrs	r3, r5
700042a2:	4383      	bics	r3, r0
700042a4:	e7eb      	b.n	0x7000427e
700042a6:	0000      	movs	r0, r0
700042a8:	0060      	lsls	r0, r4, #1
700042aa:	a071      	add	r0, pc, #452	@ (adr r0, 0x70004470)
700042ac:	4a0d      	ldr	r2, [pc, #52]	@ (0x700042e4)
700042ae:	b500      	push	{lr}
700042b0:	8b11      	ldrh	r1, [r2, #24]
700042b2:	2800      	cmp	r0, #0
700042b4:	d00c      	beq.n	0x700042d0
700042b6:	2801      	cmp	r0, #1
700042b8:	d010      	beq.n	0x700042dc
700042ba:	2802      	cmp	r0, #2
700042bc:	d101      	bne.n	0x700042c2
700042be:	20b0      	movs	r0, #176	@ 0xb0
700042c0:	4301      	orrs	r1, r0
700042c2:	2001      	movs	r0, #1
700042c4:	0280      	lsls	r0, r0, #10
700042c6:	4381      	bics	r1, r0
700042c8:	8311      	strh	r1, [r2, #24]
700042ca:	f001 fb45 	bl	0x70005958
700042ce:	bd00      	pop	{pc}
700042d0:	2021      	movs	r0, #33	@ 0x21
700042d2:	0140      	lsls	r0, r0, #5
700042d4:	4301      	orrs	r1, r0
700042d6:	2011      	movs	r0, #17
700042d8:	01c0      	lsls	r0, r0, #7
700042da:	e000      	b.n	0x700042de
700042dc:	2020      	movs	r0, #32
700042de:	4381      	bics	r1, r0
700042e0:	e7ef      	b.n	0x700042c2
700042e2:	0000      	movs	r0, r0
700042e4:	0060      	lsls	r0, r4, #1
700042e6:	a071      	add	r0, pc, #452	@ (adr r0, 0x700044ac)
700042e8:	4b0c      	ldr	r3, [pc, #48]	@ (0x7000431c)
700042ea:	b500      	push	{lr}
700042ec:	8b1a      	ldrh	r2, [r3, #24]
700042ee:	2800      	cmp	r0, #0
700042f0:	d103      	bne.n	0x700042fa
700042f2:	20a0      	movs	r0, #160	@ 0xa0
700042f4:	4302      	orrs	r2, r0
700042f6:	2050      	movs	r0, #80	@ 0x50
700042f8:	e002      	b.n	0x70004300
700042fa:	20e0      	movs	r0, #224	@ 0xe0
700042fc:	4302      	orrs	r2, r0
700042fe:	2010      	movs	r0, #16
70004300:	4382      	bics	r2, r0
70004302:	2001      	movs	r0, #1
70004304:	0280      	lsls	r0, r0, #10
70004306:	4382      	bics	r2, r0
70004308:	1080      	asrs	r0, r0, #2
7000430a:	2901      	cmp	r1, #1
7000430c:	d101      	bne.n	0x70004312
7000430e:	4302      	orrs	r2, r0
70004310:	e000      	b.n	0x70004314
70004312:	4382      	bics	r2, r0
70004314:	831a      	strh	r2, [r3, #24]
70004316:	f001 fb1f 	bl	0x70005958
7000431a:	bd00      	pop	{pc}
7000431c:	0060      	lsls	r0, r4, #1
7000431e:	a071      	add	r0, pc, #452	@ (adr r0, 0x700044e4)
70004320:	b57f      	push	{r0, r1, r2, r3, r4, r5, r6, lr}
70004322:	000d      	movs	r5, r1
70004324:	2400      	movs	r4, #0
70004326:	2800      	cmp	r0, #0
70004328:	d003      	beq.n	0x70004332
7000432a:	2801      	cmp	r0, #1
7000432c:	d104      	bne.n	0x70004338
7000432e:	4c0b      	ldr	r4, [pc, #44]	@ (0x7000435c)
70004330:	e00d      	b.n	0x7000434e
70004332:	4c0a      	ldr	r4, [pc, #40]	@ (0x7000435c)
70004334:	1f24      	subs	r4, r4, #4
70004336:	e00a      	b.n	0x7000434e
70004338:	2200      	movs	r2, #0
7000433a:	9201      	str	r2, [sp, #4]
7000433c:	9202      	str	r2, [sp, #8]
7000433e:	9203      	str	r2, [sp, #12]
70004340:	9200      	str	r2, [sp, #0]
70004342:	4a07      	ldr	r2, [pc, #28]	@ (0x70004360)
70004344:	2300      	movs	r3, #0
70004346:	a107      	add	r1, pc, #28	@ (adr r1, 0x70004364)
70004348:	a00d      	add	r0, pc, #52	@ (adr r0, 0x70004380)
7000434a:	f001 fb2d 	bl	0x700059a8
7000434e:	8821      	ldrh	r1, [r4, #0]
70004350:	0020      	movs	r0, r4
70004352:	4329      	orrs	r1, r5
70004354:	f002 f924 	bl	0x700065a0
70004358:	bd7f      	pop	{r0, r1, r2, r3, r4, r5, r6, pc}
7000435a:	0000      	movs	r0, r0
7000435c:	005c      	lsls	r4, r3, #1
7000435e:	a071      	add	r0, pc, #452	@ (adr r0, 0x70004524)
70004360:	12b3      	asrs	r3, r6, #10
70004362:	0000      	movs	r0, r0
70004364:	6168      	str	r0, [r5, #20]
70004366:	5c6c      	ldrb	r4, [r5, r1]
70004368:	6570      	str	r0, [r6, #84]	@ 0x54
7000436a:	6972      	ldr	r2, [r6, #20]
7000436c:	6870      	ldr	r0, [r6, #4]
7000436e:	7265      	strb	r5, [r4, #9]
70004370:	6c61      	ldr	r1, [r4, #68]	@ 0x44
70004372:	735c      	strb	r4, [r3, #13]
70004374:	6372      	str	r2, [r6, #52]	@ 0x34
70004376:	725c      	strb	r4, [r3, #9]
70004378:	6374      	str	r4, [r6, #52]	@ 0x34
7000437a:	632e      	str	r6, [r5, #48]	@ 0x30
7000437c:	0000      	movs	r0, r0
7000437e:	0000      	movs	r0, r0
70004380:	0030      	movs	r0, r6
70004382:	0000      	movs	r0, r0
70004384:	b57f      	push	{r0, r1, r2, r3, r4, r5, r6, lr}
70004386:	000d      	movs	r5, r1
70004388:	2400      	movs	r4, #0
7000438a:	2800      	cmp	r0, #0
7000438c:	d003      	beq.n	0x70004396
7000438e:	2801      	cmp	r0, #1
70004390:	d104      	bne.n	0x7000439c
70004392:	4c0a      	ldr	r4, [pc, #40]	@ (0x700043bc)
70004394:	e00d      	b.n	0x700043b2
70004396:	4c09      	ldr	r4, [pc, #36]	@ (0x700043bc)
70004398:	1f24      	subs	r4, r4, #4
7000439a:	e00a      	b.n	0x700043b2
7000439c:	2200      	movs	r2, #0
7000439e:	9201      	str	r2, [sp, #4]
700043a0:	9202      	str	r2, [sp, #8]
700043a2:	9203      	str	r2, [sp, #12]
700043a4:	9200      	str	r2, [sp, #0]
700043a6:	4a06      	ldr	r2, [pc, #24]	@ (0x700043c0)
700043a8:	2300      	movs	r3, #0
700043aa:	a106      	add	r1, pc, #24	@ (adr r1, 0x700043c4)
700043ac:	a00c      	add	r0, pc, #48	@ (adr r0, 0x700043e0)
700043ae:	f001 fafb 	bl	0x700059a8
700043b2:	0029      	movs	r1, r5
700043b4:	0020      	movs	r0, r4
700043b6:	f002 f8f3 	bl	0x700065a0
700043ba:	bd7f      	pop	{r0, r1, r2, r3, r4, r5, r6, pc}
700043bc:	005c      	lsls	r4, r3, #1
700043be:	a071      	add	r0, pc, #452	@ (adr r0, 0x70004584)
700043c0:	12f6      	asrs	r6, r6, #11
700043c2:	0000      	movs	r0, r0
700043c4:	6168      	str	r0, [r5, #20]
700043c6:	5c6c      	ldrb	r4, [r5, r1]
700043c8:	6570      	str	r0, [r6, #84]	@ 0x54
700043ca:	6972      	ldr	r2, [r6, #20]
700043cc:	6870      	ldr	r0, [r6, #4]
700043ce:	7265      	strb	r5, [r4, #9]
700043d0:	6c61      	ldr	r1, [r4, #68]	@ 0x44
700043d2:	735c      	strb	r4, [r3, #13]
700043d4:	6372      	str	r2, [r6, #52]	@ 0x34
700043d6:	725c      	strb	r4, [r3, #9]
700043d8:	6374      	str	r4, [r6, #52]	@ 0x34
700043da:	632e      	str	r6, [r5, #48]	@ 0x30
700043dc:	0000      	movs	r0, r0
700043de:	0000      	movs	r0, r0
700043e0:	0030      	movs	r0, r6
700043e2:	0000      	movs	r0, r0
700043e4:	b51f      	push	{r0, r1, r2, r3, r4, lr}
700043e6:	000c      	movs	r4, r1
700043e8:	0609      	lsls	r1, r1, #24
700043ea:	4a12      	ldr	r2, [pc, #72]	@ (0x70004434)
700043ec:	0e09      	lsrs	r1, r1, #24
700043ee:	0003      	movs	r3, r0
700043f0:	f001 eac2 	blx	0x70005978
700043f4:	0507      	lsls	r7, r0, #20
700043f6:	0907      	lsrs	r7, r0, #4
700043f8:	0e09      	lsrs	r1, r1, #24
700043fa:	0e0e      	lsrs	r6, r1, #24
700043fc:	0011      	movs	r1, r2
700043fe:	8014      	strh	r4, [r2, #0]
70004400:	e015      	b.n	0x7000442e
70004402:	8094      	strh	r4, [r2, #4]
70004404:	e013      	b.n	0x7000442e
70004406:	2002      	movs	r0, #2
70004408:	f001 ff02 	bl	0x70006210
7000440c:	0a21      	lsrs	r1, r4, #8
7000440e:	2003      	movs	r0, #3
70004410:	f001 fefe 	bl	0x70006210
70004414:	e00b      	b.n	0x7000442e
70004416:	2200      	movs	r2, #0
70004418:	9201      	str	r2, [sp, #4]
7000441a:	9202      	str	r2, [sp, #8]
7000441c:	9203      	str	r2, [sp, #12]
7000441e:	9200      	str	r2, [sp, #0]
70004420:	229d      	movs	r2, #157	@ 0x9d
70004422:	0152      	lsls	r2, r2, #5
70004424:	2300      	movs	r3, #0
70004426:	a104      	add	r1, pc, #16	@ (adr r1, 0x70004438)
70004428:	a00a      	add	r0, pc, #40	@ (adr r0, 0x70004454)
7000442a:	f001 fabd 	bl	0x700059a8
7000442e:	f001 fa93 	bl	0x70005958
70004432:	bd1f      	pop	{r0, r1, r2, r3, r4, pc}
70004434:	0060      	lsls	r0, r4, #1
70004436:	a071      	add	r0, pc, #452	@ (adr r0, 0x700045fc)
70004438:	6168      	str	r0, [r5, #20]
7000443a:	5c6c      	ldrb	r4, [r5, r1]
7000443c:	6570      	str	r0, [r6, #84]	@ 0x54
7000443e:	6972      	ldr	r2, [r6, #20]
70004440:	6870      	ldr	r0, [r6, #4]
70004442:	7265      	strb	r5, [r4, #9]
70004444:	6c61      	ldr	r1, [r4, #68]	@ 0x44
70004446:	735c      	strb	r4, [r3, #13]
70004448:	6372      	str	r2, [r6, #52]	@ 0x34
7000444a:	725c      	strb	r4, [r3, #9]
7000444c:	6374      	str	r4, [r6, #52]	@ 0x34
7000444e:	632e      	str	r6, [r5, #48]	@ 0x30
70004450:	0000      	movs	r0, r0
70004452:	0000      	movs	r0, r0
70004454:	0030      	movs	r0, r6
70004456:	0000      	movs	r0, r0
70004458:	b50f      	push	{r0, r1, r2, r3, lr}
7000445a:	a802      	add	r0, sp, #8
7000445c:	f001 fdfe 	bl	0x7000605c
70004460:	4668      	mov	r0, sp
70004462:	f001 fde1 	bl	0x70006028
70004466:	a802      	add	r0, sp, #8
70004468:	f001 ff32 	bl	0x700062d0
7000446c:	2800      	cmp	r0, #0
7000446e:	d004      	beq.n	0x7000447a
70004470:	4668      	mov	r0, sp
70004472:	f001 ff2d 	bl	0x700062d0
70004476:	2800      	cmp	r0, #0
70004478:	d10e      	bne.n	0x70004498
7000447a:	2000      	movs	r0, #0
7000447c:	466b      	mov	r3, sp
7000447e:	7018      	strb	r0, [r3, #0]
70004480:	7058      	strb	r0, [r3, #1]
70004482:	7098      	strb	r0, [r3, #2]
70004484:	2001      	movs	r0, #1
70004486:	70d8      	strb	r0, [r3, #3]
70004488:	7158      	strb	r0, [r3, #5]
7000448a:	7118      	strb	r0, [r3, #4]
7000448c:	4668      	mov	r0, sp
7000448e:	f001 fe5f 	bl	0x70006150
70004492:	2000      	movs	r0, #0
70004494:	b004      	add	sp, #16
70004496:	bd00      	pop	{pc}
70004498:	2001      	movs	r0, #1
7000449a:	e7fb      	b.n	0x70004494
7000449c:	4901      	ldr	r1, [pc, #4]	@ (0x700044a4)
7000449e:	2001      	movs	r0, #1
700044a0:	8288      	strh	r0, [r1, #20]
700044a2:	4770      	bx	lr
700044a4:	0060      	lsls	r0, r4, #1
700044a6:	a071      	add	r0, pc, #452	@ (adr r0, 0x7000466c)
700044a8:	b570      	push	{r4, r5, r6, lr}
700044aa:	4d06      	ldr	r5, [pc, #24]	@ (0x700044c4)
700044ac:	2400      	movs	r4, #0
700044ae:	2100      	movs	r1, #0
700044b0:	5d28      	ldrb	r0, [r5, r4]
700044b2:	2201      	movs	r2, #1
700044b4:	000b      	movs	r3, r1
700044b6:	f002 f857 	bl	0x70006568
700044ba:	1c64      	adds	r4, r4, #1
700044bc:	2c05      	cmp	r4, #5
700044be:	d3f6      	bcc.n	0x700044ae
700044c0:	bd70      	pop	{r4, r5, r6, pc}
700044c2:	0000      	movs	r0, r0
700044c4:	2fc9      	cmp	r7, #201	@ 0xc9
700044c6:	0001      	movs	r1, r0
700044c8:	b570      	push	{r4, r5, r6, lr}
700044ca:	4d0c      	ldr	r5, [pc, #48]	@ (0x700044fc)
700044cc:	2400      	movs	r4, #0
700044ce:	2200      	movs	r2, #0
700044d0:	5d28      	ldrb	r0, [r5, r4]
700044d2:	0011      	movs	r1, r2
700044d4:	0013      	movs	r3, r2
700044d6:	f002 f847 	bl	0x70006568
700044da:	1c64      	adds	r4, r4, #1
700044dc:	2c05      	cmp	r4, #5
700044de:	d3f6      	bcc.n	0x700044ce
700044e0:	4d06      	ldr	r5, [pc, #24]	@ (0x700044fc)
700044e2:	2400      	movs	r4, #0
700044e4:	1d6d      	adds	r5, r5, #5
700044e6:	2200      	movs	r2, #0
700044e8:	5d28      	ldrb	r0, [r5, r4]
700044ea:	0011      	movs	r1, r2
700044ec:	0013      	movs	r3, r2
700044ee:	f002 f83b 	bl	0x70006568
700044f2:	1c64      	adds	r4, r4, #1
700044f4:	2c05      	cmp	r4, #5
700044f6:	d3f6      	bcc.n	0x700044e6
700044f8:	bd70      	pop	{r4, r5, r6, pc}
700044fa:	0000      	movs	r0, r0
700044fc:	2fc4      	cmp	r7, #196	@ 0xc4
700044fe:	0001      	movs	r1, r0
70004500:	b570      	push	{r4, r5, r6, lr}
70004502:	4d06      	ldr	r5, [pc, #24]	@ (0x7000451c)
70004504:	2400      	movs	r4, #0
70004506:	2200      	movs	r2, #0
70004508:	5d28      	ldrb	r0, [r5, r4]
7000450a:	0011      	movs	r1, r2
7000450c:	2301      	movs	r3, #1
7000450e:	f002 f82b 	bl	0x70006568
70004512:	1c64      	adds	r4, r4, #1
70004514:	2c05      	cmp	r4, #5
70004516:	d3f6      	bcc.n	0x70004506
70004518:	bd70      	pop	{r4, r5, r6, pc}
7000451a:	0000      	movs	r0, r0
7000451c:	2fc4      	cmp	r7, #196	@ 0xc4
7000451e:	0001      	movs	r1, r0
70004520:	4903      	ldr	r1, [pc, #12]	@ (0x70004530)
70004522:	0002      	movs	r2, r0
70004524:	8a89      	ldrh	r1, [r1, #20]
70004526:	2000      	movs	r0, #0
70004528:	0549      	lsls	r1, r1, #21
7000452a:	0fc9      	lsrs	r1, r1, #31
7000452c:	6011      	str	r1, [r2, #0]
7000452e:	4770      	bx	lr
70004530:	0a00      	lsrs	r0, r0, #8
70004532:	a070      	add	r0, pc, #448	@ (adr r0, 0x700046f4)
70004534:	4903      	ldr	r1, [pc, #12]	@ (0x70004544)
70004536:	0002      	movs	r2, r0
70004538:	8889      	ldrh	r1, [r1, #4]
7000453a:	2000      	movs	r0, #0
7000453c:	0709      	lsls	r1, r1, #28
7000453e:	0fc9      	lsrs	r1, r1, #31
70004540:	6011      	str	r1, [r2, #0]
70004542:	4770      	bx	lr
70004544:	0a00      	lsrs	r0, r0, #8
70004546:	a070      	add	r0, pc, #448	@ (adr r0, 0x70004708)
70004548:	b510      	push	{r4, lr}
7000454a:	6800      	ldr	r0, [r0, #0]
7000454c:	21ff      	movs	r1, #255	@ 0xff
7000454e:	0202      	lsls	r2, r0, #8
70004550:	3101      	adds	r1, #1
70004552:	2014      	movs	r0, #20
70004554:	f000 fcb0 	bl	0x70004eb8
70004558:	bd10      	pop	{r4, pc}
7000455a:	b510      	push	{r4, lr}
7000455c:	6800      	ldr	r0, [r0, #0]
7000455e:	2110      	movs	r1, #16
70004560:	0102      	lsls	r2, r0, #4
70004562:	2000      	movs	r0, #0
70004564:	f000 fca8 	bl	0x70004eb8
70004568:	bd10      	pop	{r4, pc}
7000456a:	b510      	push	{r4, lr}
7000456c:	6800      	ldr	r0, [r0, #0]
7000456e:	2108      	movs	r1, #8
70004570:	00c2      	lsls	r2, r0, #3
70004572:	2000      	movs	r0, #0
70004574:	f000 fca0 	bl	0x70004eb8
70004578:	bd10      	pop	{r4, pc}
7000457a:	b510      	push	{r4, lr}
7000457c:	6802      	ldr	r2, [r0, #0]
7000457e:	2101      	movs	r1, #1
70004580:	2000      	movs	r0, #0
70004582:	f000 fc99 	bl	0x70004eb8
70004586:	bd10      	pop	{r4, pc}
70004588:	b510      	push	{r4, lr}
7000458a:	6800      	ldr	r0, [r0, #0]
7000458c:	2101      	movs	r1, #1
7000458e:	0382      	lsls	r2, r0, #14
70004590:	0389      	lsls	r1, r1, #14
70004592:	2028      	movs	r0, #40	@ 0x28
70004594:	f000 fc90 	bl	0x70004eb8
70004598:	bd10      	pop	{r4, pc}
7000459a:	b510      	push	{r4, lr}
7000459c:	6800      	ldr	r0, [r0, #0]
7000459e:	2101      	movs	r1, #1
700045a0:	03c2      	lsls	r2, r0, #15
700045a2:	03c9      	lsls	r1, r1, #15
700045a4:	2028      	movs	r0, #40	@ 0x28
700045a6:	f000 fc87 	bl	0x70004eb8
700045aa:	bd10      	pop	{r4, pc}
700045ac:	b570      	push	{r4, r5, r6, lr}
700045ae:	6802      	ldr	r2, [r0, #0]
700045b0:	2510      	movs	r5, #16
700045b2:	4809      	ldr	r0, [pc, #36]	@ (0x700045d8)
700045b4:	2400      	movs	r4, #0
700045b6:	0029      	movs	r1, r5
700045b8:	f001 ff36 	bl	0x70006428
700045bc:	0002      	movs	r2, r0
700045be:	4806      	ldr	r0, [pc, #24]	@ (0x700045d8)
700045c0:	0029      	movs	r1, r5
700045c2:	f001 ff4d 	bl	0x70006460
700045c6:	0400      	lsls	r0, r0, #16
700045c8:	0902      	lsrs	r2, r0, #4
700045ca:	210f      	movs	r1, #15
700045cc:	0309      	lsls	r1, r1, #12
700045ce:	2000      	movs	r0, #0
700045d0:	f000 fc72 	bl	0x70004eb8
700045d4:	0020      	movs	r0, r4
700045d6:	bd70      	pop	{r4, r5, r6, pc}
700045d8:	84a0      	strh	r0, [r4, #36]	@ 0x24
700045da:	1000      	asrs	r0, r0, #32
700045dc:	b510      	push	{r4, lr}
700045de:	6802      	ldr	r2, [r0, #0]
700045e0:	2410      	movs	r4, #16
700045e2:	4808      	ldr	r0, [pc, #32]	@ (0x70004604)
700045e4:	0021      	movs	r1, r4
700045e6:	f001 ff1f 	bl	0x70006428
700045ea:	0002      	movs	r2, r0
700045ec:	4805      	ldr	r0, [pc, #20]	@ (0x70004604)
700045ee:	0021      	movs	r1, r4
700045f0:	f001 ff36 	bl	0x70006460
700045f4:	0402      	lsls	r2, r0, #16
700045f6:	0c12      	lsrs	r2, r2, #16
700045f8:	210f      	movs	r1, #15
700045fa:	2008      	movs	r0, #8
700045fc:	f000 fc5c 	bl	0x70004eb8
70004600:	bd10      	pop	{r4, pc}
70004602:	0000      	movs	r0, r0
70004604:	8460      	strh	r0, [r4, #34]	@ 0x22
70004606:	1000      	asrs	r0, r0, #32
70004608:	4903      	ldr	r1, [pc, #12]	@ (0x70004618)
7000460a:	0002      	movs	r2, r0
7000460c:	8809      	ldrh	r1, [r1, #0]
7000460e:	2000      	movs	r0, #0
70004610:	0689      	lsls	r1, r1, #26
70004612:	0fc9      	lsrs	r1, r1, #31
70004614:	6011      	str	r1, [r2, #0]
70004616:	4770      	bx	lr
70004618:	0a00      	lsrs	r0, r0, #8
7000461a:	a070      	add	r0, pc, #448	@ (adr r0, 0x700047dc)
7000461c:	b530      	push	{r4, r5, lr}
7000461e:	6802      	ldr	r2, [r0, #0]
70004620:	0004      	movs	r4, r0
70004622:	4804      	ldr	r0, [pc, #16]	@ (0x70004634)
70004624:	2500      	movs	r5, #0
70004626:	2110      	movs	r1, #16
70004628:	f001 fefe 	bl	0x70006428
7000462c:	6020      	str	r0, [r4, #0]
7000462e:	0028      	movs	r0, r5
70004630:	bd30      	pop	{r4, r5, pc}
70004632:	0000      	movs	r0, r0
70004634:	8460      	strh	r0, [r4, #34]	@ 0x22
70004636:	1000      	asrs	r0, r0, #32
70004638:	b510      	push	{r4, lr}
7000463a:	2220      	movs	r2, #32
7000463c:	2400      	movs	r4, #0
7000463e:	0011      	movs	r1, r2
70004640:	2024      	movs	r0, #36	@ 0x24
70004642:	f000 fc39 	bl	0x70004eb8
70004646:	2210      	movs	r2, #16
70004648:	0011      	movs	r1, r2
7000464a:	2024      	movs	r0, #36	@ 0x24
7000464c:	f000 fc34 	bl	0x70004eb8
70004650:	4905      	ldr	r1, [pc, #20]	@ (0x70004668)
70004652:	8888      	ldrh	r0, [r1, #4]
70004654:	0bc0      	lsrs	r0, r0, #15
70004656:	d1fc      	bne.n	0x70004652
70004658:	2101      	movs	r1, #1
7000465a:	0249      	lsls	r1, r1, #9
7000465c:	000a      	movs	r2, r1
7000465e:	2024      	movs	r0, #36	@ 0x24
70004660:	f000 fc2a 	bl	0x70004eb8
70004664:	0020      	movs	r0, r4
70004666:	bd10      	pop	{r4, pc}
70004668:	0a20      	lsrs	r0, r4, #8
7000466a:	a070      	add	r0, pc, #448	@ (adr r0, 0x7000482c)
7000466c:	2001      	movs	r0, #1
7000466e:	0700      	lsls	r0, r0, #28
70004670:	4770      	bx	lr
70004672:	0000      	movs	r0, r0
70004674:	b570      	push	{r4, r5, r6, lr}
70004676:	0005      	movs	r5, r0
70004678:	0008      	movs	r0, r1
7000467a:	0016      	movs	r6, r2
7000467c:	4a14      	ldr	r2, [pc, #80]	@ (0x700046d0)
7000467e:	2100      	movs	r1, #0
70004680:	2800      	cmp	r0, #0
70004682:	7511      	strb	r1, [r2, #20]
70004684:	d106      	bne.n	0x70004694
70004686:	6829      	ldr	r1, [r5, #0]
70004688:	2030      	movs	r0, #48	@ 0x30
7000468a:	7008      	strb	r0, [r1, #0]
7000468c:	6828      	ldr	r0, [r5, #0]
7000468e:	1c40      	adds	r0, r0, #1
70004690:	6028      	str	r0, [r5, #0]
70004692:	bd70      	pop	{r4, r5, r6, pc}
70004694:	4c0e      	ldr	r4, [pc, #56]	@ (0x700046d0)
70004696:	3414      	adds	r4, #20
70004698:	0031      	movs	r1, r6
7000469a:	f002 eff2 	blx	0x70007680
7000469e:	290a      	cmp	r1, #10
700046a0:	d201      	bcs.n	0x700046a6
700046a2:	3130      	adds	r1, #48	@ 0x30
700046a4:	e005      	b.n	0x700046b2
700046a6:	2e10      	cmp	r6, #16
700046a8:	d105      	bne.n	0x700046b6
700046aa:	a20a      	add	r2, pc, #40	@ (adr r2, 0x700046d4)
700046ac:	1889      	adds	r1, r1, r2
700046ae:	3920      	subs	r1, #32
700046b0:	7d89      	ldrb	r1, [r1, #22]
700046b2:	1e64      	subs	r4, r4, #1
700046b4:	7021      	strb	r1, [r4, #0]
700046b6:	2800      	cmp	r0, #0
700046b8:	d1ee      	bne.n	0x70004698
700046ba:	e005      	b.n	0x700046c8
700046bc:	6829      	ldr	r1, [r5, #0]
700046be:	1c64      	adds	r4, r4, #1
700046c0:	7008      	strb	r0, [r1, #0]
700046c2:	6828      	ldr	r0, [r5, #0]
700046c4:	1c40      	adds	r0, r0, #1
700046c6:	6028      	str	r0, [r5, #0]
700046c8:	7820      	ldrb	r0, [r4, #0]
700046ca:	2800      	cmp	r0, #0
700046cc:	d1f6      	bne.n	0x700046bc
700046ce:	bd70      	pop	{r4, r5, r6, pc}
700046d0:	20e4      	movs	r0, #228	@ 0xe4
700046d2:	0001      	movs	r1, r0
700046d4:	6261      	str	r1, [r4, #36]	@ 0x24
700046d6:	6463      	str	r3, [r4, #68]	@ 0x44
700046d8:	6665      	str	r5, [r4, #100]	@ 0x64
700046da:	0000      	movs	r0, r0
700046dc:	b570      	push	{r4, r5, r6, lr}
700046de:	4b17      	ldr	r3, [pc, #92]	@ (0x7000473c)
700046e0:	2200      	movs	r2, #0
700046e2:	781d      	ldrb	r5, [r3, #0]
700046e4:	785c      	ldrb	r4, [r3, #1]
700046e6:	2d01      	cmp	r5, #1
700046e8:	d126      	bne.n	0x70004738
700046ea:	281b      	cmp	r0, #27
700046ec:	d024      	beq.n	0x70004738
700046ee:	789b      	ldrb	r3, [r3, #2]
700046f0:	4d13      	ldr	r5, [pc, #76]	@ (0x70004740)
700046f2:	e01f      	b.n	0x70004734
700046f4:	0096      	lsls	r6, r2, #2
700046f6:	59ae      	ldr	r6, [r5, r6]
700046f8:	428e      	cmp	r6, r1
700046fa:	d11a      	bne.n	0x70004732
700046fc:	4d10      	ldr	r5, [pc, #64]	@ (0x70004740)
700046fe:	4b11      	ldr	r3, [pc, #68]	@ (0x70004744)
70004700:	3518      	adds	r5, #24
70004702:	4299      	cmp	r1, r3
70004704:	d110      	bne.n	0x70004728
70004706:	2805      	cmp	r0, #5
70004708:	d003      	beq.n	0x70004712
7000470a:	2808      	cmp	r0, #8
7000470c:	d001      	beq.n	0x70004712
7000470e:	2821      	cmp	r0, #33	@ 0x21
70004710:	d103      	bne.n	0x7000471a
70004712:	1929      	adds	r1, r5, r4
70004714:	3120      	adds	r1, #32
70004716:	7d8a      	ldrb	r2, [r1, #22]
70004718:	e002      	b.n	0x70004720
7000471a:	1929      	adds	r1, r5, r4
7000471c:	3140      	adds	r1, #64	@ 0x40
7000471e:	7c4a      	ldrb	r2, [r1, #17]
70004720:	210a      	movs	r1, #10
70004722:	f001 fed9 	bl	0x700064d8
70004726:	e007      	b.n	0x70004738
70004728:	211b      	movs	r1, #27
7000472a:	4351      	muls	r1, r2
7000472c:	1949      	adds	r1, r1, r5
7000472e:	5d0a      	ldrb	r2, [r1, r4]
70004730:	e7f6      	b.n	0x70004720
70004732:	1c52      	adds	r2, r2, #1
70004734:	429a      	cmp	r2, r3
70004736:	d3dd      	bcc.n	0x700046f4
70004738:	2000      	movs	r0, #0
7000473a:	bd70      	pop	{r4, r5, r6, pc}
7000473c:	2ed8      	cmp	r6, #216	@ 0xd8
7000473e:	0001      	movs	r1, r0
70004740:	87a0      	strh	r0, [r4, #60]	@ 0x3c
70004742:	1000      	asrs	r0, r0, #32
70004744:	b980      	cbnz	r0, 0x70004768
70004746:	002a      	movs	r2, r5
70004748:	b570      	push	{r4, r5, r6, lr}
7000474a:	4c09      	ldr	r4, [pc, #36]	@ (0x70004770)
7000474c:	0005      	movs	r5, r0
7000474e:	0002      	movs	r2, r0
70004750:	213a      	movs	r1, #58	@ 0x3a
70004752:	0020      	movs	r0, r4
70004754:	f001 f8c4 	bl	0x700058e0
70004758:	4806      	ldr	r0, [pc, #24]	@ (0x70004774)
7000475a:	78c0      	ldrb	r0, [r0, #3]
7000475c:	2800      	cmp	r0, #0
7000475e:	d006      	beq.n	0x7000476e
70004760:	2801      	cmp	r0, #1
70004762:	d104      	bne.n	0x7000476e
70004764:	002a      	movs	r2, r5
70004766:	213b      	movs	r1, #59	@ 0x3b
70004768:	0020      	movs	r0, r4
7000476a:	f001 f8b9 	bl	0x700058e0
7000476e:	bd70      	pop	{r4, r5, r6, pc}
70004770:	0d00      	lsrs	r0, r0, #20
70004772:	a070      	add	r0, pc, #448	@ (adr r0, 0x70004934)
70004774:	2ed8      	cmp	r6, #216	@ 0xd8
70004776:	0001      	movs	r1, r0
70004778:	0001      	movs	r1, r0
7000477a:	b510      	push	{r4, lr}
7000477c:	4801      	ldr	r0, [pc, #4]	@ (0x70004784)
7000477e:	f001 fe9d 	bl	0x700064bc
70004782:	bd10      	pop	{r4, pc}
70004784:	0d00      	lsrs	r0, r0, #20
70004786:	a070      	add	r0, pc, #448	@ (adr r0, 0x70004948)
70004788:	230c      	movs	r3, #12
7000478a:	4358      	muls	r0, r3
7000478c:	4b03      	ldr	r3, [pc, #12]	@ (0x7000479c)
7000478e:	b510      	push	{r4, lr}
70004790:	18c0      	adds	r0, r0, r3
70004792:	6840      	ldr	r0, [r0, #4]
70004794:	f001 f8a4 	bl	0x700058e0
70004798:	bd10      	pop	{r4, pc}
7000479a:	0000      	movs	r0, r0
7000479c:	873c      	strh	r4, [r7, #56]	@ 0x38
7000479e:	1000      	asrs	r0, r0, #32
700047a0:	000a      	movs	r2, r1
700047a2:	0001      	movs	r1, r0
700047a4:	b510      	push	{r4, lr}
700047a6:	4802      	ldr	r0, [pc, #8]	@ (0x700047b0)
700047a8:	f001 f89a 	bl	0x700058e0
700047ac:	bd10      	pop	{r4, pc}
700047ae:	0000      	movs	r0, r0
700047b0:	0c80      	lsrs	r0, r0, #18
700047b2:	a070      	add	r0, pc, #448	@ (adr r0, 0x70004974)
700047b4:	000a      	movs	r2, r1
700047b6:	0001      	movs	r1, r0
700047b8:	b510      	push	{r4, lr}
700047ba:	4802      	ldr	r0, [pc, #8]	@ (0x700047c4)
700047bc:	f001 f890 	bl	0x700058e0
700047c0:	bd10      	pop	{r4, pc}
700047c2:	0000      	movs	r0, r0
700047c4:	0d00      	lsrs	r0, r0, #20
700047c6:	a070      	add	r0, pc, #448	@ (adr r0, 0x70004988)
700047c8:	0001      	movs	r1, r0
700047ca:	b500      	push	{lr}
700047cc:	2000      	movs	r0, #0
700047ce:	f001 fbef 	bl	0x70005fb0
700047d2:	0740      	lsls	r0, r0, #29
700047d4:	d501      	bpl.n	0x700047da
700047d6:	2000      	movs	r0, #0
700047d8:	bd00      	pop	{pc}
700047da:	2001      	movs	r0, #1
700047dc:	bd00      	pop	{pc}
700047de:	0000      	movs	r0, r0
700047e0:	b5f3      	push	{r0, r1, r4, r5, r6, r7, lr}
700047e2:	000d      	movs	r5, r1
700047e4:	2400      	movs	r4, #0
700047e6:	b0a1      	sub	sp, #132	@ 0x84
700047e8:	2701      	movs	r7, #1
700047ea:	466e      	mov	r6, sp
700047ec:	482c      	ldr	r0, [pc, #176]	@ (0x700048a0)
700047ee:	5d01      	ldrb	r1, [r0, r4]
700047f0:	29ff      	cmp	r1, #255	@ 0xff
700047f2:	d04f      	beq.n	0x70004894
700047f4:	482b      	ldr	r0, [pc, #172]	@ (0x700048a4)
700047f6:	f001 facf 	bl	0x70005d98
700047fa:	2200      	movs	r2, #0
700047fc:	2110      	movs	r1, #16
700047fe:	9020      	str	r0, [sp, #128]	@ 0x80
70004800:	f000 fe78 	bl	0x700054f4
70004804:	9820      	ldr	r0, [sp, #128]	@ 0x80
70004806:	2101      	movs	r1, #1
70004808:	466a      	mov	r2, sp
7000480a:	f000 fe73 	bl	0x700054f4
7000480e:	7830      	ldrb	r0, [r6, #0]
70004810:	2800      	cmp	r0, #0
70004812:	d001      	beq.n	0x70004818
70004814:	0038      	movs	r0, r7
70004816:	40a0      	lsls	r0, r4
70004818:	4a21      	ldr	r2, [pc, #132]	@ (0x700048a0)
7000481a:	3a09      	subs	r2, #9
7000481c:	6811      	ldr	r1, [r2, #0]
7000481e:	4308      	orrs	r0, r1
70004820:	6010      	str	r0, [r2, #0]
70004822:	7831      	ldrb	r1, [r6, #0]
70004824:	2900      	cmp	r1, #0
70004826:	d003      	beq.n	0x70004830
70004828:	9b21      	ldr	r3, [sp, #132]	@ 0x84
7000482a:	0039      	movs	r1, r7
7000482c:	3308      	adds	r3, #8
7000482e:	4099      	lsls	r1, r3
70004830:	4301      	orrs	r1, r0
70004832:	6011      	str	r1, [r2, #0]
70004834:	9821      	ldr	r0, [sp, #132]	@ 0x84
70004836:	230b      	movs	r3, #11
70004838:	4358      	muls	r0, r3
7000483a:	0061      	lsls	r1, r4, #1
7000483c:	1840      	adds	r0, r0, r1
7000483e:	2820      	cmp	r0, #32
70004840:	d20b      	bcs.n	0x7000485a
70004842:	7833      	ldrb	r3, [r6, #0]
70004844:	2100      	movs	r1, #0
70004846:	682a      	ldr	r2, [r5, #0]
70004848:	43c9      	mvns	r1, r1
7000484a:	2b00      	cmp	r3, #0
7000484c:	d002      	beq.n	0x70004854
7000484e:	0039      	movs	r1, r7
70004850:	4081      	lsls	r1, r0
70004852:	43c9      	mvns	r1, r1
70004854:	400a      	ands	r2, r1
70004856:	602a      	str	r2, [r5, #0]
70004858:	e01c      	b.n	0x70004894
7000485a:	2840      	cmp	r0, #64	@ 0x40
7000485c:	d20c      	bcs.n	0x70004878
7000485e:	7833      	ldrb	r3, [r6, #0]
70004860:	2100      	movs	r1, #0
70004862:	686a      	ldr	r2, [r5, #4]
70004864:	43c9      	mvns	r1, r1
70004866:	2b00      	cmp	r3, #0
70004868:	d003      	beq.n	0x70004872
7000486a:	3820      	subs	r0, #32
7000486c:	0039      	movs	r1, r7
7000486e:	4081      	lsls	r1, r0
70004870:	43c9      	mvns	r1, r1
70004872:	400a      	ands	r2, r1
70004874:	606a      	str	r2, [r5, #4]
70004876:	e00d      	b.n	0x70004894
70004878:	2860      	cmp	r0, #96	@ 0x60
7000487a:	d20b      	bcs.n	0x70004894
7000487c:	7833      	ldrb	r3, [r6, #0]
7000487e:	2100      	movs	r1, #0
70004880:	68aa      	ldr	r2, [r5, #8]
70004882:	43c9      	mvns	r1, r1
70004884:	2b00      	cmp	r3, #0
70004886:	d003      	beq.n	0x70004890
70004888:	3840      	subs	r0, #64	@ 0x40
7000488a:	0039      	movs	r1, r7
7000488c:	4081      	lsls	r1, r0
7000488e:	43c9      	mvns	r1, r1
70004890:	400a      	ands	r2, r1
70004892:	60aa      	str	r2, [r5, #8]
70004894:	1c64      	adds	r4, r4, #1
70004896:	2c05      	cmp	r4, #5
70004898:	d3a8      	bcc.n	0x700047ec
7000489a:	b023      	add	sp, #140	@ 0x8c
7000489c:	bdf0      	pop	{r4, r5, r6, r7, pc}
7000489e:	0000      	movs	r0, r0
700048a0:	2fc9      	cmp	r7, #201	@ 0xc9
700048a2:	0001      	movs	r1, r0
700048a4:	0401      	lsls	r1, r0, #16
700048a6:	0000      	movs	r0, r0
700048a8:	b570      	push	{r4, r5, r6, lr}
700048aa:	4d13      	ldr	r5, [pc, #76]	@ (0x700048f8)
700048ac:	0006      	movs	r6, r0
700048ae:	2400      	movs	r4, #0
700048b0:	5d28      	ldrb	r0, [r5, r4]
700048b2:	42b4      	cmp	r4, r6
700048b4:	d103      	bne.n	0x700048be
700048b6:	2201      	movs	r2, #1
700048b8:	2104      	movs	r1, #4
700048ba:	0013      	movs	r3, r2
700048bc:	e002      	b.n	0x700048c4
700048be:	2200      	movs	r2, #0
700048c0:	2104      	movs	r1, #4
700048c2:	0013      	movs	r3, r2
700048c4:	f000 fde2 	bl	0x7000548c
700048c8:	1c64      	adds	r4, r4, #1
700048ca:	2c05      	cmp	r4, #5
700048cc:	d3f0      	bcc.n	0x700048b0
700048ce:	4d0c      	ldr	r5, [pc, #48]	@ (0x70004900)
700048d0:	4a0a      	ldr	r2, [pc, #40]	@ (0x700048fc)
700048d2:	68a9      	ldr	r1, [r5, #8]
700048d4:	68a8      	ldr	r0, [r5, #8]
700048d6:	4281      	cmp	r1, r0
700048d8:	d101      	bne.n	0x700048de
700048da:	1e52      	subs	r2, r2, #1
700048dc:	e008      	b.n	0x700048f0
700048de:	1a44      	subs	r4, r0, r1
700048e0:	4288      	cmp	r0, r1
700048e2:	d200      	bcs.n	0x700048e6
700048e4:	1e64      	subs	r4, r4, #1
700048e6:	4807      	ldr	r0, [pc, #28]	@ (0x70004904)
700048e8:	4360      	muls	r0, r4
700048ea:	0a80      	lsrs	r0, r0, #10
700048ec:	280f      	cmp	r0, #15
700048ee:	d201      	bcs.n	0x700048f4
700048f0:	2a00      	cmp	r2, #0
700048f2:	d1ef      	bne.n	0x700048d4
700048f4:	bd70      	pop	{r4, r5, r6, pc}
700048f6:	0000      	movs	r0, r0
700048f8:	2fc9      	cmp	r7, #201	@ 0xc9
700048fa:	0001      	movs	r1, r0
700048fc:	ffff 0000 	vaddl.u<illegal width 64>	q8, d15, d0
70004900:	0080      	lsls	r0, r0, #2
70004902:	a018      	add	r0, pc, #96	@ (adr r0, 0x70004964)
70004904:	0455      	lsls	r5, r2, #17
70004906:	0000      	movs	r0, r0
70004908:	4901      	ldr	r1, [pc, #4]	@ (0x70004910)
7000490a:	2000      	movs	r0, #0
7000490c:	6008      	str	r0, [r1, #0]
7000490e:	4770      	bx	lr
70004910:	2fc0      	cmp	r7, #192	@ 0xc0
70004912:	0001      	movs	r1, r0
70004914:	b5f7      	push	{r0, r1, r2, r4, r5, r6, r7, lr}
70004916:	000f      	movs	r7, r1
70004918:	0015      	movs	r5, r2
7000491a:	b0a2      	sub	sp, #136	@ 0x88
7000491c:	2400      	movs	r4, #0
7000491e:	466e      	mov	r6, sp
70004920:	0020      	movs	r0, r4
70004922:	3008      	adds	r0, #8
70004924:	2101      	movs	r1, #1
70004926:	4081      	lsls	r1, r0
70004928:	482a      	ldr	r0, [pc, #168]	@ (0x700049d4)
7000492a:	6800      	ldr	r0, [r0, #0]
7000492c:	4201      	tst	r1, r0
7000492e:	d04c      	beq.n	0x700049ca
70004930:	4828      	ldr	r0, [pc, #160]	@ (0x700049d4)
70004932:	1d00      	adds	r0, r0, #4
70004934:	5d01      	ldrb	r1, [r0, r4]
70004936:	29ff      	cmp	r1, #255	@ 0xff
70004938:	d047      	beq.n	0x700049ca
7000493a:	4827      	ldr	r0, [pc, #156]	@ (0x700049d8)
7000493c:	f001 fa2c 	bl	0x70005d98
70004940:	2200      	movs	r2, #0
70004942:	2110      	movs	r1, #16
70004944:	9020      	str	r0, [sp, #128]	@ 0x80
70004946:	f000 fdd5 	bl	0x700054f4
7000494a:	9820      	ldr	r0, [sp, #128]	@ 0x80
7000494c:	2101      	movs	r1, #1
7000494e:	466a      	mov	r2, sp
70004950:	f000 fdd0 	bl	0x700054f4
70004954:	210b      	movs	r1, #11
70004956:	9822      	ldr	r0, [sp, #136]	@ 0x88
70004958:	4361      	muls	r1, r4
7000495a:	0040      	lsls	r0, r0, #1
7000495c:	1808      	adds	r0, r1, r0
7000495e:	2820      	cmp	r0, #32
70004960:	d20e      	bcs.n	0x70004980
70004962:	2101      	movs	r1, #1
70004964:	683a      	ldr	r2, [r7, #0]
70004966:	4081      	lsls	r1, r0
70004968:	420a      	tst	r2, r1
7000496a:	d12e      	bne.n	0x700049ca
7000496c:	7833      	ldrb	r3, [r6, #0]
7000496e:	682a      	ldr	r2, [r5, #0]
70004970:	2b00      	cmp	r3, #0
70004972:	d102      	bne.n	0x7000497a
70004974:	1c40      	adds	r0, r0, #1
70004976:	2101      	movs	r1, #1
70004978:	4081      	lsls	r1, r0
7000497a:	438a      	bics	r2, r1
7000497c:	602a      	str	r2, [r5, #0]
7000497e:	e024      	b.n	0x700049ca
70004980:	2840      	cmp	r0, #64	@ 0x40
70004982:	d210      	bcs.n	0x700049a6
70004984:	0003      	movs	r3, r0
70004986:	3b20      	subs	r3, #32
70004988:	2101      	movs	r1, #1
7000498a:	687a      	ldr	r2, [r7, #4]
7000498c:	4099      	lsls	r1, r3
7000498e:	420a      	tst	r2, r1
70004990:	d11b      	bne.n	0x700049ca
70004992:	7833      	ldrb	r3, [r6, #0]
70004994:	686a      	ldr	r2, [r5, #4]
70004996:	2b00      	cmp	r3, #0
70004998:	d102      	bne.n	0x700049a0
7000499a:	381f      	subs	r0, #31
7000499c:	2101      	movs	r1, #1
7000499e:	4081      	lsls	r1, r0
700049a0:	438a      	bics	r2, r1
700049a2:	606a      	str	r2, [r5, #4]
700049a4:	e011      	b.n	0x700049ca
700049a6:	2860      	cmp	r0, #96	@ 0x60
700049a8:	d20f      	bcs.n	0x700049ca
700049aa:	0003      	movs	r3, r0
700049ac:	3b40      	subs	r3, #64	@ 0x40
700049ae:	2101      	movs	r1, #1
700049b0:	68ba      	ldr	r2, [r7, #8]
700049b2:	4099      	lsls	r1, r3
700049b4:	420a      	tst	r2, r1
700049b6:	d108      	bne.n	0x700049ca
700049b8:	7833      	ldrb	r3, [r6, #0]
700049ba:	68aa      	ldr	r2, [r5, #8]
700049bc:	2b00      	cmp	r3, #0
700049be:	d102      	bne.n	0x700049c6
700049c0:	383f      	subs	r0, #63	@ 0x3f
700049c2:	2101      	movs	r1, #1
700049c4:	4081      	lsls	r1, r0
700049c6:	438a      	bics	r2, r1
700049c8:	60aa      	str	r2, [r5, #8]
700049ca:	1c64      	adds	r4, r4, #1
700049cc:	2c05      	cmp	r4, #5
700049ce:	d3a7      	bcc.n	0x70004920
700049d0:	b025      	add	sp, #148	@ 0x94
700049d2:	bdf0      	pop	{r4, r5, r6, r7, pc}
700049d4:	2fc0      	cmp	r7, #192	@ 0xc0
700049d6:	0001      	movs	r1, r0
700049d8:	0401      	lsls	r1, r0, #16
700049da:	0000      	movs	r0, r0
700049dc:	5000      	str	r0, [r0, r0]
700049de:	e92d 5000 	stmdb	sp!, {ip, lr}
700049e2:	e92d 09a4 	stmdb	sp!, {r2, r5, r7, r8, fp}
700049e6:	fa00 5000 			@ <UNDEFINED> instruction: 0xfa005000
700049ea:	e8bd 5000 	ldmia.w	sp!, {ip, lr}
700049ee:	e8bd 300f 	ldmia.w	sp!, {r0, r1, r2, r3, ip, sp}
700049f2:	e20c      	b.n	0x70004e0e
700049f4:	0009      	movs	r1, r1
700049f6:	e333      	b.n	0x70005060
700049f8:	ff1e 112f 	vrhadd.u16	d1, d14, d31
700049fc:	0000      	movs	r0, r0
700049fe:	e1a0      	b.n	0x70004d42
70004a00:	0601      	lsls	r1, r0, #24
70004a02:	e31c      	b.n	0x7000503e
70004a04:	001a      	movs	r2, r3
70004a06:	0a00      	lsrs	r0, r0, #8
70004a08:	0807      	lsrs	r7, r0, #32
70004a0a:	e31c      	b.n	0x70005046
70004a0c:	0006      	movs	r6, r0
70004a0e:	0a00      	lsrs	r0, r0, #8
70004a10:	0008      	movs	r0, r1
70004a12:	e310      	b.n	0x70005036
70004a14:	0001      	movs	r1, r0
70004a16:	1a00      	subs	r0, r0, r0
70004a18:	0002      	movs	r2, r0
70004a1a:	e270      	b.n	0x70004efe
70004a1c:	ff1e e12f 	vrhadd.u16	d14, d14, d31
70004a20:	178c      	asrs	r4, r1, #30
70004a22:	e1e0      	b.n	0x70004de6
70004a24:	1081      	asrs	r1, r0, #2
70004a26:	e1b0      	b.n	0x70004d8a
70004a28:	ff1e e12f 	vrhadd.u16	d14, d14, d31
70004a2c:	120e      	asrs	r6, r1, #8
70004a2e:	e3a0      	b.n	0x70005172
70004a30:	0e80      	lsrs	r0, r0, #26
70004a32:	e011      	b.n	0x70004a58
70004a34:	0203      	lsls	r3, r0, #8
70004a36:	2380      	movs	r3, #128	@ 0x80
70004a38:	0003      	movs	r3, r0
70004a3a:	e92d 500c 	stmdb	sp!, {r2, r3, ip, lr}
70004a3e:	e92d 0c4e 	stmdb	sp!, {r1, r2, r3, r6, sl, fp}
70004a42:	eb00 500c 	add.w	r0, r0, ip, lsl #20
70004a46:	e8bd c000 	ldmia.w	sp!, {lr, pc}
70004a4a:	e1a0      	b.n	0x70004d8e
70004a4c:	0003      	movs	r3, r0
70004a4e:	e8bd 3000 	ldmia.w	sp!, {ip, sp}
70004a52:	e59c      	b.n	0x7000458e
70004a54:	320f      	adds	r2, #15
70004a56:	e3c3      	b.n	0x700051e0
70004a58:	3000      	adds	r0, #0
70004a5a:	e183      	b.n	0x70004d64
70004a5c:	3000      	adds	r0, #0
70004a5e:	e58c      	b.n	0x7000457a
70004a60:	2000      	movs	r0, #0
70004a62:	e10f      	b.n	0x70004c84
70004a64:	220f      	movs	r2, #15
70004a66:	e3c2      	b.n	0x700051ee
70004a68:	2000      	movs	r0, #0
70004a6a:	e182      	b.n	0x70004d72
70004a6c:	f002 e128 	blx	0x70406cc0
70004a70:	ff1e e12f 	vrhadd.u16	d14, d14, d31
70004a74:	0800      	lsrs	r0, r0, #32
70004a76:	e01c      	b.n	0x70004ab2
70004a78:	0001      	movs	r1, r0
70004a7a:	13a0      	asrs	r0, r4, #14
70004a7c:	ff1e e12f 	vrhadd.u16	d14, d14, d31
70004a80:	0003      	movs	r3, r0
70004a82:	e352      	b.n	0x7000512a
70004a84:	0029      	movs	r1, r5
70004a86:	9a00      	ldr	r2, [sp, #0]
70004a88:	c003      	stmia	r0!, {r0, r1}
70004a8a:	e210      	b.n	0x70004eae
70004a8c:	0008      	movs	r0, r1
70004a8e:	0a00      	lsrs	r0, r0, #8
70004a90:	3001      	adds	r0, #1
70004a92:	e4d1      	b.n	0x70004438
70004a94:	0002      	movs	r2, r0
70004a96:	e35c      	b.n	0x70005152
70004a98:	200c      	movs	r0, #12
70004a9a:	e082      	b.n	0x70004ba2
70004a9c:	c001      	stmia	r0!, {r0}
70004a9e:	94d1      	str	r4, [sp, #836]	@ 0x344
70004aa0:	3001      	adds	r0, #1
70004aa2:	e4c0      	b.n	0x70004426
70004aa4:	3001      	adds	r0, #1
70004aa6:	34d1      	adds	r4, #209	@ 0xd1
70004aa8:	c001      	stmia	r0!, {r0}
70004aaa:	94c0      	str	r4, [sp, #768]	@ 0x300
70004aac:	2004      	movs	r0, #4
70004aae:	e242      	b.n	0x70004f36
70004ab0:	3001      	adds	r0, #1
70004ab2:	34c0      	adds	r4, #192	@ 0xc0
70004ab4:	3003      	adds	r0, #3
70004ab6:	e211      	b.n	0x70004edc
70004ab8:	0024      	movs	r4, r4
70004aba:	0a00      	lsrs	r0, r0, #8
70004abc:	2004      	movs	r0, #4
70004abe:	e252      	b.n	0x70004f66
70004ac0:	001a      	movs	r2, r3
70004ac2:	3a00      	subs	r2, #0
70004ac4:	c003      	stmia	r0!, {r0, r1}
70004ac6:	e731      	b.n	0x7000492c
70004ac8:	0002      	movs	r2, r0
70004aca:	e353      	b.n	0x70005174
70004acc:	0008      	movs	r0, r1
70004ace:	0a00      	lsrs	r0, r0, #8
70004ad0:	000f      	movs	r7, r1
70004ad2:	8a00      	ldrh	r0, [r0, #16]
70004ad4:	342c      	adds	r4, #44	@ 0x2c
70004ad6:	e1a0      	b.n	0x70004e1a
70004ad8:	c004      	stmia	r0!, {r2}
70004ada:	e5b1      	b.n	0x70004640
70004adc:	2004      	movs	r0, #4
70004ade:	e252      	b.n	0x70004f86
70004ae0:	3c0c      	subs	r4, #12
70004ae2:	e183      	b.n	0x70004dec
70004ae4:	3004      	adds	r0, #4
70004ae6:	e480      	b.n	0x700043ea
70004ae8:	fff9 2aff 			@ <UNDEFINED> instruction: 0xfff92aff
70004aec:	1001      	asrs	r1, r0, #32
70004aee:	e281      	b.n	0x70004ff4
70004af0:	000e      	movs	r6, r1
70004af2:	ea00 382c 	and.w	r8, r0, ip, asr #12
70004af6:	e1a0      	b.n	0x70004e3a
70004af8:	c004      	stmia	r0!, {r2}
70004afa:	e5b1      	b.n	0x70004660
70004afc:	2004      	movs	r0, #4
70004afe:	e252      	b.n	0x70004fa6
70004b00:	380c      	subs	r0, #12
70004b02:	e183      	b.n	0x70004e0c
70004b04:	3004      	adds	r0, #4
70004b06:	e480      	b.n	0x7000440a
70004b08:	fff9 2aff 			@ <UNDEFINED> instruction: 0xfff92aff
70004b0c:	1002      	asrs	r2, r0, #32
70004b0e:	e281      	b.n	0x70005014
70004b10:	0006      	movs	r6, r0
70004b12:	ea00 3c2c 	and.w	ip, r0, ip, asr #12
70004b16:	e1a0      	b.n	0x70004e5a
70004b18:	c004      	stmia	r0!, {r2}
70004b1a:	e5b1      	b.n	0x70004680
70004b1c:	2004      	movs	r0, #4
70004b1e:	e252      	b.n	0x70004fc6
70004b20:	340c      	adds	r4, #12
70004b22:	e183      	b.n	0x70004e2c
70004b24:	3004      	adds	r0, #4
70004b26:	e480      	b.n	0x7000442a
70004b28:	fff9 2aff 			@ <UNDEFINED> instruction: 0xfff92aff
70004b2c:	1003      	asrs	r3, r0, #32
70004b2e:	e281      	b.n	0x70005034
70004b30:	2f82      	cmp	r7, #130	@ 0x82
70004b32:	e1b0      	b.n	0x70004e96
70004b34:	3001      	adds	r0, #1
70004b36:	24d1      	movs	r4, #209	@ 0xd1
70004b38:	c001      	stmia	r0!, {r0}
70004b3a:	24d1      	movs	r4, #209	@ 0xd1
70004b3c:	2001      	movs	r0, #1
70004b3e:	44d1      	add	r9, sl
70004b40:	3001      	adds	r0, #1
70004b42:	24c0      	movs	r4, #192	@ 0xc0
70004b44:	c001      	stmia	r0!, {r0}
70004b46:	24c0      	movs	r4, #192	@ 0xc0
70004b48:	2001      	movs	r0, #1
70004b4a:	44c0      	add	r8, r8
70004b4c:	ff1e e12f 	vrhadd.u16	d14, d14, d31
70004b50:	0020      	movs	r0, r4
70004b52:	e352      	b.n	0x700051fa
70004b54:	41f0      	rors	r0, r6
70004b56:	292d      	cmp	r1, #45	@ 0x2d
70004b58:	4010      	ands	r0, r2
70004b5a:	392d      	subs	r1, #45	@ 0x2d
70004b5c:	2020      	movs	r0, #32
70004b5e:	e252      	b.n	0x70005006
70004b60:	000e      	movs	r6, r1
70004b62:	3a00      	subs	r2, #0
70004b64:	51f8      	str	r0, [r7, r7]
70004b66:	28b1      	cmp	r0, #177	@ 0xb1
70004b68:	51f8      	str	r0, [r7, r7]
70004b6a:	28a0      	cmp	r0, #160	@ 0xa0
70004b6c:	2020      	movs	r0, #32
70004b6e:	2252      	movs	r2, #82	@ 0x52
70004b70:	fffb 2aff 			@ <UNDEFINED> instruction: 0xfffb2aff
70004b74:	ce02      	ldmia	r6!, {r1}
70004b76:	e1b0      	b.n	0x70004eda
70004b78:	5018      	str	r0, [r3, r0]
70004b7a:	28b1      	cmp	r0, #177	@ 0xb1
70004b7c:	5018      	str	r0, [r3, r0]
70004b7e:	28a0      	cmp	r0, #160	@ 0xa0
70004b80:	0018      	movs	r0, r3
70004b82:	48b1      	ldr	r0, [pc, #708]	@ (0x70004e48)
70004b84:	0018      	movs	r0, r3
70004b86:	48a0      	ldr	r0, [pc, #640]	@ (0x70004e08)
70004b88:	41f0      	rors	r0, r6
70004b8a:	e8bd cf02 	ldmia.w	sp!, {r1, r8, r9, sl, fp, lr, pc}
70004b8e:	e1b0      	b.n	0x70004ef2
70004b90:	3004      	adds	r0, #4
70004b92:	2491      	movs	r4, #145	@ 0x91
70004b94:	3004      	adds	r0, #4
70004b96:	2480      	movs	r4, #128	@ 0x80
70004b98:	ff1e 012f 	vrhadd.u16	d0, d14, d31
70004b9c:	0009      	movs	r1, r1
70004b9e:	ea00 ce02 			@ <UNDEFINED> instruction: 0xea00ce02
70004ba2:	e1b0      	b.n	0x70004f06
70004ba4:	5018      	str	r0, [r3, r0]
70004ba6:	28b1      	cmp	r0, #177	@ 0xb1
70004ba8:	5018      	str	r0, [r3, r0]
70004baa:	28a0      	cmp	r0, #160	@ 0xa0
70004bac:	0018      	movs	r0, r3
70004bae:	48b1      	ldr	r0, [pc, #708]	@ (0x70004e74)
70004bb0:	0018      	movs	r0, r3
70004bb2:	48a0      	ldr	r0, [pc, #640]	@ (0x70004e34)
70004bb4:	4010      	ands	r0, r2
70004bb6:	e8bd cf02 	ldmia.w	sp!, {r1, r8, r9, sl, fp, lr, pc}
70004bba:	e1b0      	b.n	0x70004f1e
70004bbc:	3004      	adds	r0, #4
70004bbe:	2491      	movs	r4, #145	@ 0x91
70004bc0:	3004      	adds	r0, #4
70004bc2:	2480      	movs	r4, #128	@ 0x80
70004bc4:	ff1e 012f 	vrhadd.u16	d0, d14, d31
70004bc8:	2f82      	cmp	r7, #130	@ 0x82
70004bca:	e1b0      	b.n	0x70004f2e
70004bcc:	30b2      	adds	r0, #178	@ 0xb2
70004bce:	20d1      	movs	r0, #209	@ 0xd1
70004bd0:	2001      	movs	r0, #1
70004bd2:	44d1      	add	r9, sl
70004bd4:	30b2      	adds	r0, #178	@ 0xb2
70004bd6:	20c0      	movs	r0, #192	@ 0xc0
70004bd8:	2001      	movs	r0, #1
70004bda:	44c0      	add	r8, r8
70004bdc:	ff1e e12f 	vrhadd.u16	d14, d14, d31
70004be0:	b5f0      	push	{r4, r5, r6, r7, lr}
70004be2:	4d28      	ldr	r5, [pc, #160]	@ (0x70004c84)
70004be4:	2200      	movs	r2, #0
70004be6:	230a      	movs	r3, #10
70004be8:	4353      	muls	r3, r2
70004bea:	2100      	movs	r1, #0
70004bec:	195b      	adds	r3, r3, r5
70004bee:	785c      	ldrb	r4, [r3, #1]
70004bf0:	e005      	b.n	0x70004bfe
70004bf2:	185e      	adds	r6, r3, r1
70004bf4:	78b6      	ldrb	r6, [r6, #2]
70004bf6:	5c47      	ldrb	r7, [r0, r1]
70004bf8:	42be      	cmp	r6, r7
70004bfa:	d102      	bne.n	0x70004c02
70004bfc:	1c49      	adds	r1, r1, #1
70004bfe:	428c      	cmp	r4, r1
70004c00:	dcf7      	bgt.n	0x70004bf2
70004c02:	428c      	cmp	r4, r1
70004c04:	d101      	bne.n	0x70004c0a
70004c06:	2001      	movs	r0, #1
70004c08:	bdf0      	pop	{r4, r5, r6, r7, pc}
70004c0a:	1c52      	adds	r2, r2, #1
70004c0c:	2a06      	cmp	r2, #6
70004c0e:	dbea      	blt.n	0x70004be6
70004c10:	2000      	movs	r0, #0
70004c12:	bdf0      	pop	{r4, r5, r6, r7, pc}
70004c14:	b5fe      	push	{r1, r2, r3, r4, r5, r6, r7, lr}
70004c16:	491c      	ldr	r1, [pc, #112]	@ (0x70004c88)
70004c18:	2000      	movs	r0, #0
70004c1a:	5e08      	ldrsh	r0, [r1, r0]
70004c1c:	2800      	cmp	r0, #0
70004c1e:	da28      	bge.n	0x70004c72
70004c20:	f002 f9c6 	bl	0x70006fb0
70004c24:	2800      	cmp	r0, #0
70004c26:	466a      	mov	r2, sp
70004c28:	d002      	beq.n	0x70004c30
70004c2a:	2101      	movs	r1, #1
70004c2c:	0709      	lsls	r1, r1, #28
70004c2e:	e000      	b.n	0x70004c32
70004c30:	2100      	movs	r1, #0
70004c32:	2000      	movs	r0, #0
70004c34:	f000 e920 	blx	0x70004e78
70004c38:	4e12      	ldr	r6, [pc, #72]	@ (0x70004c84)
70004c3a:	2100      	movs	r1, #0
70004c3c:	466d      	mov	r5, sp
70004c3e:	220a      	movs	r2, #10
70004c40:	434a      	muls	r2, r1
70004c42:	2000      	movs	r0, #0
70004c44:	1992      	adds	r2, r2, r6
70004c46:	7853      	ldrb	r3, [r2, #1]
70004c48:	e006      	b.n	0x70004c58
70004c4a:	1814      	adds	r4, r2, r0
70004c4c:	0047      	lsls	r7, r0, #1
70004c4e:	78a4      	ldrb	r4, [r4, #2]
70004c50:	5bef      	ldrh	r7, [r5, r7]
70004c52:	42bc      	cmp	r4, r7
70004c54:	d102      	bne.n	0x70004c5c
70004c56:	1c40      	adds	r0, r0, #1
70004c58:	4283      	cmp	r3, r0
70004c5a:	dcf6      	bgt.n	0x70004c4a
70004c5c:	4283      	cmp	r3, r0
70004c5e:	d102      	bne.n	0x70004c66
70004c60:	4809      	ldr	r0, [pc, #36]	@ (0x70004c88)
70004c62:	8001      	strh	r1, [r0, #0]
70004c64:	e002      	b.n	0x70004c6c
70004c66:	1c49      	adds	r1, r1, #1
70004c68:	2906      	cmp	r1, #6
70004c6a:	dbe8      	blt.n	0x70004c3e
70004c6c:	4906      	ldr	r1, [pc, #24]	@ (0x70004c88)
70004c6e:	2000      	movs	r0, #0
70004c70:	5e08      	ldrsh	r0, [r1, r0]
70004c72:	bdfe      	pop	{r1, r2, r3, r4, r5, r6, r7, pc}
70004c74:	230a      	movs	r3, #10
70004c76:	4903      	ldr	r1, [pc, #12]	@ (0x70004c84)
70004c78:	4358      	muls	r0, r3
70004c7a:	3910      	subs	r1, #16
70004c7c:	1840      	adds	r0, r0, r1
70004c7e:	3010      	adds	r0, #16
70004c80:	4770      	bx	lr
70004c82:	0000      	movs	r0, r0
70004c84:	8bb0      	ldrh	r0, [r6, #28]
70004c86:	1000      	asrs	r0, r0, #32
70004c88:	2074      	movs	r0, #116	@ 0x74
70004c8a:	0001      	movs	r1, r0
70004c8c:	2000      	movs	r0, #0
70004c8e:	4770      	bx	lr
70004c90:	4803      	ldr	r0, [pc, #12]	@ (0x70004ca0)
70004c92:	4770      	bx	lr
70004c94:	2000      	movs	r0, #0
70004c96:	4770      	bx	lr
70004c98:	205b      	movs	r0, #91	@ 0x5b
70004c9a:	0300      	lsls	r0, r0, #12
70004c9c:	4770      	bx	lr
70004c9e:	0000      	movs	r0, r0
70004ca0:	3000      	adds	r0, #0
70004ca2:	003a      	movs	r2, r7
70004ca4:	4b01      	ldr	r3, [pc, #4]	@ (0x70004cac)
70004ca6:	685b      	ldr	r3, [r3, #4]
70004ca8:	4718      	bx	r3
70004caa:	0000      	movs	r0, r0
70004cac:	2ed0      	cmp	r6, #208	@ 0xd0
70004cae:	0001      	movs	r1, r0
70004cb0:	b570      	push	{r4, r5, r6, lr}
70004cb2:	000d      	movs	r5, r1
70004cb4:	f002 f9c4 	bl	0x70007040
70004cb8:	4c0c      	ldr	r4, [pc, #48]	@ (0x70004cec)
70004cba:	2001      	movs	r0, #1
70004cbc:	0340      	lsls	r0, r0, #13
70004cbe:	8220      	strh	r0, [r4, #16]
70004cc0:	2032      	movs	r0, #50	@ 0x32
70004cc2:	f002 f9c9 	bl	0x70007058
70004cc6:	8a20      	ldrh	r0, [r4, #16]
70004cc8:	0400      	lsls	r0, r0, #16
70004cca:	d4fc      	bmi.n	0x70004cc6
70004ccc:	83a5      	strh	r5, [r4, #28]
70004cce:	2001      	movs	r0, #1
70004cd0:	0380      	lsls	r0, r0, #14
70004cd2:	8220      	strh	r0, [r4, #16]
70004cd4:	2032      	movs	r0, #50	@ 0x32
70004cd6:	f002 f9bf 	bl	0x70007058
70004cda:	8a20      	ldrh	r0, [r4, #16]
70004cdc:	0400      	lsls	r0, r0, #16
70004cde:	d4fc      	bmi.n	0x70004cda
70004ce0:	200a      	movs	r0, #10
70004ce2:	f002 f9b9 	bl	0x70007058
70004ce6:	8b20      	ldrh	r0, [r4, #24]
70004ce8:	bd70      	pop	{r4, r5, r6, pc}
70004cea:	0000      	movs	r0, r0
70004cec:	0fe0      	lsrs	r0, r4, #31
70004cee:	a070      	add	r0, pc, #448	@ (adr r0, 0x70004eb0)
70004cf0:	2001      	movs	r0, #1
70004cf2:	4770      	bx	lr
70004cf4:	b510      	push	{r4, lr}
70004cf6:	f000 f93a 	bl	0x70004f6e
70004cfa:	2388      	movs	r3, #136	@ 0x88
70004cfc:	4358      	muls	r0, r3
70004cfe:	4948      	ldr	r1, [pc, #288]	@ (0x70004e20)
70004d00:	1840      	adds	r0, r0, r1
70004d02:	6c80      	ldr	r0, [r0, #72]	@ 0x48
70004d04:	bd10      	pop	{r4, pc}
70004d06:	b530      	push	{r4, r5, lr}
70004d08:	0144      	lsls	r4, r0, #5
70004d0a:	0964      	lsrs	r4, r4, #5
70004d0c:	2000      	movs	r0, #0
70004d0e:	e008      	b.n	0x70004d22
70004d10:	588a      	ldr	r2, [r1, r2]
70004d12:	42a2      	cmp	r2, r4
70004d14:	d802      	bhi.n	0x70004d1c
70004d16:	689a      	ldr	r2, [r3, #8]
70004d18:	42a2      	cmp	r2, r4
70004d1a:	d807      	bhi.n	0x70004d2c
70004d1c:	1c40      	adds	r0, r0, #1
70004d1e:	0400      	lsls	r0, r0, #16
70004d20:	0c00      	lsrs	r0, r0, #16
70004d22:	00c2      	lsls	r2, r0, #3
70004d24:	1853      	adds	r3, r2, r1
70004d26:	68dd      	ldr	r5, [r3, #12]
70004d28:	2d00      	cmp	r5, #0
70004d2a:	d1f1      	bne.n	0x70004d10
70004d2c:	00c0      	lsls	r0, r0, #3
70004d2e:	1840      	adds	r0, r0, r1
70004d30:	6840      	ldr	r0, [r0, #4]
70004d32:	bd30      	pop	{r4, r5, pc}
70004d34:	493b      	ldr	r1, [pc, #236]	@ (0x70004e24)
70004d36:	68c9      	ldr	r1, [r1, #12]
70004d38:	e7e5      	b.n	0x70004d06
70004d3a:	b510      	push	{r4, lr}
70004d3c:	0004      	movs	r4, r0
70004d3e:	f000 f916 	bl	0x70004f6e
70004d42:	2388      	movs	r3, #136	@ 0x88
70004d44:	4358      	muls	r0, r3
70004d46:	4936      	ldr	r1, [pc, #216]	@ (0x70004e20)
70004d48:	1841      	adds	r1, r0, r1
70004d4a:	3108      	adds	r1, #8
70004d4c:	0020      	movs	r0, r4
70004d4e:	f7ff ffda 	bl	0x70004d06
70004d52:	bd10      	pop	{r4, pc}
70004d54:	b510      	push	{r4, lr}
70004d56:	0004      	movs	r4, r0
70004d58:	2000      	movs	r0, #0
70004d5a:	0001      	movs	r1, r0
70004d5c:	e004      	b.n	0x70004d68
70004d5e:	1912      	adds	r2, r2, r4
70004d60:	6852      	ldr	r2, [r2, #4]
70004d62:	1c49      	adds	r1, r1, #1
70004d64:	435a      	muls	r2, r3
70004d66:	1810      	adds	r0, r2, r0
70004d68:	00ca      	lsls	r2, r1, #3
70004d6a:	58a3      	ldr	r3, [r4, r2]
70004d6c:	2b00      	cmp	r3, #0
70004d6e:	d1f6      	bne.n	0x70004d5e
70004d70:	bd10      	pop	{r4, pc}
70004d72:	b5ff      	push	{r0, r1, r2, r3, r4, r5, r6, r7, lr}
70004d74:	1841      	adds	r1, r0, r1
70004d76:	0015      	movs	r5, r2
70004d78:	0006      	movs	r6, r0
70004d7a:	2400      	movs	r4, #0
70004d7c:	0027      	movs	r7, r4
70004d7e:	468c      	mov	ip, r1
70004d80:	e01b      	b.n	0x70004dba
70004d82:	9903      	ldr	r1, [sp, #12]
70004d84:	0030      	movs	r0, r6
70004d86:	f7ff ffbe 	bl	0x70004d06
70004d8a:	2f00      	cmp	r7, #0
70004d8c:	d104      	bne.n	0x70004d98
70004d8e:	00e1      	lsls	r1, r4, #3
70004d90:	2201      	movs	r2, #1
70004d92:	5068      	str	r0, [r5, r1]
70004d94:	1949      	adds	r1, r1, r5
70004d96:	e006      	b.n	0x70004da6
70004d98:	00e1      	lsls	r1, r4, #3
70004d9a:	586a      	ldr	r2, [r5, r1]
70004d9c:	4282      	cmp	r2, r0
70004d9e:	d104      	bne.n	0x70004daa
70004da0:	1949      	adds	r1, r1, r5
70004da2:	684a      	ldr	r2, [r1, #4]
70004da4:	1c52      	adds	r2, r2, #1
70004da6:	604a      	str	r2, [r1, #4]
70004da8:	e005      	b.n	0x70004db6
70004daa:	1c64      	adds	r4, r4, #1
70004dac:	2c09      	cmp	r4, #9
70004dae:	d1ee      	bne.n	0x70004d8e
70004db0:	2006      	movs	r0, #6
70004db2:	b004      	add	sp, #16
70004db4:	bdf0      	pop	{r4, r5, r6, r7, pc}
70004db6:	1836      	adds	r6, r6, r0
70004db8:	1c7f      	adds	r7, r7, #1
70004dba:	4566      	cmp	r6, ip
70004dbc:	d3e1      	bcc.n	0x70004d82
70004dbe:	2000      	movs	r0, #0
70004dc0:	e7f7      	b.n	0x70004db2
70004dc2:	b570      	push	{r4, r5, r6, lr}
70004dc4:	0016      	movs	r6, r2
70004dc6:	0004      	movs	r4, r0
70004dc8:	000d      	movs	r5, r1
70004dca:	2240      	movs	r2, #64	@ 0x40
70004dcc:	2100      	movs	r1, #0
70004dce:	0030      	movs	r0, r6
70004dd0:	f002 eb10 	blx	0x700073f4
70004dd4:	4813      	ldr	r0, [pc, #76]	@ (0x70004e24)
70004dd6:	0032      	movs	r2, r6
70004dd8:	68c3      	ldr	r3, [r0, #12]
70004dda:	0029      	movs	r1, r5
70004ddc:	0020      	movs	r0, r4
70004dde:	f7ff ffc8 	bl	0x70004d72
70004de2:	bd70      	pop	{r4, r5, r6, pc}
70004de4:	2000      	movs	r0, #0
70004de6:	4770      	bx	lr
70004de8:	b570      	push	{r4, r5, r6, lr}
70004dea:	0004      	movs	r4, r0
70004dec:	000d      	movs	r5, r1
70004dee:	0016      	movs	r6, r2
70004df0:	f000 f8bd 	bl	0x70004f6e
70004df4:	2388      	movs	r3, #136	@ 0x88
70004df6:	4358      	muls	r0, r3
70004df8:	4909      	ldr	r1, [pc, #36]	@ (0x70004e20)
70004dfa:	0032      	movs	r2, r6
70004dfc:	1843      	adds	r3, r0, r1
70004dfe:	3308      	adds	r3, #8
70004e00:	0029      	movs	r1, r5
70004e02:	0020      	movs	r0, r4
70004e04:	f7ff ffb5 	bl	0x70004d72
70004e08:	bd70      	pop	{r4, r5, r6, pc}
70004e0a:	2000      	movs	r0, #0
70004e0c:	4770      	bx	lr
70004e0e:	b510      	push	{r4, lr}
70004e10:	f000 f8ad 	bl	0x70004f6e
70004e14:	2388      	movs	r3, #136	@ 0x88
70004e16:	4358      	muls	r0, r3
70004e18:	4901      	ldr	r1, [pc, #4]	@ (0x70004e20)
70004e1a:	1840      	adds	r0, r0, r1
70004e1c:	6840      	ldr	r0, [r0, #4]
70004e1e:	bd10      	pop	{r4, pc}
70004e20:	8bfc      	ldrh	r4, [r7, #30]
70004e22:	1000      	asrs	r0, r0, #32
70004e24:	2acc      	cmp	r2, #204	@ 0xcc
70004e26:	0001      	movs	r1, r0
70004e28:	f004 e51f 	bfcsel	0, 0x70005868, 2, ne
70004e2c:	5f34      	ldrsh	r4, [r6, r4]
70004e2e:	7000      	strb	r0, [r0, #0]
70004e30:	f004 e51f 	bfcsel	0, 0x70005870, 2, ne
70004e34:	5f68      	ldrsh	r0, [r5, r5]
70004e36:	7000      	strb	r0, [r0, #0]
70004e38:	f004 e51f 	bfcsel	0, 0x70005878, 2, ne
70004e3c:	5021      	str	r1, [r4, r0]
70004e3e:	7000      	strb	r0, [r0, #0]
70004e40:	f004 e51f 	bfcsel	0, 0x70005880, 2, ne
70004e44:	5143      	str	r3, [r0, r5]
70004e46:	7000      	strb	r0, [r0, #0]
70004e48:	f004 e51f 	bfcsel	0, 0x70005888, 2, ne
70004e4c:	52bb      	strh	r3, [r7, r2]
70004e4e:	7000      	strb	r0, [r0, #0]
70004e50:	f004 e51f 	bfcsel	0, 0x70005890, 2, ne
70004e54:	53fb      	strh	r3, [r7, r7]
70004e56:	7000      	strb	r0, [r0, #0]
70004e58:	f004 e51f 	bfcsel	0, 0x70005898, 2, ne
70004e5c:	5889      	ldr	r1, [r1, r2]
70004e5e:	7000      	strb	r0, [r0, #0]
70004e60:	f004 e51f 	bfcsel	0, 0x700058a0, 2, ne
70004e64:	5917      	ldr	r7, [r2, r4]
70004e66:	7000      	strb	r0, [r0, #0]
70004e68:	f004 e51f 	bfcsel	0, 0x700058a8, 2, ne
70004e6c:	59b9      	ldr	r1, [r7, r6]
70004e6e:	7000      	strb	r0, [r0, #0]
70004e70:	f004 e51f 	bfcsel	0, 0x700058b0, 2, ne
70004e74:	5e81      	ldrsh	r1, [r0, r2]
70004e76:	7000      	strb	r0, [r0, #0]
70004e78:	f004 e51f 	bfcsel	0, 0x700058b8, 2, ne
70004e7c:	5eab      	ldrsh	r3, [r5, r2]
70004e7e:	7000      	strb	r0, [r0, #0]
70004e80:	f004 e51f 	bfcsel	0, 0x700058c0, 2, ne
70004e84:	51c5      	str	r5, [r0, r7]
70004e86:	7000      	strb	r0, [r0, #0]
70004e88:	f004 e51f 	bfcsel	0, 0x700058c8, 2, ne
70004e8c:	585f      	ldr	r7, [r3, r1]
70004e8e:	7000      	strb	r0, [r0, #0]
70004e90:	f004 e51f 	bfcsel	0, 0x700058d0, 2, ne
70004e94:	5c89      	ldrb	r1, [r1, r2]
70004e96:	7000      	strb	r0, [r0, #0]
70004e98:	f004 e51f 	bfcsel	0, 0x700058d8, 2, ne
70004e9c:	5265      	strh	r5, [r4, r1]
70004e9e:	7000      	strb	r0, [r0, #0]
70004ea0:	f004 e51f 	bfcsel	0, 0x700058e0, 2, ne
70004ea4:	5a59      	ldrh	r1, [r3, r1]
70004ea6:	7000      	strb	r0, [r0, #0]
70004ea8:	f004 e51f 	bfcsel	0, 0x700058e8, 2, ne
70004eac:	5a4f      	ldrh	r7, [r1, r1]
70004eae:	7000      	strb	r0, [r0, #0]
70004eb0:	f004 e51f 	bfcsel	0, 0x700058f0, 2, ne
70004eb4:	5a4b      	ldrh	r3, [r1, r1]
70004eb6:	7000      	strb	r0, [r0, #0]
70004eb8:	b570      	push	{r4, r5, r6, lr}
70004eba:	0006      	movs	r6, r0
70004ebc:	000c      	movs	r4, r1
70004ebe:	0015      	movs	r5, r2
70004ec0:	f7ff eff6 	blx	0x70004eb0
70004ec4:	4905      	ldr	r1, [pc, #20]	@ (0x70004edc)
70004ec6:	1871      	adds	r1, r6, r1
70004ec8:	880a      	ldrh	r2, [r1, #0]
70004eca:	4025      	ands	r5, r4
70004ecc:	43a2      	bics	r2, r4
70004ece:	4315      	orrs	r5, r2
70004ed0:	800d      	strh	r5, [r1, #0]
70004ed2:	f7ff efea 	blx	0x70004ea8
70004ed6:	2000      	movs	r0, #0
70004ed8:	bd70      	pop	{r4, r5, r6, pc}
70004eda:	0000      	movs	r0, r0
70004edc:	0a00      	lsrs	r0, r0, #8
70004ede:	a070      	add	r0, pc, #448	@ (adr r0, 0x700050a0)
70004ee0:	b5f0      	push	{r4, r5, r6, r7, lr}
70004ee2:	4d37      	ldr	r5, [pc, #220]	@ (0x70004fc0)
70004ee4:	2200      	movs	r2, #0
70004ee6:	230a      	movs	r3, #10
70004ee8:	4353      	muls	r3, r2
70004eea:	2100      	movs	r1, #0
70004eec:	195b      	adds	r3, r3, r5
70004eee:	785c      	ldrb	r4, [r3, #1]
70004ef0:	e005      	b.n	0x70004efe
70004ef2:	185e      	adds	r6, r3, r1
70004ef4:	78b6      	ldrb	r6, [r6, #2]
70004ef6:	5c47      	ldrb	r7, [r0, r1]
70004ef8:	42be      	cmp	r6, r7
70004efa:	d102      	bne.n	0x70004f02
70004efc:	1c49      	adds	r1, r1, #1
70004efe:	428c      	cmp	r4, r1
70004f00:	dcf7      	bgt.n	0x70004ef2
70004f02:	428c      	cmp	r4, r1
70004f04:	d101      	bne.n	0x70004f0a
70004f06:	2001      	movs	r0, #1
70004f08:	bdf0      	pop	{r4, r5, r6, r7, pc}
70004f0a:	1c52      	adds	r2, r2, #1
70004f0c:	2a06      	cmp	r2, #6
70004f0e:	dbea      	blt.n	0x70004ee6
70004f10:	2000      	movs	r0, #0
70004f12:	bdf0      	pop	{r4, r5, r6, r7, pc}
70004f14:	b53e      	push	{r1, r2, r3, r4, r5, lr}
70004f16:	0005      	movs	r5, r0
70004f18:	0014      	movs	r4, r2
70004f1a:	20af      	movs	r0, #175	@ 0xaf
70004f1c:	2203      	movs	r2, #3
70004f1e:	9200      	str	r2, [sp, #0]
70004f20:	9002      	str	r0, [sp, #8]
70004f22:	0028      	movs	r0, r5
70004f24:	2301      	movs	r3, #1
70004f26:	aa01      	add	r2, sp, #4
70004f28:	a902      	add	r1, sp, #8
70004f2a:	f7ff efb2 	blx	0x70004e90
70004f2e:	466b      	mov	r3, sp
70004f30:	7918      	ldrb	r0, [r3, #4]
70004f32:	2800      	cmp	r0, #0
70004f34:	d006      	beq.n	0x70004f44
70004f36:	28ff      	cmp	r0, #255	@ 0xff
70004f38:	d004      	beq.n	0x70004f44
70004f3a:	a801      	add	r0, sp, #4
70004f3c:	f7ff ffd0 	bl	0x70004ee0
70004f40:	2800      	cmp	r0, #0
70004f42:	d109      	bne.n	0x70004f58
70004f44:	209f      	movs	r0, #159	@ 0x9f
70004f46:	2203      	movs	r2, #3
70004f48:	9200      	str	r2, [sp, #0]
70004f4a:	9002      	str	r0, [sp, #8]
70004f4c:	0028      	movs	r0, r5
70004f4e:	2301      	movs	r3, #1
70004f50:	aa01      	add	r2, sp, #4
70004f52:	a902      	add	r1, sp, #8
70004f54:	f7ff ef9c 	blx	0x70004e90
70004f58:	2000      	movs	r0, #0
70004f5a:	a901      	add	r1, sp, #4
70004f5c:	5c0a      	ldrb	r2, [r1, r0]
70004f5e:	0043      	lsls	r3, r0, #1
70004f60:	1c40      	adds	r0, r0, #1
70004f62:	0600      	lsls	r0, r0, #24
70004f64:	0e00      	lsrs	r0, r0, #24
70004f66:	2803      	cmp	r0, #3
70004f68:	52e2      	strh	r2, [r4, r3]
70004f6a:	d3f7      	bcc.n	0x70004f5c
70004f6c:	bd3e      	pop	{r1, r2, r3, r4, r5, pc}
70004f6e:	b5fe      	push	{r1, r2, r3, r4, r5, r6, r7, lr}
70004f70:	4914      	ldr	r1, [pc, #80]	@ (0x70004fc4)
70004f72:	2000      	movs	r0, #0
70004f74:	5e08      	ldrsh	r0, [r1, r0]
70004f76:	2800      	cmp	r0, #0
70004f78:	da21      	bge.n	0x70004fbe
70004f7a:	4913      	ldr	r1, [pc, #76]	@ (0x70004fc8)
70004f7c:	2000      	movs	r0, #0
70004f7e:	466a      	mov	r2, sp
70004f80:	f7ff ffc8 	bl	0x70004f14
70004f84:	4e0e      	ldr	r6, [pc, #56]	@ (0x70004fc0)
70004f86:	2100      	movs	r1, #0
70004f88:	466d      	mov	r5, sp
70004f8a:	220a      	movs	r2, #10
70004f8c:	434a      	muls	r2, r1
70004f8e:	2000      	movs	r0, #0
70004f90:	1992      	adds	r2, r2, r6
70004f92:	7853      	ldrb	r3, [r2, #1]
70004f94:	e006      	b.n	0x70004fa4
70004f96:	1814      	adds	r4, r2, r0
70004f98:	0047      	lsls	r7, r0, #1
70004f9a:	78a4      	ldrb	r4, [r4, #2]
70004f9c:	5bef      	ldrh	r7, [r5, r7]
70004f9e:	42bc      	cmp	r4, r7
70004fa0:	d102      	bne.n	0x70004fa8
70004fa2:	1c40      	adds	r0, r0, #1
70004fa4:	4283      	cmp	r3, r0
70004fa6:	dcf6      	bgt.n	0x70004f96
70004fa8:	4283      	cmp	r3, r0
70004faa:	d102      	bne.n	0x70004fb2
70004fac:	4805      	ldr	r0, [pc, #20]	@ (0x70004fc4)
70004fae:	8001      	strh	r1, [r0, #0]
70004fb0:	e002      	b.n	0x70004fb8
70004fb2:	1c49      	adds	r1, r1, #1
70004fb4:	2906      	cmp	r1, #6
70004fb6:	dbe8      	blt.n	0x70004f8a
70004fb8:	4902      	ldr	r1, [pc, #8]	@ (0x70004fc4)
70004fba:	2000      	movs	r0, #0
70004fbc:	5e08      	ldrsh	r0, [r1, r0]
70004fbe:	bdfe      	pop	{r1, r2, r3, r4, r5, r6, r7, pc}
70004fc0:	8bb0      	ldrh	r0, [r6, #28]
70004fc2:	1000      	asrs	r0, r0, #32
70004fc4:	20d4      	movs	r0, #212	@ 0xd4
70004fc6:	0001      	movs	r1, r0
70004fc8:	3000      	adds	r0, #0
70004fca:	003a      	movs	r2, r7
70004fcc:	b5f0      	push	{r4, r5, r6, r7, lr}
70004fce:	0008      	movs	r0, r1
70004fd0:	3080      	adds	r0, #128	@ 0x80
70004fd2:	6ac2      	ldr	r2, [r0, #44]	@ 0x2c
70004fd4:	2501      	movs	r5, #1
70004fd6:	2302      	movs	r3, #2
70004fd8:	7015      	strb	r5, [r2, #0]
70004fda:	7053      	strb	r3, [r2, #1]
70004fdc:	2308      	movs	r3, #8
70004fde:	7093      	strb	r3, [r2, #2]
70004fe0:	2304      	movs	r3, #4
70004fe2:	70d3      	strb	r3, [r2, #3]
70004fe4:	233c      	movs	r3, #60	@ 0x3c
70004fe6:	7113      	strb	r3, [r2, #4]
70004fe8:	2380      	movs	r3, #128	@ 0x80
70004fea:	7153      	strb	r3, [r2, #5]
70004fec:	2360      	movs	r3, #96	@ 0x60
70004fee:	71d3      	strb	r3, [r2, #7]
70004ff0:	6b03      	ldr	r3, [r0, #48]	@ 0x30
70004ff2:	262b      	movs	r6, #43	@ 0x2b
70004ff4:	73de      	strb	r6, [r3, #15]
70004ff6:	6b03      	ldr	r3, [r0, #48]	@ 0x30
70004ff8:	222f      	movs	r2, #47	@ 0x2f
70004ffa:	735e      	strb	r6, [r3, #13]
70004ffc:	6b03      	ldr	r3, [r0, #48]	@ 0x30
70004ffe:	2405      	movs	r4, #5
70005000:	739a      	strb	r2, [r3, #14]
70005002:	6b02      	ldr	r2, [r0, #48]	@ 0x30
70005004:	000b      	movs	r3, r1
70005006:	72d4      	strb	r4, [r2, #11]
70005008:	6b01      	ldr	r1, [r0, #48]	@ 0x30
7000500a:	2716      	movs	r7, #22
7000500c:	730d      	strb	r5, [r1, #12]
7000500e:	6b01      	ldr	r1, [r0, #48]	@ 0x30
70005010:	33c0      	adds	r3, #192	@ 0xc0
70005012:	744e      	strb	r6, [r1, #17]
70005014:	701f      	strb	r7, [r3, #0]
70005016:	7899      	ldrb	r1, [r3, #2]
70005018:	2920      	cmp	r1, #32
7000501a:	d112      	bne.n	0x70005042
7000501c:	78dc      	ldrb	r4, [r3, #3]
7000501e:	2275      	movs	r2, #117	@ 0x75
70005020:	217a      	movs	r1, #122	@ 0x7a
70005022:	2c18      	cmp	r4, #24
70005024:	d106      	bne.n	0x70005034
70005026:	6b04      	ldr	r4, [r0, #48]	@ 0x30
70005028:	70a2      	strb	r2, [r4, #2]
7000502a:	6b04      	ldr	r4, [r0, #48]	@ 0x30
7000502c:	70e1      	strb	r1, [r4, #3]
7000502e:	789c      	ldrb	r4, [r3, #2]
70005030:	2c20      	cmp	r4, #32
70005032:	d106      	bne.n	0x70005042
70005034:	78dc      	ldrb	r4, [r3, #3]
70005036:	2c16      	cmp	r4, #22
70005038:	d103      	bne.n	0x70005042
7000503a:	6b04      	ldr	r4, [r0, #48]	@ 0x30
7000503c:	70a2      	strb	r2, [r4, #2]
7000503e:	6b00      	ldr	r0, [r0, #48]	@ 0x30
70005040:	70c1      	strb	r1, [r0, #3]
70005042:	48c2      	ldr	r0, [pc, #776]	@ (0x7000534c)
70005044:	6158      	str	r0, [r3, #20]
70005046:	2000      	movs	r0, #0
70005048:	bdf0      	pop	{r4, r5, r6, r7, pc}
7000504a:	b530      	push	{r4, r5, lr}
7000504c:	0008      	movs	r0, r1
7000504e:	3080      	adds	r0, #128	@ 0x80
70005050:	6ac2      	ldr	r2, [r0, #44]	@ 0x2c
70005052:	2401      	movs	r4, #1
70005054:	2302      	movs	r3, #2
70005056:	7014      	strb	r4, [r2, #0]
70005058:	7053      	strb	r3, [r2, #1]
7000505a:	2380      	movs	r3, #128	@ 0x80
7000505c:	7093      	strb	r3, [r2, #2]
7000505e:	253c      	movs	r5, #60	@ 0x3c
70005060:	70d3      	strb	r3, [r2, #3]
70005062:	7115      	strb	r5, [r2, #4]
70005064:	7153      	strb	r3, [r2, #5]
70005066:	6b03      	ldr	r3, [r0, #48]	@ 0x30
70005068:	229f      	movs	r2, #159	@ 0x9f
7000506a:	729a      	strb	r2, [r3, #10]
7000506c:	6b03      	ldr	r3, [r0, #48]	@ 0x30
7000506e:	2235      	movs	r2, #53	@ 0x35
70005070:	73da      	strb	r2, [r3, #15]
70005072:	6b03      	ldr	r3, [r0, #48]	@ 0x30
70005074:	31c0      	adds	r1, #192	@ 0xc0
70005076:	735a      	strb	r2, [r3, #13]
70005078:	6b03      	ldr	r3, [r0, #48]	@ 0x30
7000507a:	2205      	movs	r2, #5
7000507c:	72da      	strb	r2, [r3, #11]
7000507e:	6b02      	ldr	r2, [r0, #48]	@ 0x30
70005080:	7314      	strb	r4, [r2, #12]
70005082:	6b03      	ldr	r3, [r0, #48]	@ 0x30
70005084:	2275      	movs	r2, #117	@ 0x75
70005086:	709a      	strb	r2, [r3, #2]
70005088:	6b00      	ldr	r0, [r0, #48]	@ 0x30
7000508a:	227a      	movs	r2, #122	@ 0x7a
7000508c:	70c2      	strb	r2, [r0, #3]
7000508e:	2016      	movs	r0, #22
70005090:	7008      	strb	r0, [r1, #0]
70005092:	48af      	ldr	r0, [pc, #700]	@ (0x70005350)
70005094:	6148      	str	r0, [r1, #20]
70005096:	2000      	movs	r0, #0
70005098:	bd30      	pop	{r4, r5, pc}
7000509a:	2000      	movs	r0, #0
7000509c:	4770      	bx	lr
7000509e:	2000      	movs	r0, #0
700050a0:	4770      	bx	lr
700050a2:	b530      	push	{r4, r5, lr}
700050a4:	000d      	movs	r5, r1
700050a6:	3180      	adds	r1, #128	@ 0x80
700050a8:	6acc      	ldr	r4, [r1, #44]	@ 0x2c
700050aa:	0029      	movs	r1, r5
700050ac:	f7ff ffcd 	bl	0x7000504a
700050b0:	2000      	movs	r0, #0
700050b2:	70a0      	strb	r0, [r4, #2]
700050b4:	70e0      	strb	r0, [r4, #3]
700050b6:	2002      	movs	r0, #2
700050b8:	35c0      	adds	r5, #192	@ 0xc0
700050ba:	7028      	strb	r0, [r5, #0]
700050bc:	2000      	movs	r0, #0
700050be:	bd30      	pop	{r4, r5, pc}
700050c0:	0002      	movs	r2, r0
700050c2:	32c0      	adds	r2, #192	@ 0xc0
700050c4:	b510      	push	{r4, lr}
700050c6:	2900      	cmp	r1, #0
700050c8:	d102      	bne.n	0x700050d0
700050ca:	6951      	ldr	r1, [r2, #20]
700050cc:	4788      	blx	r1
700050ce:	e00c      	b.n	0x700050ea
700050d0:	2901      	cmp	r1, #1
700050d2:	d10a      	bne.n	0x700050ea
700050d4:	7851      	ldrb	r1, [r2, #1]
700050d6:	29c2      	cmp	r1, #194	@ 0xc2
700050d8:	d107      	bne.n	0x700050ea
700050da:	6941      	ldr	r1, [r0, #20]
700050dc:	2001      	movs	r0, #1
700050de:	6809      	ldr	r1, [r1, #0]
700050e0:	0480      	lsls	r0, r0, #18
700050e2:	4281      	cmp	r1, r0
700050e4:	d101      	bne.n	0x700050ea
700050e6:	20c2      	movs	r0, #194	@ 0xc2
700050e8:	bd10      	pop	{r4, pc}
700050ea:	2000      	movs	r0, #0
700050ec:	bd10      	pop	{r4, pc}
700050ee:	b5f8      	push	{r3, r4, r5, r6, r7, lr}
700050f0:	0004      	movs	r4, r0
700050f2:	4f98      	ldr	r7, [pc, #608]	@ (0x70005354)
700050f4:	0005      	movs	r5, r0
700050f6:	3480      	adds	r4, #128	@ 0x80
700050f8:	f7ff eeda 	blx	0x70004eb0
700050fc:	0006      	movs	r6, r0
700050fe:	7838      	ldrb	r0, [r7, #0]
70005100:	2800      	cmp	r0, #0
70005102:	d006      	beq.n	0x70005112
70005104:	0028      	movs	r0, r5
70005106:	f7ff eec8 	blx	0x70004e98
7000510a:	4993      	ldr	r1, [pc, #588]	@ (0x70005358)
7000510c:	2000      	movs	r0, #0
7000510e:	43c0      	mvns	r0, r0
70005110:	6008      	str	r0, [r1, #0]
70005112:	6b20      	ldr	r0, [r4, #48]	@ 0x30
70005114:	7c01      	ldrb	r1, [r0, #16]
70005116:	0028      	movs	r0, r5
70005118:	f7ff ee96 	blx	0x70004e48
7000511c:	6ae1      	ldr	r1, [r4, #44]	@ 0x2c
7000511e:	0600      	lsls	r0, r0, #24
70005120:	7809      	ldrb	r1, [r1, #0]
70005122:	0e00      	lsrs	r0, r0, #24
70005124:	4201      	tst	r1, r0
70005126:	d108      	bne.n	0x7000513a
70005128:	488c      	ldr	r0, [pc, #560]	@ (0x7000535c)
7000512a:	2400      	movs	r4, #0
7000512c:	7004      	strb	r4, [r0, #0]
7000512e:	0030      	movs	r0, r6
70005130:	f7ff eeba 	blx	0x70004ea8
70005134:	2000      	movs	r0, #0
70005136:	61ac      	str	r4, [r5, #24]
70005138:	bdf8      	pop	{r3, r4, r5, r6, r7, pc}
7000513a:	0030      	movs	r0, r6
7000513c:	f7ff eeb4 	blx	0x70004ea8
70005140:	e7da      	b.n	0x700050f8
70005142:	b5f8      	push	{r3, r4, r5, r6, r7, lr}
70005144:	0005      	movs	r5, r0
70005146:	2400      	movs	r4, #0
70005148:	000f      	movs	r7, r1
7000514a:	0020      	movs	r0, r4
7000514c:	f000 eace 	blx	0x700056ec
70005150:	e016      	b.n	0x70005180
70005152:	00a1      	lsls	r1, r4, #2
70005154:	19c9      	adds	r1, r1, r7
70005156:	9100      	str	r1, [sp, #0]
70005158:	1d09      	adds	r1, r1, #4
7000515a:	f000 eac8 	blx	0x700056ec
7000515e:	6968      	ldr	r0, [r5, #20]
70005160:	9900      	ldr	r1, [sp, #0]
70005162:	1d36      	adds	r6, r6, #4
70005164:	5980      	ldr	r0, [r0, r6]
70005166:	3144      	adds	r1, #68	@ 0x44
70005168:	f000 eac0 	blx	0x700056ec
7000516c:	0038      	movs	r0, r7
7000516e:	f000 eace 	blx	0x7000570c
70005172:	6969      	ldr	r1, [r5, #20]
70005174:	5989      	ldr	r1, [r1, r6]
70005176:	1840      	adds	r0, r0, r1
70005178:	0039      	movs	r1, r7
7000517a:	f000 eab8 	blx	0x700056ec
7000517e:	1c64      	adds	r4, r4, #1
70005180:	6968      	ldr	r0, [r5, #20]
70005182:	00e6      	lsls	r6, r4, #3
70005184:	5980      	ldr	r0, [r0, r6]
70005186:	2800      	cmp	r0, #0
70005188:	d1e3      	bne.n	0x70005152
7000518a:	0039      	movs	r1, r7
7000518c:	3164      	adds	r1, #100	@ 0x64
7000518e:	0020      	movs	r0, r4
70005190:	f000 eaac 	blx	0x700056ec
70005194:	2001      	movs	r0, #1
70005196:	0240      	lsls	r0, r0, #9
70005198:	3760      	adds	r7, #96	@ 0x60
7000519a:	7238      	strb	r0, [r7, #8]
7000519c:	0a00      	lsrs	r0, r0, #8
7000519e:	7278      	strb	r0, [r7, #9]
700051a0:	0028      	movs	r0, r5
700051a2:	f7ff ee7a 	blx	0x70004e98
700051a6:	2100      	movs	r1, #0
700051a8:	0028      	movs	r0, r5
700051aa:	f7ff ee52 	blx	0x70004e50
700051ae:	3079      	adds	r0, #121	@ 0x79
700051b0:	d0f9      	beq.n	0x700051a6
700051b2:	20d4      	movs	r0, #212	@ 0xd4
700051b4:	5941      	ldr	r1, [r0, r5]
700051b6:	0028      	movs	r0, r5
700051b8:	4788      	blx	r1
700051ba:	2000      	movs	r0, #0
700051bc:	bdf8      	pop	{r3, r4, r5, r6, r7, pc}
700051be:	b570      	push	{r4, r5, r6, lr}
700051c0:	000c      	movs	r4, r1
700051c2:	4967      	ldr	r1, [pc, #412]	@ (0x70005360)
700051c4:	2500      	movs	r5, #0
700051c6:	6001      	str	r1, [r0, #0]
700051c8:	4966      	ldr	r1, [pc, #408]	@ (0x70005364)
700051ca:	6041      	str	r1, [r0, #4]
700051cc:	4966      	ldr	r1, [pc, #408]	@ (0x70005368)
700051ce:	6081      	str	r1, [r0, #8]
700051d0:	4966      	ldr	r1, [pc, #408]	@ (0x7000536c)
700051d2:	60c1      	str	r1, [r0, #12]
700051d4:	4966      	ldr	r1, [pc, #408]	@ (0x70005370)
700051d6:	6101      	str	r1, [r0, #16]
700051d8:	4966      	ldr	r1, [pc, #408]	@ (0x70005374)
700051da:	6141      	str	r1, [r0, #20]
700051dc:	4966      	ldr	r1, [pc, #408]	@ (0x70005378)
700051de:	6181      	str	r1, [r0, #24]
700051e0:	4966      	ldr	r1, [pc, #408]	@ (0x7000537c)
700051e2:	61c1      	str	r1, [r0, #28]
700051e4:	6245      	str	r5, [r0, #36]	@ 0x24
700051e6:	4966      	ldr	r1, [pc, #408]	@ (0x70005380)
700051e8:	6285      	str	r5, [r0, #40]	@ 0x28
700051ea:	62c5      	str	r5, [r0, #44]	@ 0x2c
700051ec:	6201      	str	r1, [r0, #32]
700051ee:	4965      	ldr	r1, [pc, #404]	@ (0x70005384)
700051f0:	6345      	str	r5, [r0, #52]	@ 0x34
700051f2:	6301      	str	r1, [r0, #48]	@ 0x30
700051f4:	4964      	ldr	r1, [pc, #400]	@ (0x70005388)
700051f6:	6381      	str	r1, [r0, #56]	@ 0x38
700051f8:	f001 fc6a 	bl	0x70006ad0
700051fc:	2201      	movs	r2, #1
700051fe:	0021      	movs	r1, r4
70005200:	0612      	lsls	r2, r2, #24
70005202:	31c0      	adds	r1, #192	@ 0xc0
70005204:	4290      	cmp	r0, r2
70005206:	d901      	bls.n	0x7000520c
70005208:	2004      	movs	r0, #4
7000520a:	e000      	b.n	0x7000520e
7000520c:	2003      	movs	r0, #3
7000520e:	7148      	strb	r0, [r1, #5]
70005210:	0020      	movs	r0, r4
70005212:	3080      	adds	r0, #128	@ 0x80
70005214:	6b02      	ldr	r2, [r0, #48]	@ 0x30
70005216:	7455      	strb	r5, [r2, #17]
70005218:	6b03      	ldr	r3, [r0, #48]	@ 0x30
7000521a:	22af      	movs	r2, #175	@ 0xaf
7000521c:	729a      	strb	r2, [r3, #10]
7000521e:	6b03      	ldr	r3, [r0, #48]	@ 0x30
70005220:	229f      	movs	r2, #159	@ 0x9f
70005222:	725a      	strb	r2, [r3, #9]
70005224:	6b03      	ldr	r3, [r0, #48]	@ 0x30
70005226:	2202      	movs	r2, #2
70005228:	701a      	strb	r2, [r3, #0]
7000522a:	6b03      	ldr	r3, [r0, #48]	@ 0x30
7000522c:	2220      	movs	r2, #32
7000522e:	719a      	strb	r2, [r3, #6]
70005230:	6b03      	ldr	r3, [r0, #48]	@ 0x30
70005232:	2252      	movs	r2, #82	@ 0x52
70005234:	71da      	strb	r2, [r3, #7]
70005236:	6b03      	ldr	r3, [r0, #48]	@ 0x30
70005238:	22d8      	movs	r2, #216	@ 0xd8
7000523a:	721a      	strb	r2, [r3, #8]
7000523c:	6b03      	ldr	r3, [r0, #48]	@ 0x30
7000523e:	22b0      	movs	r2, #176	@ 0xb0
70005240:	709a      	strb	r2, [r3, #2]
70005242:	6b03      	ldr	r3, [r0, #48]	@ 0x30
70005244:	2230      	movs	r2, #48	@ 0x30
70005246:	70da      	strb	r2, [r3, #3]
70005248:	6b03      	ldr	r3, [r0, #48]	@ 0x30
7000524a:	2206      	movs	r2, #6
7000524c:	705a      	strb	r2, [r3, #1]
7000524e:	6b00      	ldr	r0, [r0, #48]	@ 0x30
70005250:	2205      	movs	r2, #5
70005252:	7402      	strb	r2, [r0, #16]
70005254:	20b8      	movs	r0, #184	@ 0xb8
70005256:	5305      	strh	r5, [r0, r4]
70005258:	60e5      	str	r5, [r4, #12]
7000525a:	60a5      	str	r5, [r4, #8]
7000525c:	7425      	strb	r5, [r4, #16]
7000525e:	2000      	movs	r0, #0
70005260:	700a      	strb	r2, [r1, #0]
70005262:	bd70      	pop	{r4, r5, r6, pc}
70005264:	b51f      	push	{r0, r1, r2, r3, r4, lr}
70005266:	000a      	movs	r2, r1
70005268:	32c0      	adds	r2, #192	@ 0xc0
7000526a:	7853      	ldrb	r3, [r2, #1]
7000526c:	2bc8      	cmp	r3, #200	@ 0xc8
7000526e:	d018      	beq.n	0x700052a2
70005270:	dc0a      	bgt.n	0x70005288
70005272:	2b51      	cmp	r3, #81	@ 0x51
70005274:	d015      	beq.n	0x700052a2
70005276:	2bc2      	cmp	r3, #194	@ 0xc2
70005278:	d11f      	bne.n	0x700052ba
7000527a:	6893      	ldr	r3, [r2, #8]
7000527c:	2404      	movs	r4, #4
7000527e:	4323      	orrs	r3, r4
70005280:	6093      	str	r3, [r2, #8]
70005282:	f7ff fea3 	bl	0x70004fcc
70005286:	e00a      	b.n	0x7000529e
70005288:	2bef      	cmp	r3, #239	@ 0xef
7000528a:	d002      	beq.n	0x70005292
7000528c:	2bf8      	cmp	r3, #248	@ 0xf8
7000528e:	d114      	bne.n	0x700052ba
70005290:	e003      	b.n	0x7000529a
70005292:	6893      	ldr	r3, [r2, #8]
70005294:	2402      	movs	r4, #2
70005296:	4323      	orrs	r3, r4
70005298:	6093      	str	r3, [r2, #8]
7000529a:	f7ff fed6 	bl	0x7000504a
7000529e:	0004      	movs	r4, r0
700052a0:	e018      	b.n	0x700052d4
700052a2:	7894      	ldrb	r4, [r2, #2]
700052a4:	2c40      	cmp	r4, #64	@ 0x40
700052a6:	d105      	bne.n	0x700052b4
700052a8:	2b51      	cmp	r3, #81	@ 0x51
700052aa:	d003      	beq.n	0x700052b4
700052ac:	6893      	ldr	r3, [r2, #8]
700052ae:	2410      	movs	r4, #16
700052b0:	4323      	orrs	r3, r4
700052b2:	6093      	str	r3, [r2, #8]
700052b4:	f7ff fef5 	bl	0x700050a2
700052b8:	e7f1      	b.n	0x7000529e
700052ba:	2200      	movs	r2, #0
700052bc:	2477      	movs	r4, #119	@ 0x77
700052be:	9201      	str	r2, [sp, #4]
700052c0:	9202      	str	r2, [sp, #8]
700052c2:	9203      	str	r2, [sp, #12]
700052c4:	9200      	str	r2, [sp, #0]
700052c6:	4a31      	ldr	r2, [pc, #196]	@ (0x7000538c)
700052c8:	43e4      	mvns	r4, r4
700052ca:	2300      	movs	r3, #0
700052cc:	a130      	add	r1, pc, #192	@ (adr r1, 0x70005390)
700052ce:	a03c      	add	r0, pc, #240	@ (adr r0, 0x700053c0)
700052d0:	f000 fb6a 	bl	0x700059a8
700052d4:	0020      	movs	r0, r4
700052d6:	b004      	add	sp, #16
700052d8:	bd10      	pop	{r4, pc}
700052da:	b5f8      	push	{r3, r4, r5, r6, r7, lr}
700052dc:	0006      	movs	r6, r0
700052de:	2077      	movs	r0, #119	@ 0x77
700052e0:	000c      	movs	r4, r1
700052e2:	43c0      	mvns	r0, r0
700052e4:	2e00      	cmp	r6, #0
700052e6:	d02f      	beq.n	0x70005348
700052e8:	2c00      	cmp	r4, #0
700052ea:	d02d      	beq.n	0x70005348
700052ec:	0025      	movs	r5, r4
700052ee:	3580      	adds	r5, #128	@ 0x80
700052f0:	6b29      	ldr	r1, [r5, #48]	@ 0x30
700052f2:	2900      	cmp	r1, #0
700052f4:	d028      	beq.n	0x70005348
700052f6:	6ae9      	ldr	r1, [r5, #44]	@ 0x2c
700052f8:	2900      	cmp	r1, #0
700052fa:	d025      	beq.n	0x70005348
700052fc:	20ba      	movs	r0, #186	@ 0xba
700052fe:	6062      	str	r2, [r4, #4]
70005300:	5303      	strh	r3, [r0, r4]
70005302:	0021      	movs	r1, r4
70005304:	0030      	movs	r0, r6
70005306:	f7ff ff5a 	bl	0x700051be
7000530a:	6b29      	ldr	r1, [r5, #48]	@ 0x30
7000530c:	20af      	movs	r0, #175	@ 0xaf
7000530e:	7288      	strb	r0, [r1, #10]
70005310:	0021      	movs	r1, r4
70005312:	31c1      	adds	r1, #193	@ 0xc1
70005314:	000f      	movs	r7, r1
70005316:	0020      	movs	r0, r4
70005318:	f7ff edb6 	blx	0x70004e88
7000531c:	20c1      	movs	r0, #193	@ 0xc1
7000531e:	5d00      	ldrb	r0, [r0, r4]
70005320:	28ff      	cmp	r0, #255	@ 0xff
70005322:	d006      	beq.n	0x70005332
70005324:	2800      	cmp	r0, #0
70005326:	d004      	beq.n	0x70005332
70005328:	0038      	movs	r0, r7
7000532a:	f7ff fc59 	bl	0x70004be0
7000532e:	2800      	cmp	r0, #0
70005330:	d106      	bne.n	0x70005340
70005332:	6b29      	ldr	r1, [r5, #48]	@ 0x30
70005334:	209f      	movs	r0, #159	@ 0x9f
70005336:	7288      	strb	r0, [r1, #10]
70005338:	0039      	movs	r1, r7
7000533a:	0020      	movs	r0, r4
7000533c:	f7ff eda4 	blx	0x70004e88
70005340:	0021      	movs	r1, r4
70005342:	0030      	movs	r0, r6
70005344:	f7ff ff8e 	bl	0x70005264
70005348:	bdf8      	pop	{r3, r4, r5, r6, r7, pc}
7000534a:	0000      	movs	r0, r0
7000534c:	5205      	strh	r5, [r0, r0]
7000534e:	7000      	strb	r0, [r0, #0]
70005350:	51d1      	str	r1, [r2, r7]
70005352:	7000      	strb	r0, [r0, #0]
70005354:	2fa5      	cmp	r7, #165	@ 0xa5
70005356:	0001      	movs	r1, r0
70005358:	2078      	movs	r0, #120	@ 0x78
7000535a:	0001      	movs	r1, r0
7000535c:	2fa4      	cmp	r7, #164	@ 0xa4
7000535e:	0001      	movs	r1, r0
70005360:	5943      	ldr	r3, [r0, r5]
70005362:	1000      	asrs	r0, r0, #32
70005364:	58ef      	ldr	r7, [r5, r3]
70005366:	1000      	asrs	r0, r0, #32
70005368:	6e6f      	ldr	r7, [r5, #100]	@ 0x64
7000536a:	1000      	asrs	r0, r0, #32
7000536c:	5741      	ldrsb	r1, [r0, r5]
7000536e:	7000      	strb	r0, [r0, #0]
70005370:	5535      	strb	r5, [r6, r4]
70005372:	7000      	strb	r0, [r0, #0]
70005374:	54b3      	strb	r3, [r6, r2]
70005376:	7000      	strb	r0, [r0, #0]
70005378:	53fb      	strh	r3, [r7, r7]
7000537a:	7000      	strb	r0, [r0, #0]
7000537c:	5349      	strh	r1, [r1, r5]
7000537e:	7000      	strb	r0, [r0, #0]
70005380:	52a9      	strh	r1, [r5, r2]
70005382:	7000      	strb	r0, [r0, #0]
70005384:	5259      	strh	r1, [r3, r1]
70005386:	7000      	strb	r0, [r0, #0]
70005388:	58c1      	ldr	r1, [r0, r3]
7000538a:	1000      	asrs	r0, r0, #32
7000538c:	096a      	lsrs	r2, r5, #5
7000538e:	0000      	movs	r0, r0
70005390:	6168      	str	r0, [r5, #20]
70005392:	5c6c      	ldrb	r4, [r5, r1]
70005394:	7473      	strb	r3, [r6, #17]
70005396:	726f      	strb	r7, [r5, #9]
70005398:	6761      	str	r1, [r4, #116]	@ 0x74
7000539a:	5c65      	ldrb	r5, [r4, r1]
7000539c:	6c66      	ldr	r6, [r4, #68]	@ 0x44
7000539e:	7361      	strb	r1, [r4, #13]
700053a0:	5c68      	ldrb	r0, [r5, r1]
700053a2:	746d      	strb	r5, [r5, #17]
700053a4:	5c64      	ldrb	r4, [r4, r1]
700053a6:	7273      	strb	r3, [r6, #9]
700053a8:	5c63      	ldrb	r3, [r4, r1]
700053aa:	6c66      	ldr	r6, [r4, #68]	@ 0x44
700053ac:	7361      	strb	r1, [r4, #13]
700053ae:	5f68      	ldrsh	r0, [r5, r5]
700053b0:	746d      	strb	r5, [r5, #17]
700053b2:	5f64      	ldrsh	r4, [r4, r5]
700053b4:	6673      	str	r3, [r6, #100]	@ 0x64
700053b6:	645f      	str	r7, [r3, #68]	@ 0x44
700053b8:	6c61      	ldr	r1, [r4, #68]	@ 0x44
700053ba:	632e      	str	r6, [r5, #48]	@ 0x30
700053bc:	0000      	movs	r0, r0
700053be:	0000      	movs	r0, r0
700053c0:	0030      	movs	r0, r6
700053c2:	0000      	movs	r0, r0
700053c4:	b57f      	push	{r0, r1, r2, r3, r4, r5, r6, lr}
700053c6:	000c      	movs	r4, r1
700053c8:	f000 fdcc 	bl	0x70005f64
700053cc:	4914      	ldr	r1, [pc, #80]	@ (0x70005420)
700053ce:	4288      	cmp	r0, r1
700053d0:	d102      	bne.n	0x700053d8
700053d2:	0008      	movs	r0, r1
700053d4:	b004      	add	sp, #16
700053d6:	bd70      	pop	{r4, r5, r6, pc}
700053d8:	4912      	ldr	r1, [pc, #72]	@ (0x70005424)
700053da:	0100      	lsls	r0, r0, #4
700053dc:	1841      	adds	r1, r0, r1
700053de:	7b0a      	ldrb	r2, [r1, #12]
700053e0:	684b      	ldr	r3, [r1, #4]
700053e2:	2000      	movs	r0, #0
700053e4:	e00d      	b.n	0x70005402
700053e6:	0085      	lsls	r5, r0, #2
700053e8:	595d      	ldr	r5, [r3, r5]
700053ea:	42a5      	cmp	r5, r4
700053ec:	d108      	bne.n	0x70005400
700053ee:	6889      	ldr	r1, [r1, #8]
700053f0:	2900      	cmp	r1, #0
700053f2:	d102      	bne.n	0x700053fa
700053f4:	0400      	lsls	r0, r0, #16
700053f6:	0c00      	lsrs	r0, r0, #16
700053f8:	e7ec      	b.n	0x700053d4
700053fa:	0040      	lsls	r0, r0, #1
700053fc:	5a08      	ldrh	r0, [r1, r0]
700053fe:	e7e9      	b.n	0x700053d4
70005400:	1c40      	adds	r0, r0, #1
70005402:	4290      	cmp	r0, r2
70005404:	d3ef      	bcc.n	0x700053e6
70005406:	2200      	movs	r2, #0
70005408:	9201      	str	r2, [sp, #4]
7000540a:	9202      	str	r2, [sp, #8]
7000540c:	9203      	str	r2, [sp, #12]
7000540e:	9200      	str	r2, [sp, #0]
70005410:	228a      	movs	r2, #138	@ 0x8a
70005412:	2300      	movs	r3, #0
70005414:	a104      	add	r1, pc, #16	@ (adr r1, 0x70005428)
70005416:	a00d      	add	r0, pc, #52	@ (adr r0, 0x7000544c)
70005418:	f000 fac6 	bl	0x700059a8
7000541c:	2000      	movs	r0, #0
7000541e:	e7d9      	b.n	0x700053d4
70005420:	ffff 0000 	vaddl.u<illegal width 64>	q8, d15, d0
70005424:	89a8      	ldrh	r0, [r5, #12]
70005426:	1000      	asrs	r0, r0, #32
70005428:	6168      	str	r0, [r5, #20]
7000542a:	5c6c      	ldrb	r4, [r5, r1]
7000542c:	6570      	str	r0, [r6, #84]	@ 0x54
7000542e:	6972      	ldr	r2, [r6, #20]
70005430:	6870      	ldr	r0, [r6, #4]
70005432:	7265      	strb	r5, [r4, #9]
70005434:	6c61      	ldr	r1, [r4, #68]	@ 0x44
70005436:	735c      	strb	r4, [r3, #13]
70005438:	6372      	str	r2, [r6, #52]	@ 0x34
7000543a:	645c      	str	r4, [r3, #68]	@ 0x44
7000543c:	6c63      	ldr	r3, [r4, #68]	@ 0x44
7000543e:	705f      	strb	r7, [r3, #1]
70005440:	756d      	strb	r5, [r5, #21]
70005442:	635f      	str	r7, [r3, #52]	@ 0x34
70005444:	6d6f      	ldr	r7, [r5, #84]	@ 0x54
70005446:	6f6d      	ldr	r5, [r5, #116]	@ 0x74
70005448:	2e6e      	cmp	r6, #110	@ 0x6e
7000544a:	0063      	lsls	r3, r4, #1
7000544c:	0030      	movs	r0, r6
7000544e:	0000      	movs	r0, r0
70005450:	b40f      	push	{r0, r1, r2, r3}
70005452:	b510      	push	{r4, lr}
70005454:	9903      	ldr	r1, [sp, #12]
70005456:	aa04      	add	r2, sp, #16
70005458:	f7fd ff80 	bl	0x7000335c
7000545c:	bc10      	pop	{r4}
7000545e:	bc08      	pop	{r3}
70005460:	b004      	add	sp, #16
70005462:	4718      	bx	r3
70005464:	4802      	ldr	r0, [pc, #8]	@ (0x70005470)
70005466:	8a00      	ldrh	r0, [r0, #16]
70005468:	0700      	lsls	r0, r0, #28
7000546a:	0fc0      	lsrs	r0, r0, #31
7000546c:	4770      	bx	lr
7000546e:	0000      	movs	r0, r0
70005470:	0000      	movs	r0, r0
70005472:	a001      	add	r0, pc, #4	@ (adr r0, 0x70005478)
70005474:	280d      	cmp	r0, #13
70005476:	d204      	bcs.n	0x70005482
70005478:	4a03      	ldr	r2, [pc, #12]	@ (0x70005488)
7000547a:	0080      	lsls	r0, r0, #2
7000547c:	5812      	ldr	r2, [r2, r0]
7000547e:	0008      	movs	r0, r1
70005480:	4710      	bx	r2
70005482:	2002      	movs	r0, #2
70005484:	43c0      	mvns	r0, r0
70005486:	4770      	bx	lr
70005488:	2040      	movs	r0, #64	@ 0x40
7000548a:	0001      	movs	r1, r0
7000548c:	b5f0      	push	{r4, r5, r6, r7, lr}
7000548e:	000c      	movs	r4, r1
70005490:	0015      	movs	r5, r2
70005492:	001f      	movs	r7, r3
70005494:	28ff      	cmp	r0, #255	@ 0xff
70005496:	b0a1      	sub	sp, #132	@ 0x84
70005498:	d01c      	beq.n	0x700054d4
7000549a:	0001      	movs	r1, r0
7000549c:	4814      	ldr	r0, [pc, #80]	@ (0x700054f0)
7000549e:	f000 fc7b 	bl	0x70005d98
700054a2:	0006      	movs	r6, r0
700054a4:	2200      	movs	r2, #0
700054a6:	0021      	movs	r1, r4
700054a8:	f000 f824 	bl	0x700054f4
700054ac:	2d00      	cmp	r5, #0
700054ae:	d013      	beq.n	0x700054d8
700054b0:	2200      	movs	r2, #0
700054b2:	210f      	movs	r1, #15
700054b4:	0030      	movs	r0, r6
700054b6:	f000 f81d 	bl	0x700054f4
700054ba:	2f00      	cmp	r7, #0
700054bc:	d002      	beq.n	0x700054c4
700054be:	2200      	movs	r2, #0
700054c0:	2103      	movs	r1, #3
700054c2:	e001      	b.n	0x700054c8
700054c4:	2200      	movs	r2, #0
700054c6:	2102      	movs	r1, #2
700054c8:	0030      	movs	r0, r6
700054ca:	f000 f813 	bl	0x700054f4
700054ce:	0030      	movs	r0, r6
700054d0:	f000 fc60 	bl	0x70005d94
700054d4:	b021      	add	sp, #132	@ 0x84
700054d6:	bdf0      	pop	{r4, r5, r6, r7, pc}
700054d8:	2100      	movs	r1, #0
700054da:	000a      	movs	r2, r1
700054dc:	9100      	str	r1, [sp, #0]
700054de:	9101      	str	r1, [sp, #4]
700054e0:	9102      	str	r1, [sp, #8]
700054e2:	2110      	movs	r1, #16
700054e4:	0030      	movs	r0, r6
700054e6:	f000 f805 	bl	0x700054f4
700054ea:	212a      	movs	r1, #42	@ 0x2a
700054ec:	466a      	mov	r2, sp
700054ee:	e7eb      	b.n	0x700054c8
700054f0:	0401      	lsls	r1, r0, #16
700054f2:	0000      	movs	r0, r0
700054f4:	b57f      	push	{r0, r1, r2, r3, r4, r5, r6, lr}
700054f6:	0004      	movs	r4, r0
700054f8:	0640      	lsls	r0, r0, #25
700054fa:	000e      	movs	r6, r1
700054fc:	0e40      	lsrs	r0, r0, #25
700054fe:	2838      	cmp	r0, #56	@ 0x38
70005500:	d30d      	bcc.n	0x7000551e
70005502:	2200      	movs	r2, #0
70005504:	9201      	str	r2, [sp, #4]
70005506:	9202      	str	r2, [sp, #8]
70005508:	9203      	str	r2, [sp, #12]
7000550a:	9200      	str	r2, [sp, #0]
7000550c:	22ff      	movs	r2, #255	@ 0xff
7000550e:	324b      	adds	r2, #75	@ 0x4b
70005510:	2300      	movs	r3, #0
70005512:	a16c      	add	r1, pc, #432	@ (adr r1, 0x700056c4)
70005514:	a073      	add	r0, pc, #460	@ (adr r0, 0x700056e4)
70005516:	f000 fa47 	bl	0x700059a8
7000551a:	b004      	add	sp, #16
7000551c:	bd70      	pop	{r4, r5, r6, pc}
7000551e:	2501      	movs	r5, #1
70005520:	43ed      	mvns	r5, r5
70005522:	2c00      	cmp	r4, #0
70005524:	da73      	bge.n	0x7000560e
70005526:	0033      	movs	r3, r6
70005528:	f000 ea26 	blx	0x70005978
7000552c:	7f2b      	ldrb	r3, [r5, #28]
7000552e:	1b17      	subs	r7, r2, r4
70005530:	231e      	movs	r3, #30
70005532:	2323      	movs	r3, #35	@ 0x23
70005534:	2323      	movs	r3, #35	@ 0x23
70005536:	2323      	movs	r3, #35	@ 0x23
70005538:	2323      	movs	r3, #35	@ 0x23
7000553a:	2323      	movs	r3, #35	@ 0x23
7000553c:	2c29      	cmp	r4, #41	@ 0x29
7000553e:	3531      	adds	r5, #49	@ 0x31
70005540:	3d39      	subs	r5, #57	@ 0x39
70005542:	433f      	orrs	r7, r7
70005544:	4945      	ldr	r1, [pc, #276]	@ (0x7000565c)
70005546:	7f4f      	ldrb	r7, [r1, #29]
70005548:	7f7f      	ldrb	r7, [r7, #29]
7000554a:	7f7f      	ldrb	r7, [r7, #29]
7000554c:	7f7f      	ldrb	r7, [r7, #29]
7000554e:	7f7f      	ldrb	r7, [r7, #29]
70005550:	557f      	strb	r7, [r7, r5]
70005552:	5d58      	ldrb	r0, [r3, r5]
70005554:	6560      	str	r0, [r4, #84]	@ 0x54
70005556:	726a      	strb	r2, [r5, #9]
70005558:	007f      	lsls	r7, r7, #1
7000555a:	0014      	movs	r4, r2
7000555c:	f001 fc2a 	bl	0x70006db4
70005560:	e04c      	b.n	0x700055fc
70005562:	0001      	movs	r1, r0
70005564:	2000      	movs	r0, #0
70005566:	e001      	b.n	0x7000556c
70005568:	0001      	movs	r1, r0
7000556a:	2001      	movs	r0, #1
7000556c:	f001 fc4c 	bl	0x70006e08
70005570:	e089      	b.n	0x70005686
70005572:	1f36      	subs	r6, r6, #4
70005574:	0431      	lsls	r1, r6, #16
70005576:	0c09      	lsrs	r1, r1, #16
70005578:	f001 f9b0 	bl	0x700068dc
7000557c:	e083      	b.n	0x70005686
7000557e:	0001      	movs	r1, r0
70005580:	2001      	movs	r0, #1
70005582:	e001      	b.n	0x70005588
70005584:	0001      	movs	r1, r0
70005586:	2000      	movs	r0, #0
70005588:	f001 fbe4 	bl	0x70006d54
7000558c:	e07b      	b.n	0x70005686
7000558e:	0014      	movs	r4, r2
70005590:	f001 fa18 	bl	0x700069c4
70005594:	e032      	b.n	0x700055fc
70005596:	0014      	movs	r4, r2
70005598:	f001 f9f0 	bl	0x7000697c
7000559c:	e02e      	b.n	0x700055fc
7000559e:	0014      	movs	r4, r2
700055a0:	f001 f9fe 	bl	0x700069a0
700055a4:	e02a      	b.n	0x700055fc
700055a6:	2101      	movs	r1, #1
700055a8:	e000      	b.n	0x700055ac
700055aa:	2100      	movs	r1, #0
700055ac:	f001 f9cc 	bl	0x70006948
700055b0:	e069      	b.n	0x70005686
700055b2:	2101      	movs	r1, #1
700055b4:	e000      	b.n	0x700055b8
700055b6:	2100      	movs	r1, #0
700055b8:	f001 f9ae 	bl	0x70006918
700055bc:	e063      	b.n	0x70005686
700055be:	6811      	ldr	r1, [r2, #0]
700055c0:	0609      	lsls	r1, r1, #24
700055c2:	0e09      	lsrs	r1, r1, #24
700055c4:	f001 f96c 	bl	0x700068a0
700055c8:	e05d      	b.n	0x70005686
700055ca:	6810      	ldr	r0, [r2, #0]
700055cc:	0600      	lsls	r0, r0, #24
700055ce:	0e00      	lsrs	r0, r0, #24
700055d0:	f001 fa44 	bl	0x70006a5c
700055d4:	e057      	b.n	0x70005686
700055d6:	0001      	movs	r1, r0
700055d8:	2001      	movs	r0, #1
700055da:	e001      	b.n	0x700055e0
700055dc:	0001      	movs	r1, r0
700055de:	2000      	movs	r0, #0
700055e0:	f001 f978 	bl	0x700068d4
700055e4:	e04f      	b.n	0x70005686
700055e6:	0001      	movs	r1, r0
700055e8:	2001      	movs	r0, #1
700055ea:	e001      	b.n	0x700055f0
700055ec:	0001      	movs	r1, r0
700055ee:	2000      	movs	r0, #0
700055f0:	f001 fa35 	bl	0x70006a5e
700055f4:	e047      	b.n	0x70005686
700055f6:	0014      	movs	r4, r2
700055f8:	f001 f9bc 	bl	0x70006974
700055fc:	7020      	strb	r0, [r4, #0]
700055fe:	e042      	b.n	0x70005686
70005600:	8893      	ldrh	r3, [r2, #4]
70005602:	8851      	ldrh	r1, [r2, #2]
70005604:	7810      	ldrb	r0, [r2, #0]
70005606:	001a      	movs	r2, r3
70005608:	f7ff ec32 	blx	0x70004e70
7000560c:	e03b      	b.n	0x70005686
7000560e:	e014      	b.n	0x7000563a
70005610:	6891      	ldr	r1, [r2, #8]
70005612:	060b      	lsls	r3, r1, #24
70005614:	6851      	ldr	r1, [r2, #4]
70005616:	0e1b      	lsrs	r3, r3, #24
70005618:	060c      	lsls	r4, r1, #24
7000561a:	6811      	ldr	r1, [r2, #0]
7000561c:	0e24      	lsrs	r4, r4, #24
7000561e:	0609      	lsls	r1, r1, #24
70005620:	0e09      	lsrs	r1, r1, #24
70005622:	0022      	movs	r2, r4
70005624:	f001 fa1c 	bl	0x70006a60
70005628:	e02d      	b.n	0x70005686
7000562a:	2200      	movs	r2, #0
7000562c:	9202      	str	r2, [sp, #8]
7000562e:	9203      	str	r2, [sp, #12]
70005630:	22ff      	movs	r2, #255	@ 0xff
70005632:	32ed      	adds	r2, #237	@ 0xed
70005634:	9601      	str	r6, [sp, #4]
70005636:	9400      	str	r4, [sp, #0]
70005638:	e02e      	b.n	0x70005698
7000563a:	00a0      	lsls	r0, r4, #2
7000563c:	d533      	bpl.n	0x700056a6
7000563e:	2e1a      	cmp	r6, #26
70005640:	d008      	beq.n	0x70005654
70005642:	2e1b      	cmp	r6, #27
70005644:	d121      	bne.n	0x7000568a
70005646:	8810      	ldrh	r0, [r2, #0]
70005648:	7891      	ldrb	r1, [r2, #2]
7000564a:	0600      	lsls	r0, r0, #24
7000564c:	0e00      	lsrs	r0, r0, #24
7000564e:	f001 f9cb 	bl	0x700069e8
70005652:	e018      	b.n	0x70005686
70005654:	7894      	ldrb	r4, [r2, #2]
70005656:	0015      	movs	r5, r2
70005658:	2c80      	cmp	r4, #128	@ 0x80
7000565a:	d30e      	bcc.n	0x7000567a
7000565c:	2c82      	cmp	r4, #130	@ 0x82
7000565e:	d101      	bne.n	0x70005664
70005660:	2104      	movs	r1, #4
70005662:	e00b      	b.n	0x7000567c
70005664:	2200      	movs	r2, #0
70005666:	9201      	str	r2, [sp, #4]
70005668:	9202      	str	r2, [sp, #8]
7000566a:	9203      	str	r2, [sp, #12]
7000566c:	9200      	str	r2, [sp, #0]
7000566e:	4a1e      	ldr	r2, [pc, #120]	@ (0x700056e8)
70005670:	2300      	movs	r3, #0
70005672:	a114      	add	r1, pc, #80	@ (adr r1, 0x700056c4)
70005674:	a01b      	add	r0, pc, #108	@ (adr r0, 0x700056e4)
70005676:	f000 f997 	bl	0x700059a8
7000567a:	0021      	movs	r1, r4
7000567c:	8828      	ldrh	r0, [r5, #0]
7000567e:	0600      	lsls	r0, r0, #24
70005680:	0e00      	lsrs	r0, r0, #24
70005682:	f001 f9d1 	bl	0x70006a28
70005686:	2000      	movs	r0, #0
70005688:	e747      	b.n	0x7000551a
7000568a:	2200      	movs	r2, #0
7000568c:	9202      	str	r2, [sp, #8]
7000568e:	9203      	str	r2, [sp, #12]
70005690:	4a15      	ldr	r2, [pc, #84]	@ (0x700056e8)
70005692:	9601      	str	r6, [sp, #4]
70005694:	3a40      	subs	r2, #64	@ 0x40
70005696:	9400      	str	r4, [sp, #0]
70005698:	2301      	movs	r3, #1
7000569a:	a10a      	add	r1, pc, #40	@ (adr r1, 0x700056c4)
7000569c:	a011      	add	r0, pc, #68	@ (adr r0, 0x700056e4)
7000569e:	f000 f983 	bl	0x700059a8
700056a2:	0028      	movs	r0, r5
700056a4:	e739      	b.n	0x7000551a
700056a6:	2200      	movs	r2, #0
700056a8:	9202      	str	r2, [sp, #8]
700056aa:	9203      	str	r2, [sp, #12]
700056ac:	4a0e      	ldr	r2, [pc, #56]	@ (0x700056e8)
700056ae:	2301      	movs	r3, #1
700056b0:	3a3a      	subs	r2, #58	@ 0x3a
700056b2:	a104      	add	r1, pc, #16	@ (adr r1, 0x700056c4)
700056b4:	a00b      	add	r0, pc, #44	@ (adr r0, 0x700056e4)
700056b6:	9601      	str	r6, [sp, #4]
700056b8:	9400      	str	r4, [sp, #0]
700056ba:	f000 f975 	bl	0x700059a8
700056be:	2005      	movs	r0, #5
700056c0:	43c0      	mvns	r0, r0
700056c2:	e72a      	b.n	0x7000551a
700056c4:	6168      	str	r0, [r5, #20]
700056c6:	5c6c      	ldrb	r4, [r5, r1]
700056c8:	6570      	str	r0, [r6, #84]	@ 0x54
700056ca:	6972      	ldr	r2, [r6, #20]
700056cc:	6870      	ldr	r0, [r6, #4]
700056ce:	7265      	strb	r5, [r4, #9]
700056d0:	6c61      	ldr	r1, [r4, #68]	@ 0x44
700056d2:	735c      	strb	r4, [r3, #13]
700056d4:	6372      	str	r2, [r6, #52]	@ 0x34
700056d6:	645c      	str	r4, [r3, #68]	@ 0x44
700056d8:	6c63      	ldr	r3, [r4, #68]	@ 0x44
700056da:	675f      	str	r7, [r3, #116]	@ 0x74
700056dc:	6970      	ldr	r0, [r6, #20]
700056de:	2e6f      	cmp	r6, #111	@ 0x6f
700056e0:	0063      	lsls	r3, r4, #1
700056e2:	0000      	movs	r0, r0
700056e4:	0030      	movs	r0, r6
700056e6:	0000      	movs	r0, r0
700056e8:	0245      	lsls	r5, r0, #9
700056ea:	0000      	movs	r0, r0
700056ec:	2420      	movs	r4, #32
700056ee:	e1a0      	b.n	0x70005a32
700056f0:	0000      	movs	r0, r0
700056f2:	e5c1      	b.n	0x70005278
700056f4:	2001      	movs	r0, #1
700056f6:	e5c1      	b.n	0x7000527c
700056f8:	2820      	cmp	r0, #32
700056fa:	e1a0      	b.n	0x70005a3e
700056fc:	2002      	movs	r0, #2
700056fe:	e5c1      	b.n	0x70005284
70005700:	2c20      	cmp	r4, #32
70005702:	e1a0      	b.n	0x70005a46
70005704:	2003      	movs	r0, #3
70005706:	e5c1      	b.n	0x7000528c
70005708:	ff1e e12f 	vrhadd.u16	d14, d14, d31
7000570c:	2001      	movs	r0, #1
7000570e:	e5d0      	b.n	0x700052b2
70005710:	1000      	asrs	r0, r0, #32
70005712:	e5d0      	b.n	0x700052b6
70005714:	3002      	adds	r0, #2
70005716:	e5d0      	b.n	0x700052ba
70005718:	0003      	movs	r3, r0
7000571a:	e5d0      	b.n	0x700052be
7000571c:	1402      	asrs	r2, r0, #16
7000571e:	e181      	b.n	0x70005a24
70005720:	1803      	adds	r3, r0, r0
70005722:	e181      	b.n	0x70005a28
70005724:	0c00      	lsrs	r0, r0, #16
70005726:	e181      	b.n	0x70005a2c
70005728:	ff1e e12f 	vrhadd.u16	d14, d14, d31
7000572c:	b51f      	push	{r0, r1, r2, r3, r4, lr}
7000572e:	490e      	ldr	r1, [pc, #56]	@ (0x70005768)
70005730:	4288      	cmp	r0, r1
70005732:	d00e      	beq.n	0x70005752
70005734:	2200      	movs	r2, #0
70005736:	9201      	str	r2, [sp, #4]
70005738:	9202      	str	r2, [sp, #8]
7000573a:	9203      	str	r2, [sp, #12]
7000573c:	9200      	str	r2, [sp, #0]
7000573e:	22a3      	movs	r2, #163	@ 0xa3
70005740:	2300      	movs	r3, #0
70005742:	a10a      	add	r1, pc, #40	@ (adr r1, 0x7000576c)
70005744:	a012      	add	r0, pc, #72	@ (adr r0, 0x70005790)
70005746:	f000 f92f 	bl	0x700059a8
7000574a:	2000      	movs	r0, #0
7000574c:	43c0      	mvns	r0, r0
7000574e:	b004      	add	sp, #16
70005750:	bd10      	pop	{r4, pc}
70005752:	f7ff ebae 	blx	0x70004eb0
70005756:	4a0f      	ldr	r2, [pc, #60]	@ (0x70005794)
70005758:	2101      	movs	r1, #1
7000575a:	4c0f      	ldr	r4, [pc, #60]	@ (0x70005798)
7000575c:	6011      	str	r1, [r2, #0]
7000575e:	f7ff eba4 	blx	0x70004ea8
70005762:	0020      	movs	r0, r4
70005764:	e7f3      	b.n	0x7000574e
70005766:	0000      	movs	r0, r0
70005768:	1b01      	subs	r1, r0, r4
7000576a:	0000      	movs	r0, r0
7000576c:	6168      	str	r0, [r5, #20]
7000576e:	5c6c      	ldrb	r4, [r5, r1]
70005770:	6570      	str	r0, [r6, #84]	@ 0x54
70005772:	6972      	ldr	r2, [r6, #20]
70005774:	6870      	ldr	r0, [r6, #4]
70005776:	7265      	strb	r5, [r4, #9]
70005778:	6c61      	ldr	r1, [r4, #68]	@ 0x44
7000577a:	735c      	strb	r4, [r3, #13]
7000577c:	6372      	str	r2, [r6, #52]	@ 0x34
7000577e:	645c      	str	r4, [r3, #68]	@ 0x44
70005780:	6c63      	ldr	r3, [r4, #68]	@ 0x44
70005782:	665f      	str	r7, [r3, #100]	@ 0x64
70005784:	3233      	adds	r2, #51	@ 0x33
70005786:	5f6b      	ldrsh	r3, [r5, r5]
70005788:	6c63      	ldr	r3, [r4, #68]	@ 0x44
7000578a:	2e6b      	cmp	r6, #107	@ 0x6b
7000578c:	0063      	lsls	r3, r4, #1
7000578e:	0000      	movs	r0, r0
70005790:	0030      	movs	r0, r6
70005792:	0000      	movs	r0, r0
70005794:	2ecc      	cmp	r6, #204	@ 0xcc
70005796:	0001      	movs	r1, r0
70005798:	0001      	movs	r1, r0
7000579a:	4000      	ands	r0, r0
7000579c:	b51f      	push	{r0, r1, r2, r3, r4, lr}
7000579e:	0040      	lsls	r0, r0, #1
700057a0:	d40f      	bmi.n	0x700057c2
700057a2:	2200      	movs	r2, #0
700057a4:	9201      	str	r2, [sp, #4]
700057a6:	9202      	str	r2, [sp, #8]
700057a8:	9203      	str	r2, [sp, #12]
700057aa:	9200      	str	r2, [sp, #0]
700057ac:	22ff      	movs	r2, #255	@ 0xff
700057ae:	326d      	adds	r2, #109	@ 0x6d
700057b0:	2300      	movs	r3, #0
700057b2:	a10e      	add	r1, pc, #56	@ (adr r1, 0x700057ec)
700057b4:	a016      	add	r0, pc, #88	@ (adr r0, 0x70005810)
700057b6:	f000 f8f7 	bl	0x700059a8
700057ba:	2005      	movs	r0, #5
700057bc:	43c0      	mvns	r0, r0
700057be:	b004      	add	sp, #16
700057c0:	bd10      	pop	{r4, pc}
700057c2:	4814      	ldr	r0, [pc, #80]	@ (0x70005814)
700057c4:	6800      	ldr	r0, [r0, #0]
700057c6:	2800      	cmp	r0, #0
700057c8:	d10e      	bne.n	0x700057e8
700057ca:	2200      	movs	r2, #0
700057cc:	9201      	str	r2, [sp, #4]
700057ce:	9202      	str	r2, [sp, #8]
700057d0:	9203      	str	r2, [sp, #12]
700057d2:	9200      	str	r2, [sp, #0]
700057d4:	22ff      	movs	r2, #255	@ 0xff
700057d6:	3274      	adds	r2, #116	@ 0x74
700057d8:	2300      	movs	r3, #0
700057da:	a104      	add	r1, pc, #16	@ (adr r1, 0x700057ec)
700057dc:	a00c      	add	r0, pc, #48	@ (adr r0, 0x70005810)
700057de:	f000 f8e3 	bl	0x700059a8
700057e2:	2003      	movs	r0, #3
700057e4:	43c0      	mvns	r0, r0
700057e6:	e7ea      	b.n	0x700057be
700057e8:	2000      	movs	r0, #0
700057ea:	e7e8      	b.n	0x700057be
700057ec:	6168      	str	r0, [r5, #20]
700057ee:	5c6c      	ldrb	r4, [r5, r1]
700057f0:	6570      	str	r0, [r6, #84]	@ 0x54
700057f2:	6972      	ldr	r2, [r6, #20]
700057f4:	6870      	ldr	r0, [r6, #4]
700057f6:	7265      	strb	r5, [r4, #9]
700057f8:	6c61      	ldr	r1, [r4, #68]	@ 0x44
700057fa:	735c      	strb	r4, [r3, #13]
700057fc:	6372      	str	r2, [r6, #52]	@ 0x34
700057fe:	645c      	str	r4, [r3, #68]	@ 0x44
70005800:	6c63      	ldr	r3, [r4, #68]	@ 0x44
70005802:	665f      	str	r7, [r3, #100]	@ 0x64
70005804:	3233      	adds	r2, #51	@ 0x33
70005806:	5f6b      	ldrsh	r3, [r5, r5]
70005808:	6c63      	ldr	r3, [r4, #68]	@ 0x44
7000580a:	2e6b      	cmp	r6, #107	@ 0x6b
7000580c:	0063      	lsls	r3, r4, #1
7000580e:	0000      	movs	r0, r0
70005810:	0030      	movs	r0, r6
70005812:	0000      	movs	r0, r0
70005814:	2ecc      	cmp	r6, #204	@ 0xcc
70005816:	0001      	movs	r1, r0
70005818:	b51f      	push	{r0, r1, r2, r3, r4, lr}
7000581a:	0040      	lsls	r0, r0, #1
7000581c:	d40f      	bmi.n	0x7000583e
7000581e:	2200      	movs	r2, #0
70005820:	9201      	str	r2, [sp, #4]
70005822:	9202      	str	r2, [sp, #8]
70005824:	9203      	str	r2, [sp, #12]
70005826:	9200      	str	r2, [sp, #0]
70005828:	22ff      	movs	r2, #255	@ 0xff
7000582a:	3216      	adds	r2, #22
7000582c:	2300      	movs	r3, #0
7000582e:	a120      	add	r1, pc, #128	@ (adr r1, 0x700058b0)
70005830:	a028      	add	r0, pc, #160	@ (adr r0, 0x700058d4)
70005832:	f000 f8b9 	bl	0x700059a8
70005836:	2005      	movs	r0, #5
70005838:	43c0      	mvns	r0, r0
7000583a:	b004      	add	sp, #16
7000583c:	bd10      	pop	{r4, pc}
7000583e:	4826      	ldr	r0, [pc, #152]	@ (0x700058d8)
70005840:	6800      	ldr	r0, [r0, #0]
70005842:	2800      	cmp	r0, #0
70005844:	d10e      	bne.n	0x70005864
70005846:	2200      	movs	r2, #0
70005848:	9201      	str	r2, [sp, #4]
7000584a:	9202      	str	r2, [sp, #8]
7000584c:	9203      	str	r2, [sp, #12]
7000584e:	9200      	str	r2, [sp, #0]
70005850:	22ff      	movs	r2, #255	@ 0xff
70005852:	321c      	adds	r2, #28
70005854:	2300      	movs	r3, #0
70005856:	a116      	add	r1, pc, #88	@ (adr r1, 0x700058b0)
70005858:	a01e      	add	r0, pc, #120	@ (adr r0, 0x700058d4)
7000585a:	f000 f8a5 	bl	0x700059a8
7000585e:	2003      	movs	r0, #3
70005860:	43c0      	mvns	r0, r0
70005862:	e7ea      	b.n	0x7000583a
70005864:	481d      	ldr	r0, [pc, #116]	@ (0x700058dc)
70005866:	180b      	adds	r3, r1, r0
70005868:	f000 e886 	blx	0x70005978
7000586c:	0406      	lsls	r6, r0, #16
7000586e:	0c09      	lsrs	r1, r1, #16
70005870:	1612      	asrs	r2, r2, #24
70005872:	1e1a      	subs	r2, r3, #0
70005874:	0014      	movs	r4, r2
70005876:	f000 fffb 	bl	0x70006870
7000587a:	7020      	strb	r0, [r4, #0]
7000587c:	e006      	b.n	0x7000588c
7000587e:	f000 ffcb 	bl	0x70006818
70005882:	e003      	b.n	0x7000588c
70005884:	0014      	movs	r4, r2
70005886:	f000 ff67 	bl	0x70006758
7000588a:	8020      	strh	r0, [r4, #0]
7000588c:	2000      	movs	r0, #0
7000588e:	e7d4      	b.n	0x7000583a
70005890:	7810      	ldrb	r0, [r2, #0]
70005892:	f001 f801 	bl	0x70006898
70005896:	e7d0      	b.n	0x7000583a
70005898:	7810      	ldrb	r0, [r2, #0]
7000589a:	f000 fffa 	bl	0x70006892
7000589e:	e7cc      	b.n	0x7000583a
700058a0:	7810      	ldrb	r0, [r2, #0]
700058a2:	f000 fff3 	bl	0x7000688c
700058a6:	e7c8      	b.n	0x7000583a
700058a8:	2001      	movs	r0, #1
700058aa:	43c0      	mvns	r0, r0
700058ac:	e7c5      	b.n	0x7000583a
700058ae:	0000      	movs	r0, r0
700058b0:	6168      	str	r0, [r5, #20]
700058b2:	5c6c      	ldrb	r4, [r5, r1]
700058b4:	6570      	str	r0, [r6, #84]	@ 0x54
700058b6:	6972      	ldr	r2, [r6, #20]
700058b8:	6870      	ldr	r0, [r6, #4]
700058ba:	7265      	strb	r5, [r4, #9]
700058bc:	6c61      	ldr	r1, [r4, #68]	@ 0x44
700058be:	735c      	strb	r4, [r3, #13]
700058c0:	6372      	str	r2, [r6, #52]	@ 0x34
700058c2:	645c      	str	r4, [r3, #68]	@ 0x44
700058c4:	6c63      	ldr	r3, [r4, #68]	@ 0x44
700058c6:	665f      	str	r7, [r3, #100]	@ 0x64
700058c8:	3233      	adds	r2, #51	@ 0x33
700058ca:	5f6b      	ldrsh	r3, [r5, r5]
700058cc:	6c63      	ldr	r3, [r4, #68]	@ 0x44
700058ce:	2e6b      	cmp	r6, #107	@ 0x6b
700058d0:	0063      	lsls	r3, r4, #1
700058d2:	0000      	movs	r0, r0
700058d4:	0030      	movs	r0, r6
700058d6:	0000      	movs	r0, r0
700058d8:	2ecc      	cmp	r6, #204	@ 0xcc
700058da:	0001      	movs	r1, r0
700058dc:	e2ff      	b.n	0x70005ede
700058de:	ffff b57f 	vsli.32	<illegal reg q13.5>, <illegal reg q15.5>, #31
700058e2:	0005      	movs	r5, r0
700058e4:	2006      	movs	r0, #6
700058e6:	0016      	movs	r6, r2
700058e8:	4348      	muls	r0, r1
700058ea:	4a10      	ldr	r2, [pc, #64]	@ (0x7000592c)
700058ec:	1884      	adds	r4, r0, r2
700058ee:	7820      	ldrb	r0, [r4, #0]
700058f0:	4288      	cmp	r0, r1
700058f2:	d00a      	beq.n	0x7000590a
700058f4:	2200      	movs	r2, #0
700058f6:	9201      	str	r2, [sp, #4]
700058f8:	9202      	str	r2, [sp, #8]
700058fa:	9203      	str	r2, [sp, #12]
700058fc:	9200      	str	r2, [sp, #0]
700058fe:	22c4      	movs	r2, #196	@ 0xc4
70005900:	2300      	movs	r3, #0
70005902:	a10b      	add	r1, pc, #44	@ (adr r1, 0x70005930)
70005904:	a013      	add	r0, pc, #76	@ (adr r0, 0x70005954)
70005906:	f000 f84f 	bl	0x700059a8
7000590a:	f7ff ead2 	blx	0x70004eb0
7000590e:	7862      	ldrb	r2, [r4, #1]
70005910:	5aab      	ldrh	r3, [r5, r2]
70005912:	8861      	ldrh	r1, [r4, #2]
70005914:	7924      	ldrb	r4, [r4, #4]
70005916:	438b      	bics	r3, r1
70005918:	40a6      	lsls	r6, r4
7000591a:	400e      	ands	r6, r1
7000591c:	431e      	orrs	r6, r3
7000591e:	52ae      	strh	r6, [r5, r2]
70005920:	f7ff eac2 	blx	0x70004ea8
70005924:	2000      	movs	r0, #0
70005926:	b004      	add	sp, #16
70005928:	bd70      	pop	{r4, r5, r6, pc}
7000592a:	0000      	movs	r0, r0
7000592c:	8580      	strh	r0, [r0, #44]	@ 0x2c
7000592e:	1000      	asrs	r0, r0, #32
70005930:	6168      	str	r0, [r5, #20]
70005932:	5c6c      	ldrb	r4, [r5, r1]
70005934:	6570      	str	r0, [r6, #84]	@ 0x54
70005936:	6972      	ldr	r2, [r6, #20]
70005938:	6870      	ldr	r0, [r6, #4]
7000593a:	7265      	strb	r5, [r4, #9]
7000593c:	6c61      	ldr	r1, [r4, #68]	@ 0x44
7000593e:	735c      	strb	r4, [r3, #13]
70005940:	6372      	str	r2, [r6, #52]	@ 0x34
70005942:	645c      	str	r4, [r3, #68]	@ 0x44
70005944:	6c63      	ldr	r3, [r4, #68]	@ 0x44
70005946:	705f      	strb	r7, [r3, #1]
70005948:	756d      	strb	r5, [r5, #21]
7000594a:	635f      	str	r7, [r3, #52]	@ 0x34
7000594c:	6d6f      	ldr	r7, [r5, #84]	@ 0x54
7000594e:	6f6d      	ldr	r5, [r5, #116]	@ 0x74
70005950:	2e6e      	cmp	r6, #110	@ 0x6e
70005952:	0063      	lsls	r3, r4, #1
70005954:	0030      	movs	r0, r6
70005956:	0000      	movs	r0, r0
70005958:	4a06      	ldr	r2, [pc, #24]	@ (0x70005974)
7000595a:	2000      	movs	r0, #0
7000595c:	2101      	movs	r1, #1
7000595e:	8291      	strh	r1, [r2, #20]
70005960:	4a04      	ldr	r2, [pc, #16]	@ (0x70005974)
70005962:	3a60      	subs	r2, #96	@ 0x60
70005964:	e003      	b.n	0x7000596e
70005966:	8811      	ldrh	r1, [r2, #0]
70005968:	0649      	lsls	r1, r1, #25
7000596a:	d502      	bpl.n	0x70005972
7000596c:	1c40      	adds	r0, r0, #1
7000596e:	1c41      	adds	r1, r0, #1
70005970:	d1f9      	bne.n	0x70005966
70005972:	4770      	bx	lr
70005974:	0060      	lsls	r0, r4, #1
70005976:	a071      	add	r0, pc, #452	@ (adr r0, 0x70005b3c)
70005978:	c001      	stmia	r0!, {r0}
7000597a:	e55e      	b.n	0x7000543a
7000597c:	000c      	movs	r4, r1
7000597e:	e153      	b.n	0x70005c28
70005980:	3003      	adds	r0, #3
70005982:	37de      	adds	r7, #222	@ 0xde
70005984:	300c      	adds	r0, #12
70005986:	27de      	movs	r7, #222	@ 0xde
70005988:	c083      	stmia	r0!, {r0, r1, r7}
7000598a:	e08e      	b.n	0x70005aaa
7000598c:	ff1c e12f 	vrhadd.u16	d14, d12, d31
70005990:	b40f      	push	{r0, r1, r2, r3}
70005992:	b510      	push	{r4, lr}
70005994:	9902      	ldr	r1, [sp, #8]
70005996:	2000      	movs	r0, #0
70005998:	aa03      	add	r2, sp, #12
7000599a:	f7fd fcdf 	bl	0x7000335c
7000599e:	bc10      	pop	{r4}
700059a0:	bc08      	pop	{r3}
700059a2:	b004      	add	sp, #16
700059a4:	4718      	bx	r3
700059a6:	0000      	movs	r0, r0
700059a8:	b570      	push	{r4, r5, r6, lr}
700059aa:	4c05      	ldr	r4, [pc, #20]	@ (0x700059c0)
700059ac:	9d03      	ldr	r5, [sp, #12]
700059ae:	a005      	add	r0, pc, #20	@ (adr r0, 0x700059c4)
700059b0:	0029      	movs	r1, r5
700059b2:	f7ff ffed 	bl	0x70005990
700059b6:	0020      	movs	r0, r4
700059b8:	1e40      	subs	r0, r0, #1
700059ba:	d1fd      	bne.n	0x700059b8
700059bc:	e7f7      	b.n	0x700059ae
700059be:	0000      	movs	r0, r0
700059c0:	ffff 000f 	vaddl.u<illegal width 64>	q8, d15, d15
700059c4:	7361      	strb	r1, [r4, #13]
700059c6:	6573      	str	r3, [r6, #84]	@ 0x54
700059c8:	7472      	strb	r2, [r6, #17]
700059ca:	6620      	str	r0, [r4, #96]	@ 0x60
700059cc:	6961      	ldr	r1, [r4, #20]
700059ce:	206c      	movs	r0, #108	@ 0x6c
700059d0:	7461      	strb	r1, [r4, #17]
700059d2:	2520      	movs	r5, #32
700059d4:	0a78      	lsrs	r0, r7, #9
700059d6:	000d      	movs	r5, r1
700059d8:	b570      	push	{r4, r5, r6, lr}
700059da:	4d13      	ldr	r5, [pc, #76]	@ (0x70005a28)
700059dc:	0006      	movs	r6, r0
700059de:	2400      	movs	r4, #0
700059e0:	5d28      	ldrb	r0, [r5, r4]
700059e2:	42b4      	cmp	r4, r6
700059e4:	d103      	bne.n	0x700059ee
700059e6:	2201      	movs	r2, #1
700059e8:	2104      	movs	r1, #4
700059ea:	0013      	movs	r3, r2
700059ec:	e002      	b.n	0x700059f4
700059ee:	2200      	movs	r2, #0
700059f0:	2104      	movs	r1, #4
700059f2:	0013      	movs	r3, r2
700059f4:	f7ff fd4a 	bl	0x7000548c
700059f8:	1c64      	adds	r4, r4, #1
700059fa:	2c05      	cmp	r4, #5
700059fc:	d3f0      	bcc.n	0x700059e0
700059fe:	4d0c      	ldr	r5, [pc, #48]	@ (0x70005a30)
70005a00:	4a0a      	ldr	r2, [pc, #40]	@ (0x70005a2c)
70005a02:	68a9      	ldr	r1, [r5, #8]
70005a04:	68a8      	ldr	r0, [r5, #8]
70005a06:	4281      	cmp	r1, r0
70005a08:	d101      	bne.n	0x70005a0e
70005a0a:	1e52      	subs	r2, r2, #1
70005a0c:	e008      	b.n	0x70005a20
70005a0e:	1a44      	subs	r4, r0, r1
70005a10:	4288      	cmp	r0, r1
70005a12:	d200      	bcs.n	0x70005a16
70005a14:	1e64      	subs	r4, r4, #1
70005a16:	4807      	ldr	r0, [pc, #28]	@ (0x70005a34)
70005a18:	4360      	muls	r0, r4
70005a1a:	0a80      	lsrs	r0, r0, #10
70005a1c:	28a0      	cmp	r0, #160	@ 0xa0
70005a1e:	d201      	bcs.n	0x70005a24
70005a20:	2a00      	cmp	r2, #0
70005a22:	d1ef      	bne.n	0x70005a04
70005a24:	bd70      	pop	{r4, r5, r6, pc}
70005a26:	0000      	movs	r0, r0
70005a28:	2fc4      	cmp	r7, #196	@ 0xc4
70005a2a:	0001      	movs	r1, r0
70005a2c:	ffff 0000 	vaddl.u<illegal width 64>	q8, d15, d0
70005a30:	0080      	lsls	r0, r0, #2
70005a32:	a018      	add	r0, pc, #96	@ (adr r0, 0x70005a94)
70005a34:	0455      	lsls	r5, r2, #17
70005a36:	0000      	movs	r0, r0
70005a38:	b570      	push	{r4, r5, r6, lr}
70005a3a:	0004      	movs	r4, r0
70005a3c:	000d      	movs	r5, r1
70005a3e:	f7ff ea38 	blx	0x70004eb0
70005a42:	4992      	ldr	r1, [pc, #584]	@ (0x70005c8c)
70005a44:	880a      	ldrh	r2, [r1, #0]
70005a46:	230d      	movs	r3, #13
70005a48:	439a      	bics	r2, r3
70005a4a:	800a      	strh	r2, [r1, #0]
70005a4c:	2203      	movs	r2, #3
70005a4e:	604a      	str	r2, [r1, #4]
70005a50:	2200      	movs	r2, #0
70005a52:	608a      	str	r2, [r1, #8]
70005a54:	60ca      	str	r2, [r1, #12]
70005a56:	610a      	str	r2, [r1, #16]
70005a58:	614a      	str	r2, [r1, #20]
70005a5a:	618a      	str	r2, [r1, #24]
70005a5c:	61ca      	str	r2, [r1, #28]
70005a5e:	620a      	str	r2, [r1, #32]
70005a60:	624a      	str	r2, [r1, #36]	@ 0x24
70005a62:	2d00      	cmp	r5, #0
70005a64:	d00b      	beq.n	0x70005a7e
70005a66:	2c00      	cmp	r4, #0
70005a68:	d009      	beq.n	0x70005a7e
70005a6a:	880a      	ldrh	r2, [r1, #0]
70005a6c:	2303      	movs	r3, #3
70005a6e:	021b      	lsls	r3, r3, #8
70005a70:	439a      	bics	r2, r3
70005a72:	800a      	strh	r2, [r1, #0]
70005a74:	880a      	ldrh	r2, [r1, #0]
70005a76:	4b86      	ldr	r3, [pc, #536]	@ (0x70005c90)
70005a78:	431c      	orrs	r4, r3
70005a7a:	4322      	orrs	r2, r4
70005a7c:	800a      	strh	r2, [r1, #0]
70005a7e:	f7ff ea14 	blx	0x70004ea8
70005a82:	bd70      	pop	{r4, r5, r6, pc}
70005a84:	b5f0      	push	{r4, r5, r6, r7, lr}
70005a86:	0004      	movs	r4, r0
70005a88:	8900      	ldrh	r0, [r0, #8]
70005a8a:	b085      	sub	sp, #20
70005a8c:	2810      	cmp	r0, #16
70005a8e:	d30b      	bcc.n	0x70005aa8
70005a90:	2200      	movs	r2, #0
70005a92:	9201      	str	r2, [sp, #4]
70005a94:	9202      	str	r2, [sp, #8]
70005a96:	9203      	str	r2, [sp, #12]
70005a98:	9200      	str	r2, [sp, #0]
70005a9a:	22f9      	movs	r2, #249	@ 0xf9
70005a9c:	00d2      	lsls	r2, r2, #3
70005a9e:	2300      	movs	r3, #0
70005aa0:	a17c      	add	r1, pc, #496	@ (adr r1, 0x70005c94)
70005aa2:	a084      	add	r0, pc, #528	@ (adr r0, 0x70005cb4)
70005aa4:	f7ff ff80 	bl	0x700059a8
70005aa8:	6860      	ldr	r0, [r4, #4]
70005aaa:	2501      	movs	r5, #1
70005aac:	06ad      	lsls	r5, r5, #26
70005aae:	42a8      	cmp	r0, r5
70005ab0:	d90a      	bls.n	0x70005ac8
70005ab2:	2200      	movs	r2, #0
70005ab4:	9201      	str	r2, [sp, #4]
70005ab6:	9202      	str	r2, [sp, #8]
70005ab8:	9203      	str	r2, [sp, #12]
70005aba:	9200      	str	r2, [sp, #0]
70005abc:	4a87      	ldr	r2, [pc, #540]	@ (0x70005cdc)
70005abe:	2300      	movs	r3, #0
70005ac0:	a174      	add	r1, pc, #464	@ (adr r1, 0x70005c94)
70005ac2:	a087      	add	r0, pc, #540	@ (adr r0, 0x70005ce0)
70005ac4:	f7ff ff70 	bl	0x700059a8
70005ac8:	2701      	movs	r7, #1
70005aca:	6866      	ldr	r6, [r4, #4]
70005acc:	033f      	lsls	r7, r7, #12
70005ace:	e00e      	b.n	0x70005aee
70005ad0:	086d      	lsrs	r5, r5, #1
70005ad2:	42bd      	cmp	r5, r7
70005ad4:	d20b      	bcs.n	0x70005aee
70005ad6:	2200      	movs	r2, #0
70005ad8:	9201      	str	r2, [sp, #4]
70005ada:	9202      	str	r2, [sp, #8]
70005adc:	9203      	str	r2, [sp, #12]
70005ade:	9200      	str	r2, [sp, #0]
70005ae0:	4a7e      	ldr	r2, [pc, #504]	@ (0x70005cdc)
70005ae2:	2300      	movs	r3, #0
70005ae4:	320a      	adds	r2, #10
70005ae6:	a16b      	add	r1, pc, #428	@ (adr r1, 0x70005c94)
70005ae8:	a088      	add	r0, pc, #544	@ (adr r0, 0x70005d0c)
70005aea:	f7ff ff5d 	bl	0x700059a8
70005aee:	42ae      	cmp	r6, r5
70005af0:	d3ee      	bcc.n	0x70005ad0
70005af2:	6821      	ldr	r1, [r4, #0]
70005af4:	8960      	ldrh	r0, [r4, #10]
70005af6:	0b0d      	lsrs	r5, r1, #12
70005af8:	032d      	lsls	r5, r5, #12
70005afa:	2800      	cmp	r0, #0
70005afc:	d002      	beq.n	0x70005b04
70005afe:	20ff      	movs	r0, #255	@ 0xff
70005b00:	3001      	adds	r0, #1
70005b02:	4305      	orrs	r5, r0
70005b04:	f7ff e9d4 	blx	0x70004eb0
70005b08:	8921      	ldrh	r1, [r4, #8]
70005b0a:	4a88      	ldr	r2, [pc, #544]	@ (0x70005d2c)
70005b0c:	0089      	lsls	r1, r1, #2
70005b0e:	1889      	adds	r1, r1, r2
70005b10:	600d      	str	r5, [r1, #0]
70005b12:	6862      	ldr	r2, [r4, #4]
70005b14:	6821      	ldr	r1, [r4, #0]
70005b16:	4b85      	ldr	r3, [pc, #532]	@ (0x70005d2c)
70005b18:	1889      	adds	r1, r1, r2
70005b1a:	8922      	ldrh	r2, [r4, #8]
70005b1c:	3340      	adds	r3, #64	@ 0x40
70005b1e:	0092      	lsls	r2, r2, #2
70005b20:	18d2      	adds	r2, r2, r3
70005b22:	6011      	str	r1, [r2, #0]
70005b24:	4a59      	ldr	r2, [pc, #356]	@ (0x70005c8c)
70005b26:	6ad1      	ldr	r1, [r2, #44]	@ 0x2c
70005b28:	8924      	ldrh	r4, [r4, #8]
70005b2a:	2301      	movs	r3, #1
70005b2c:	40a3      	lsls	r3, r4
70005b2e:	4319      	orrs	r1, r3
70005b30:	62d1      	str	r1, [r2, #44]	@ 0x2c
70005b32:	f7ff e9ba 	blx	0x70004ea8
70005b36:	b005      	add	sp, #20
70005b38:	bdf0      	pop	{r4, r5, r6, r7, pc}
70005b3a:	4854      	ldr	r0, [pc, #336]	@ (0x70005c8c)
70005b3c:	b510      	push	{r4, lr}
70005b3e:	8802      	ldrh	r2, [r0, #0]
70005b40:	497b      	ldr	r1, [pc, #492]	@ (0x70005d30)
70005b42:	0852      	lsrs	r2, r2, #1
70005b44:	0052      	lsls	r2, r2, #1
70005b46:	8002      	strh	r2, [r0, #0]
70005b48:	8849      	ldrh	r1, [r1, #2]
70005b4a:	4b78      	ldr	r3, [pc, #480]	@ (0x70005d2c)
70005b4c:	2000      	movs	r0, #0
70005b4e:	0002      	movs	r2, r0
70005b50:	07cc      	lsls	r4, r1, #31
70005b52:	d002      	beq.n	0x70005b5a
70005b54:	0084      	lsls	r4, r0, #2
70005b56:	18e4      	adds	r4, r4, r3
70005b58:	6022      	str	r2, [r4, #0]
70005b5a:	0849      	lsrs	r1, r1, #1
70005b5c:	1c40      	adds	r0, r0, #1
70005b5e:	2810      	cmp	r0, #16
70005b60:	d3f6      	bcc.n	0x70005b50
70005b62:	bd10      	pop	{r4, pc}
70005b64:	b5f0      	push	{r4, r5, r6, r7, lr}
70005b66:	0004      	movs	r4, r0
70005b68:	8900      	ldrh	r0, [r0, #8]
70005b6a:	b085      	sub	sp, #20
70005b6c:	2810      	cmp	r0, #16
70005b6e:	d30b      	bcc.n	0x70005b88
70005b70:	2200      	movs	r2, #0
70005b72:	9201      	str	r2, [sp, #4]
70005b74:	9202      	str	r2, [sp, #8]
70005b76:	9203      	str	r2, [sp, #12]
70005b78:	9200      	str	r2, [sp, #0]
70005b7a:	4a58      	ldr	r2, [pc, #352]	@ (0x70005cdc)
70005b7c:	2300      	movs	r3, #0
70005b7e:	3275      	adds	r2, #117	@ 0x75
70005b80:	a144      	add	r1, pc, #272	@ (adr r1, 0x70005c94)
70005b82:	a06c      	add	r0, pc, #432	@ (adr r0, 0x70005d34)
70005b84:	f7ff ff10 	bl	0x700059a8
70005b88:	6860      	ldr	r0, [r4, #4]
70005b8a:	2501      	movs	r5, #1
70005b8c:	06ad      	lsls	r5, r5, #26
70005b8e:	42a8      	cmp	r0, r5
70005b90:	d90b      	bls.n	0x70005baa
70005b92:	2200      	movs	r2, #0
70005b94:	9201      	str	r2, [sp, #4]
70005b96:	9202      	str	r2, [sp, #8]
70005b98:	9203      	str	r2, [sp, #12]
70005b9a:	9200      	str	r2, [sp, #0]
70005b9c:	4a4f      	ldr	r2, [pc, #316]	@ (0x70005cdc)
70005b9e:	2300      	movs	r3, #0
70005ba0:	3276      	adds	r2, #118	@ 0x76
70005ba2:	a13c      	add	r1, pc, #240	@ (adr r1, 0x70005c94)
70005ba4:	a06b      	add	r0, pc, #428	@ (adr r0, 0x70005d54)
70005ba6:	f7ff feff 	bl	0x700059a8
70005baa:	2701      	movs	r7, #1
70005bac:	6866      	ldr	r6, [r4, #4]
70005bae:	033f      	lsls	r7, r7, #12
70005bb0:	e00e      	b.n	0x70005bd0
70005bb2:	086d      	lsrs	r5, r5, #1
70005bb4:	42bd      	cmp	r5, r7
70005bb6:	d20b      	bcs.n	0x70005bd0
70005bb8:	2200      	movs	r2, #0
70005bba:	9201      	str	r2, [sp, #4]
70005bbc:	9202      	str	r2, [sp, #8]
70005bbe:	9203      	str	r2, [sp, #12]
70005bc0:	9200      	str	r2, [sp, #0]
70005bc2:	4a46      	ldr	r2, [pc, #280]	@ (0x70005cdc)
70005bc4:	2300      	movs	r3, #0
70005bc6:	3280      	adds	r2, #128	@ 0x80
70005bc8:	a132      	add	r1, pc, #200	@ (adr r1, 0x70005c94)
70005bca:	a06b      	add	r0, pc, #428	@ (adr r0, 0x70005d78)
70005bcc:	f7ff feec 	bl	0x700059a8
70005bd0:	42ae      	cmp	r6, r5
70005bd2:	d3ee      	bcc.n	0x70005bb2
70005bd4:	6821      	ldr	r1, [r4, #0]
70005bd6:	7aa2      	ldrb	r2, [r4, #10]
70005bd8:	7ae0      	ldrb	r0, [r4, #11]
70005bda:	0b0d      	lsrs	r5, r1, #12
70005bdc:	032d      	lsls	r5, r5, #12
70005bde:	4315      	orrs	r5, r2
70005be0:	2800      	cmp	r0, #0
70005be2:	d002      	beq.n	0x70005bea
70005be4:	20ff      	movs	r0, #255	@ 0xff
70005be6:	3001      	adds	r0, #1
70005be8:	4305      	orrs	r5, r0
70005bea:	f7ff e962 	blx	0x70004eb0
70005bee:	8921      	ldrh	r1, [r4, #8]
70005bf0:	4a4e      	ldr	r2, [pc, #312]	@ (0x70005d2c)
70005bf2:	0089      	lsls	r1, r1, #2
70005bf4:	1889      	adds	r1, r1, r2
70005bf6:	600d      	str	r5, [r1, #0]
70005bf8:	6862      	ldr	r2, [r4, #4]
70005bfa:	6821      	ldr	r1, [r4, #0]
70005bfc:	4b4b      	ldr	r3, [pc, #300]	@ (0x70005d2c)
70005bfe:	1889      	adds	r1, r1, r2
70005c00:	8922      	ldrh	r2, [r4, #8]
70005c02:	3340      	adds	r3, #64	@ 0x40
70005c04:	0092      	lsls	r2, r2, #2
70005c06:	18d2      	adds	r2, r2, r3
70005c08:	6011      	str	r1, [r2, #0]
70005c0a:	4920      	ldr	r1, [pc, #128]	@ (0x70005c8c)
70005c0c:	6acb      	ldr	r3, [r1, #44]	@ 0x2c
70005c0e:	8924      	ldrh	r4, [r4, #8]
70005c10:	2201      	movs	r2, #1
70005c12:	40a2      	lsls	r2, r4
70005c14:	4313      	orrs	r3, r2
70005c16:	62cb      	str	r3, [r1, #44]	@ 0x2c
70005c18:	880a      	ldrh	r2, [r1, #0]
70005c1a:	2302      	movs	r3, #2
70005c1c:	431a      	orrs	r2, r3
70005c1e:	800a      	strh	r2, [r1, #0]
70005c20:	f7ff e942 	blx	0x70004ea8
70005c24:	e787      	b.n	0x70005b36
70005c26:	4919      	ldr	r1, [pc, #100]	@ (0x70005c8c)
70005c28:	b510      	push	{r4, lr}
70005c2a:	8808      	ldrh	r0, [r1, #0]
70005c2c:	2202      	movs	r2, #2
70005c2e:	4390      	bics	r0, r2
70005c30:	8008      	strh	r0, [r1, #0]
70005c32:	483f      	ldr	r0, [pc, #252]	@ (0x70005d30)
70005c34:	4b3d      	ldr	r3, [pc, #244]	@ (0x70005d2c)
70005c36:	8841      	ldrh	r1, [r0, #2]
70005c38:	2000      	movs	r0, #0
70005c3a:	22c0      	movs	r2, #192	@ 0xc0
70005c3c:	07cc      	lsls	r4, r1, #31
70005c3e:	d002      	beq.n	0x70005c46
70005c40:	0084      	lsls	r4, r0, #2
70005c42:	18e4      	adds	r4, r4, r3
70005c44:	6022      	str	r2, [r4, #0]
70005c46:	0849      	lsrs	r1, r1, #1
70005c48:	1c40      	adds	r0, r0, #1
70005c4a:	2810      	cmp	r0, #16
70005c4c:	d3f6      	bcc.n	0x70005c3c
70005c4e:	bd10      	pop	{r4, pc}
70005c50:	490e      	ldr	r1, [pc, #56]	@ (0x70005c8c)
70005c52:	3108      	adds	r1, #8
70005c54:	680a      	ldr	r2, [r1, #0]
70005c56:	684b      	ldr	r3, [r1, #4]
70005c58:	490c      	ldr	r1, [pc, #48]	@ (0x70005c8c)
70005c5a:	6043      	str	r3, [r0, #4]
70005c5c:	3110      	adds	r1, #16
70005c5e:	6002      	str	r2, [r0, #0]
70005c60:	680a      	ldr	r2, [r1, #0]
70005c62:	684b      	ldr	r3, [r1, #4]
70005c64:	4909      	ldr	r1, [pc, #36]	@ (0x70005c8c)
70005c66:	60c3      	str	r3, [r0, #12]
70005c68:	3118      	adds	r1, #24
70005c6a:	6082      	str	r2, [r0, #8]
70005c6c:	680a      	ldr	r2, [r1, #0]
70005c6e:	684b      	ldr	r3, [r1, #4]
70005c70:	4906      	ldr	r1, [pc, #24]	@ (0x70005c8c)
70005c72:	6143      	str	r3, [r0, #20]
70005c74:	3120      	adds	r1, #32
70005c76:	6102      	str	r2, [r0, #16]
70005c78:	680a      	ldr	r2, [r1, #0]
70005c7a:	6849      	ldr	r1, [r1, #4]
70005c7c:	6182      	str	r2, [r0, #24]
70005c7e:	61c1      	str	r1, [r0, #28]
70005c80:	4770      	bx	lr
70005c82:	4902      	ldr	r1, [pc, #8]	@ (0x70005c8c)
70005c84:	2003      	movs	r0, #3
70005c86:	6048      	str	r0, [r1, #4]
70005c88:	e7cd      	b.n	0x70005c26
70005c8a:	0000      	movs	r0, r0
70005c8c:	0000      	movs	r0, r0
70005c8e:	a053      	add	r0, pc, #332	@ (adr r0, 0x70005ddc)
70005c90:	808d      	strh	r5, [r1, #4]
70005c92:	0000      	movs	r0, r0
70005c94:	6168      	str	r0, [r5, #20]
70005c96:	5c6c      	ldrb	r4, [r5, r1]
70005c98:	7973      	ldrb	r3, [r6, #5]
70005c9a:	7473      	strb	r3, [r6, #17]
70005c9c:	6d65      	ldr	r5, [r4, #84]	@ 0x54
70005c9e:	635c      	str	r4, [r3, #52]	@ 0x34
70005ca0:	6361      	str	r1, [r4, #52]	@ 0x34
70005ca2:	6568      	str	r0, [r5, #84]	@ 0x54
70005ca4:	735c      	strb	r4, [r3, #13]
70005ca6:	6372      	str	r2, [r6, #52]	@ 0x34
70005ca8:	635c      	str	r4, [r3, #52]	@ 0x34
70005caa:	6361      	str	r1, [r4, #52]	@ 0x34
70005cac:	6568      	str	r0, [r5, #84]	@ 0x54
70005cae:	632e      	str	r6, [r5, #48]	@ 0x30
70005cb0:	0000      	movs	r0, r0
70005cb2:	0000      	movs	r0, r0
70005cb4:	6163      	str	r3, [r4, #20]
70005cb6:	6863      	ldr	r3, [r4, #4]
70005cb8:	4d65      	ldr	r5, [pc, #404]	@ (0x70005e50)
70005cba:	6e65      	ldr	r5, [r4, #100]	@ 0x64
70005cbc:	2d75      	cmp	r5, #117	@ 0x75
70005cbe:	633e      	str	r6, [r7, #48]	@ 0x30
70005cc0:	635f      	str	r7, [r3, #52]	@ 0x34
70005cc2:	6168      	str	r0, [r5, #20]
70005cc4:	6e6e      	ldr	r6, [r5, #100]	@ 0x64
70005cc6:	6c65      	ldr	r5, [r4, #68]	@ 0x44
70005cc8:	433c      	orrs	r4, r7
70005cca:	4341      	muls	r1, r0
70005ccc:	4548      	cmp	r0, r9
70005cce:	435f      	muls	r7, r3
70005cd0:	4148      	adcs	r0, r1
70005cd2:	4e4e      	ldr	r6, [pc, #312]	@ (0x70005e0c)
70005cd4:	4c45      	ldr	r4, [pc, #276]	@ (0x70005dec)
70005cd6:	4e5f      	ldr	r6, [pc, #380]	@ (0x70005e54)
70005cd8:	4d55      	ldr	r5, [pc, #340]	@ (0x70005e30)
70005cda:	0000      	movs	r0, r0
70005cdc:	07c9      	lsls	r1, r1, #31
70005cde:	0000      	movs	r0, r0
70005ce0:	6163      	str	r3, [r4, #20]
70005ce2:	6863      	ldr	r3, [r4, #4]
70005ce4:	4d65      	ldr	r5, [pc, #404]	@ (0x70005e7c)
70005ce6:	6e65      	ldr	r5, [r4, #100]	@ 0x64
70005ce8:	2d75      	cmp	r5, #117	@ 0x75
70005cea:	633e      	str	r6, [r7, #48]	@ 0x30
70005cec:	725f      	strb	r7, [r3, #9]
70005cee:	6e61      	ldr	r1, [r4, #100]	@ 0x64
70005cf0:	6567      	str	r7, [r4, #84]	@ 0x54
70005cf2:	3d3c      	subs	r5, #60	@ 0x3c
70005cf4:	414d      	adcs	r5, r1
70005cf6:	5f58      	ldrsh	r0, [r3, r5]
70005cf8:	4143      	adcs	r3, r0
70005cfa:	4843      	ldr	r0, [pc, #268]	@ (0x70005e08)
70005cfc:	5f45      	ldrsh	r5, [r0, r5]
70005cfe:	4843      	ldr	r0, [pc, #268]	@ (0x70005e0c)
70005d00:	4e41      	ldr	r6, [pc, #260]	@ (0x70005e08)
70005d02:	454e      	cmp	r6, r9
70005d04:	5f4c      	ldrsh	r4, [r1, r5]
70005d06:	454c      	cmp	r4, r9
70005d08:	004e      	lsls	r6, r1, #1
70005d0a:	0000      	movs	r0, r0
70005d0c:	6973      	ldr	r3, [r6, #20]
70005d0e:	657a      	str	r2, [r7, #84]	@ 0x54
70005d10:	3e20      	subs	r6, #32
70005d12:	203d      	movs	r0, #61	@ 0x3d
70005d14:	494d      	ldr	r1, [pc, #308]	@ (0x70005e4c)
70005d16:	5f4e      	ldrsh	r6, [r1, r5]
70005d18:	4143      	adcs	r3, r0
70005d1a:	4843      	ldr	r0, [pc, #268]	@ (0x70005e28)
70005d1c:	5f45      	ldrsh	r5, [r0, r5]
70005d1e:	4843      	ldr	r0, [pc, #268]	@ (0x70005e2c)
70005d20:	4e41      	ldr	r6, [pc, #260]	@ (0x70005e28)
70005d22:	454e      	cmp	r6, r9
70005d24:	5f4c      	ldrsh	r4, [r1, r5]
70005d26:	454c      	cmp	r4, r9
70005d28:	004e      	lsls	r6, r1, #1
70005d2a:	0000      	movs	r0, r0
70005d2c:	0000      	movs	r0, r0
70005d2e:	a054      	add	r0, pc, #336	@ (adr r0, 0x70005e80)
70005d30:	2ac8      	cmp	r2, #200	@ 0xc8
70005d32:	0001      	movs	r1, r0
70005d34:	656d      	str	r5, [r5, #84]	@ 0x54
70005d36:	756e      	strb	r6, [r5, #21]
70005d38:	3e2d      	subs	r6, #45	@ 0x2d
70005d3a:	5f6d      	ldrsh	r5, [r5, r5]
70005d3c:	6863      	ldr	r3, [r4, #4]
70005d3e:	6e61      	ldr	r1, [r4, #100]	@ 0x64
70005d40:	656e      	str	r6, [r5, #84]	@ 0x54
70005d42:	3c6c      	subs	r4, #108	@ 0x6c
70005d44:	504d      	str	r5, [r1, r1]
70005d46:	5f55      	ldrsh	r5, [r2, r5]
70005d48:	4843      	ldr	r0, [pc, #268]	@ (0x70005e58)
70005d4a:	4e41      	ldr	r6, [pc, #260]	@ (0x70005e50)
70005d4c:	454e      	cmp	r6, r9
70005d4e:	5f4c      	ldrsh	r4, [r1, r5]
70005d50:	554e      	strb	r6, [r1, r5]
70005d52:	004d      	lsls	r5, r1, #1
70005d54:	656d      	str	r5, [r5, #84]	@ 0x54
70005d56:	756e      	strb	r6, [r5, #21]
70005d58:	3e2d      	subs	r6, #45	@ 0x2d
70005d5a:	5f6d      	ldrsh	r5, [r5, r5]
70005d5c:	6172      	str	r2, [r6, #20]
70005d5e:	676e      	str	r6, [r5, #116]	@ 0x74
70005d60:	3c65      	subs	r4, #101	@ 0x65
70005d62:	4d3d      	ldr	r5, [pc, #244]	@ (0x70005e58)
70005d64:	5841      	ldr	r1, [r0, r1]
70005d66:	4d5f      	ldr	r5, [pc, #380]	@ (0x70005ee4)
70005d68:	5550      	strb	r0, [r2, r5]
70005d6a:	435f      	muls	r7, r3
70005d6c:	4148      	adcs	r0, r1
70005d6e:	4e4e      	ldr	r6, [pc, #312]	@ (0x70005ea8)
70005d70:	4c45      	ldr	r4, [pc, #276]	@ (0x70005e88)
70005d72:	4c5f      	ldr	r4, [pc, #380]	@ (0x70005ef0)
70005d74:	4e45      	ldr	r6, [pc, #276]	@ (0x70005e8c)
70005d76:	0000      	movs	r0, r0
70005d78:	6973      	ldr	r3, [r6, #20]
70005d7a:	657a      	str	r2, [r7, #84]	@ 0x54
70005d7c:	3e20      	subs	r6, #32
70005d7e:	203d      	movs	r0, #61	@ 0x3d
70005d80:	494d      	ldr	r1, [pc, #308]	@ (0x70005eb8)
70005d82:	5f4e      	ldrsh	r6, [r1, r5]
70005d84:	504d      	str	r5, [r1, r1]
70005d86:	5f55      	ldrsh	r5, [r2, r5]
70005d88:	4843      	ldr	r0, [pc, #268]	@ (0x70005e98)
70005d8a:	4e41      	ldr	r6, [pc, #260]	@ (0x70005e90)
70005d8c:	454e      	cmp	r6, r9
70005d8e:	5f4c      	ldrsh	r4, [r1, r5]
70005d90:	454c      	cmp	r4, r9
70005d92:	004e      	lsls	r6, r1, #1
70005d94:	2000      	movs	r0, #0
70005d96:	4770      	bx	lr
70005d98:	b51f      	push	{r0, r1, r2, r3, r4, lr}
70005d9a:	0003      	movs	r3, r0
70005d9c:	2400      	movs	r4, #0
70005d9e:	0008      	movs	r0, r1
70005da0:	43e4      	mvns	r4, r4
70005da2:	29ff      	cmp	r1, #255	@ 0xff
70005da4:	d909      	bls.n	0x70005dba
70005da6:	2200      	movs	r2, #0
70005da8:	9201      	str	r2, [sp, #4]
70005daa:	9202      	str	r2, [sp, #8]
70005dac:	9203      	str	r2, [sp, #12]
70005dae:	9200      	str	r2, [sp, #0]
70005db0:	228a      	movs	r2, #138	@ 0x8a
70005db2:	2300      	movs	r3, #0
70005db4:	a10e      	add	r1, pc, #56	@ (adr r1, 0x70005df0)
70005db6:	a016      	add	r0, pc, #88	@ (adr r0, 0x70005e10)
70005db8:	e016      	b.n	0x70005de8
70005dba:	4916      	ldr	r1, [pc, #88]	@ (0x70005e14)
70005dbc:	428b      	cmp	r3, r1
70005dbe:	d101      	bne.n	0x70005dc4
70005dc0:	07c9      	lsls	r1, r1, #31
70005dc2:	e005      	b.n	0x70005dd0
70005dc4:	4913      	ldr	r1, [pc, #76]	@ (0x70005e14)
70005dc6:	1c89      	adds	r1, r1, #2
70005dc8:	428b      	cmp	r3, r1
70005dca:	d104      	bne.n	0x70005dd6
70005dcc:	2101      	movs	r1, #1
70005dce:	0749      	lsls	r1, r1, #29
70005dd0:	4308      	orrs	r0, r1
70005dd2:	b004      	add	sp, #16
70005dd4:	bd10      	pop	{r4, pc}
70005dd6:	2200      	movs	r2, #0
70005dd8:	9202      	str	r2, [sp, #8]
70005dda:	9300      	str	r3, [sp, #0]
70005ddc:	9203      	str	r2, [sp, #12]
70005dde:	9001      	str	r0, [sp, #4]
70005de0:	2297      	movs	r2, #151	@ 0x97
70005de2:	2301      	movs	r3, #1
70005de4:	a102      	add	r1, pc, #8	@ (adr r1, 0x70005df0)
70005de6:	a00a      	add	r0, pc, #40	@ (adr r0, 0x70005e10)
70005de8:	f7ff fdde 	bl	0x700059a8
70005dec:	0020      	movs	r0, r4
70005dee:	e7f0      	b.n	0x70005dd2
70005df0:	6168      	str	r0, [r5, #20]
70005df2:	5c6c      	ldrb	r4, [r5, r1]
70005df4:	6570      	str	r0, [r6, #84]	@ 0x54
70005df6:	6972      	ldr	r2, [r6, #20]
70005df8:	6870      	ldr	r0, [r6, #4]
70005dfa:	7265      	strb	r5, [r4, #9]
70005dfc:	6c61      	ldr	r1, [r4, #68]	@ 0x44
70005dfe:	735c      	strb	r4, [r3, #13]
70005e00:	6372      	str	r2, [r6, #52]	@ 0x34
70005e02:	645c      	str	r4, [r3, #68]	@ 0x44
70005e04:	6c63      	ldr	r3, [r4, #68]	@ 0x44
70005e06:	675f      	str	r7, [r3, #116]	@ 0x74
70005e08:	6970      	ldr	r0, [r6, #20]
70005e0a:	2e6f      	cmp	r6, #111	@ 0x6f
70005e0c:	0063      	lsls	r3, r4, #1
70005e0e:	0000      	movs	r0, r0
70005e10:	0030      	movs	r0, r6
70005e12:	0000      	movs	r0, r0
70005e14:	0401      	lsls	r1, r0, #16
70005e16:	0000      	movs	r0, r0
70005e18:	b5f8      	push	{r3, r4, r5, r6, r7, lr}
70005e1a:	0004      	movs	r4, r0
70005e1c:	4810      	ldr	r0, [pc, #64]	@ (0x70005e60)
70005e1e:	000d      	movs	r5, r1
70005e20:	0016      	movs	r6, r2
70005e22:	f7ff ec74 	blx	0x7000570c
70005e26:	0007      	movs	r7, r0
70005e28:	f001 f8c2 	bl	0x70006fb0
70005e2c:	2800      	cmp	r0, #0
70005e2e:	d002      	beq.n	0x70005e36
70005e30:	f7fe fc1c 	bl	0x7000466c
70005e34:	4384      	bics	r4, r0
70005e36:	0021      	movs	r1, r4
70005e38:	0038      	movs	r0, r7
70005e3a:	f000 fc3e 	bl	0x700066ba
70005e3e:	1c41      	adds	r1, r0, #1
70005e40:	6028      	str	r0, [r5, #0]
70005e42:	d101      	bne.n	0x70005e48
70005e44:	1e48      	subs	r0, r1, #1
70005e46:	bdf8      	pop	{r3, r4, r5, r6, r7, pc}
70005e48:	0001      	movs	r1, r0
70005e4a:	0038      	movs	r0, r7
70005e4c:	f000 fc26 	bl	0x7000669c
70005e50:	0001      	movs	r1, r0
70005e52:	0020      	movs	r0, r4
70005e54:	f001 ec14 	blx	0x70007680
70005e58:	2000      	movs	r0, #0
70005e5a:	6031      	str	r1, [r6, #0]
70005e5c:	bdf8      	pop	{r3, r4, r5, r6, r7, pc}
70005e5e:	0000      	movs	r0, r0
70005e60:	2d6c      	cmp	r5, #108	@ 0x6c
70005e62:	0001      	movs	r1, r0
70005e64:	b5f8      	push	{r3, r4, r5, r6, r7, lr}
70005e66:	0006      	movs	r6, r0
70005e68:	4807      	ldr	r0, [pc, #28]	@ (0x70005e88)
70005e6a:	000c      	movs	r4, r1
70005e6c:	0015      	movs	r5, r2
70005e6e:	f7ff ec4e 	blx	0x7000570c
70005e72:	0007      	movs	r7, r0
70005e74:	0031      	movs	r1, r6
70005e76:	f7ff e814 	blx	0x70004ea0
70005e7a:	6879      	ldr	r1, [r7, #4]
70005e7c:	1a40      	subs	r0, r0, r1
70005e7e:	1900      	adds	r0, r0, r4
70005e80:	6028      	str	r0, [r5, #0]
70005e82:	2000      	movs	r0, #0
70005e84:	bdf8      	pop	{r3, r4, r5, r6, r7, pc}
70005e86:	0000      	movs	r0, r0
70005e88:	2d6c      	cmp	r5, #108	@ 0x6c
70005e8a:	0001      	movs	r1, r0
70005e8c:	b510      	push	{r4, lr}
70005e8e:	0004      	movs	r4, r0
70005e90:	4803      	ldr	r0, [pc, #12]	@ (0x70005ea0)
70005e92:	f7ff ec3c 	blx	0x7000570c
70005e96:	0021      	movs	r1, r4
70005e98:	f000 fc00 	bl	0x7000669c
70005e9c:	bd10      	pop	{r4, pc}
70005e9e:	0000      	movs	r0, r0
70005ea0:	2d6c      	cmp	r5, #108	@ 0x6c
70005ea2:	0001      	movs	r1, r0
70005ea4:	b51f      	push	{r0, r1, r2, r3, r4, lr}
70005ea6:	300f      	adds	r0, #15
70005ea8:	d00d      	beq.n	0x70005ec6
70005eaa:	2801      	cmp	r0, #1
70005eac:	d008      	beq.n	0x70005ec0
70005eae:	2802      	cmp	r0, #2
70005eb0:	d004      	beq.n	0x70005ebc
70005eb2:	280f      	cmp	r0, #15
70005eb4:	d10a      	bne.n	0x70005ecc
70005eb6:	2000      	movs	r0, #0
70005eb8:	b004      	add	sp, #16
70005eba:	bd10      	pop	{r4, pc}
70005ebc:	4809      	ldr	r0, [pc, #36]	@ (0x70005ee4)
70005ebe:	e7fb      	b.n	0x70005eb8
70005ec0:	4808      	ldr	r0, [pc, #32]	@ (0x70005ee4)
70005ec2:	1c40      	adds	r0, r0, #1
70005ec4:	e7f8      	b.n	0x70005eb8
70005ec6:	4807      	ldr	r0, [pc, #28]	@ (0x70005ee4)
70005ec8:	1d40      	adds	r0, r0, #5
70005eca:	e7f5      	b.n	0x70005eb8
70005ecc:	2200      	movs	r2, #0
70005ece:	9201      	str	r2, [sp, #4]
70005ed0:	9202      	str	r2, [sp, #8]
70005ed2:	9203      	str	r2, [sp, #12]
70005ed4:	9200      	str	r2, [sp, #0]
70005ed6:	4a04      	ldr	r2, [pc, #16]	@ (0x70005ee8)
70005ed8:	2300      	movs	r3, #0
70005eda:	a104      	add	r1, pc, #16	@ (adr r1, 0x70005eec)
70005edc:	a00c      	add	r0, pc, #48	@ (adr r0, 0x70005f10)
70005ede:	f7ff fd63 	bl	0x700059a8
70005ee2:	e7e8      	b.n	0x70005eb6
70005ee4:	d8f0      	bhi.n	0x70005ec8
70005ee6:	ffff 035e 	vrsra.u32	q8, q7, #1
70005eea:	0000      	movs	r0, r0
70005eec:	6168      	str	r0, [r5, #20]
70005eee:	5c6c      	ldrb	r4, [r5, r1]
70005ef0:	7973      	ldrb	r3, [r6, #5]
70005ef2:	7473      	strb	r3, [r6, #17]
70005ef4:	6d65      	ldr	r5, [r4, #84]	@ 0x54
70005ef6:	625c      	str	r4, [r3, #36]	@ 0x24
70005ef8:	6f6f      	ldr	r7, [r5, #116]	@ 0x74
70005efa:	6c74      	ldr	r4, [r6, #68]	@ 0x44
70005efc:	616f      	str	r7, [r5, #20]
70005efe:	6564      	str	r4, [r4, #84]	@ 0x54
70005f00:	5c72      	ldrb	r2, [r6, r1]
70005f02:	7273      	strb	r3, [r6, #9]
70005f04:	5c63      	ldrb	r3, [r4, r1]
70005f06:	6c62      	ldr	r2, [r4, #68]	@ 0x44
70005f08:	465f      	mov	r7, fp
70005f0a:	4c54      	ldr	r4, [pc, #336]	@ (0x7000605c)
70005f0c:	632e      	str	r6, [r5, #48]	@ 0x30
70005f0e:	0000      	movs	r0, r0
70005f10:	0030      	movs	r0, r6
70005f12:	0000      	movs	r0, r0
70005f14:	b5f7      	push	{r0, r1, r2, r4, r5, r6, r7, lr}
70005f16:	4c0d      	ldr	r4, [pc, #52]	@ (0x70005f4c)
70005f18:	000e      	movs	r6, r1
70005f1a:	0020      	movs	r0, r4
70005f1c:	0015      	movs	r5, r2
70005f1e:	3008      	adds	r0, #8
70005f20:	f7ff ebf4 	blx	0x7000570c
70005f24:	9900      	ldr	r1, [sp, #0]
70005f26:	0007      	movs	r7, r0
70005f28:	f7fe efba 	blx	0x70004ea0
70005f2c:	6879      	ldr	r1, [r7, #4]
70005f2e:	2301      	movs	r3, #1
70005f30:	1a40      	subs	r0, r0, r1
70005f32:	0271      	lsls	r1, r6, #9
70005f34:	1841      	adds	r1, r0, r1
70005f36:	002a      	movs	r2, r5
70005f38:	0020      	movs	r0, r4
70005f3a:	025b      	lsls	r3, r3, #9
70005f3c:	f000 fdcb 	bl	0x70006ad6
70005f40:	2800      	cmp	r0, #0
70005f42:	d001      	beq.n	0x70005f48
70005f44:	200c      	movs	r0, #12
70005f46:	43c0      	mvns	r0, r0
70005f48:	bdfe      	pop	{r1, r2, r3, r4, r5, r6, r7, pc}
70005f4a:	0000      	movs	r0, r0
70005f4c:	2d64      	cmp	r5, #100	@ 0x64
70005f4e:	0001      	movs	r1, r0
70005f50:	b510      	push	{r4, lr}
70005f52:	f000 fbfd 	bl	0x70006750
70005f56:	4802      	ldr	r0, [pc, #8]	@ (0x70005f60)
70005f58:	f000 ff82 	bl	0x70006e60
70005f5c:	2000      	movs	r0, #0
70005f5e:	bd10      	pop	{r4, pc}
70005f60:	2d64      	cmp	r5, #100	@ 0x64
70005f62:	0001      	movs	r1, r0
70005f64:	b5f0      	push	{r4, r5, r6, r7, lr}
70005f66:	490f      	ldr	r1, [pc, #60]	@ (0x70005fa4)
70005f68:	4e0f      	ldr	r6, [pc, #60]	@ (0x70005fa8)
70005f6a:	880b      	ldrh	r3, [r1, #0]
70005f6c:	2100      	movs	r1, #0
70005f6e:	0004      	movs	r4, r0
70005f70:	4d0b      	ldr	r5, [pc, #44]	@ (0x70005fa0)
70005f72:	4034      	ands	r4, r6
70005f74:	e00b      	b.n	0x70005f8e
70005f76:	010a      	lsls	r2, r1, #4
70005f78:	58aa      	ldr	r2, [r5, r2]
70005f7a:	43d7      	mvns	r7, r2
70005f7c:	063f      	lsls	r7, r7, #24
70005f7e:	d103      	bne.n	0x70005f88
70005f80:	4032      	ands	r2, r6
70005f82:	42a2      	cmp	r2, r4
70005f84:	d005      	beq.n	0x70005f92
70005f86:	e001      	b.n	0x70005f8c
70005f88:	4282      	cmp	r2, r0
70005f8a:	d002      	beq.n	0x70005f92
70005f8c:	1c49      	adds	r1, r1, #1
70005f8e:	4299      	cmp	r1, r3
70005f90:	d3f1      	bcc.n	0x70005f76
70005f92:	4299      	cmp	r1, r3
70005f94:	d301      	bcc.n	0x70005f9a
70005f96:	4805      	ldr	r0, [pc, #20]	@ (0x70005fac)
70005f98:	bdf0      	pop	{r4, r5, r6, r7, pc}
70005f9a:	0408      	lsls	r0, r1, #16
70005f9c:	0c00      	lsrs	r0, r0, #16
70005f9e:	bdf0      	pop	{r4, r5, r6, r7, pc}
70005fa0:	89a8      	ldrh	r0, [r5, #12]
70005fa2:	1000      	asrs	r0, r0, #32
70005fa4:	2edc      	cmp	r6, #220	@ 0xdc
70005fa6:	0001      	movs	r1, r0
70005fa8:	ff00 00ff 	vqadd.u8	q0, q8, <illegal reg q15.5>
70005fac:	ffff 0000 	vaddl.u<illegal width 64>	q8, d15, d0
70005fb0:	0082      	lsls	r2, r0, #2
70005fb2:	200c      	movs	r0, #12
70005fb4:	4348      	muls	r0, r1
70005fb6:	1810      	adds	r0, r2, r0
70005fb8:	2902      	cmp	r1, #2
70005fba:	d201      	bcs.n	0x70005fc0
70005fbc:	4905      	ldr	r1, [pc, #20]	@ (0x70005fd4)
70005fbe:	e006      	b.n	0x70005fce
70005fc0:	2904      	cmp	r1, #4
70005fc2:	d303      	bcc.n	0x70005fcc
70005fc4:	4904      	ldr	r1, [pc, #16]	@ (0x70005fd8)
70005fc6:	1840      	adds	r0, r0, r1
70005fc8:	8a00      	ldrh	r0, [r0, #16]
70005fca:	4770      	bx	lr
70005fcc:	4903      	ldr	r1, [pc, #12]	@ (0x70005fdc)
70005fce:	1840      	adds	r0, r0, r1
70005fd0:	8a80      	ldrh	r0, [r0, #20]
70005fd2:	4770      	bx	lr
70005fd4:	ffe0 a00d 	vaddl.u32	q13, d0, d13
70005fd8:	ffc0 a027 	vaddl.u8	q13, d0, d23
70005fdc:	ffe0 a073 	vshr.u32	q13, <illegal reg q9.5>, #32
70005fe0:	b5f0      	push	{r4, r5, r6, r7, lr}
70005fe2:	4d0f      	ldr	r5, [pc, #60]	@ (0x70006020)
70005fe4:	8b2c      	ldrh	r4, [r5, #24]
70005fe6:	4e0f      	ldr	r6, [pc, #60]	@ (0x70006024)
70005fe8:	2708      	movs	r7, #8
70005fea:	4334      	orrs	r4, r6
70005fec:	43bc      	bics	r4, r7
70005fee:	832c      	strh	r4, [r5, #24]
70005ff0:	f7ff fcb2 	bl	0x70005958
70005ff4:	4b0a      	ldr	r3, [pc, #40]	@ (0x70006020)
70005ff6:	3b60      	subs	r3, #96	@ 0x60
70005ff8:	8818      	ldrh	r0, [r3, #0]
70005ffa:	0640      	lsls	r0, r0, #25
70005ffc:	d4fc      	bmi.n	0x70005ff8
70005ffe:	433c      	orrs	r4, r7
70006000:	832c      	strh	r4, [r5, #24]
70006002:	f7ff fca9 	bl	0x70005958
70006006:	8818      	ldrh	r0, [r3, #0]
70006008:	0640      	lsls	r0, r0, #25
7000600a:	d4fc      	bmi.n	0x70006006
7000600c:	4334      	orrs	r4, r6
7000600e:	43bc      	bics	r4, r7
70006010:	832c      	strh	r4, [r5, #24]
70006012:	f7ff fca1 	bl	0x70005958
70006016:	8818      	ldrh	r0, [r3, #0]
70006018:	0640      	lsls	r0, r0, #25
7000601a:	d4fc      	bmi.n	0x70006016
7000601c:	8898      	ldrh	r0, [r3, #4]
7000601e:	bdf0      	pop	{r4, r5, r6, r7, pc}
70006020:	0060      	lsls	r0, r4, #1
70006022:	a071      	add	r0, pc, #452	@ (adr r0, 0x700061e8)
70006024:	1016      	asrs	r6, r2, #32
70006026:	0000      	movs	r0, r0
70006028:	490b      	ldr	r1, [pc, #44]	@ (0x70006058)
7000602a:	890a      	ldrh	r2, [r1, #8]
7000602c:	490a      	ldr	r1, [pc, #40]	@ (0x70006058)
7000602e:	3120      	adds	r1, #32
70006030:	8a0b      	ldrh	r3, [r1, #16]
70006032:	7003      	strb	r3, [r0, #0]
70006034:	8a8b      	ldrh	r3, [r1, #20]
70006036:	7043      	strb	r3, [r0, #1]
70006038:	8b0b      	ldrh	r3, [r1, #24]
7000603a:	7083      	strb	r3, [r0, #2]
7000603c:	8b89      	ldrh	r1, [r1, #28]
7000603e:	70c1      	strb	r1, [r0, #3]
70006040:	4905      	ldr	r1, [pc, #20]	@ (0x70006058)
70006042:	3140      	adds	r1, #64	@ 0x40
70006044:	888b      	ldrh	r3, [r1, #4]
70006046:	7103      	strb	r3, [r0, #4]
70006048:	880b      	ldrh	r3, [r1, #0]
7000604a:	7143      	strb	r3, [r0, #5]
7000604c:	8909      	ldrh	r1, [r1, #8]
7000604e:	7181      	strb	r1, [r0, #6]
70006050:	07d0      	lsls	r0, r2, #31
70006052:	0fc0      	lsrs	r0, r0, #31
70006054:	4770      	bx	lr
70006056:	0000      	movs	r0, r0
70006058:	0000      	movs	r0, r0
7000605a:	a071      	add	r0, pc, #452	@ (adr r0, 0x70006220)
7000605c:	4a12      	ldr	r2, [pc, #72]	@ (0x700060a8)
7000605e:	b510      	push	{r4, lr}
70006060:	8a91      	ldrh	r1, [r2, #20]
70006062:	7001      	strb	r1, [r0, #0]
70006064:	8b11      	ldrh	r1, [r2, #24]
70006066:	7041      	strb	r1, [r0, #1]
70006068:	8b93      	ldrh	r3, [r2, #28]
7000606a:	490f      	ldr	r1, [pc, #60]	@ (0x700060a8)
7000606c:	3120      	adds	r1, #32
7000606e:	7083      	strb	r3, [r0, #2]
70006070:	880b      	ldrh	r3, [r1, #0]
70006072:	70c3      	strb	r3, [r0, #3]
70006074:	890b      	ldrh	r3, [r1, #8]
70006076:	7103      	strb	r3, [r0, #4]
70006078:	888b      	ldrh	r3, [r1, #4]
7000607a:	7143      	strb	r3, [r0, #5]
7000607c:	898b      	ldrh	r3, [r1, #12]
7000607e:	7183      	strb	r3, [r0, #6]
70006080:	8a93      	ldrh	r3, [r2, #20]
70006082:	7804      	ldrb	r4, [r0, #0]
70006084:	42a3      	cmp	r3, r4
70006086:	d20d      	bcs.n	0x700060a4
70006088:	8a93      	ldrh	r3, [r2, #20]
7000608a:	7003      	strb	r3, [r0, #0]
7000608c:	8b13      	ldrh	r3, [r2, #24]
7000608e:	7043      	strb	r3, [r0, #1]
70006090:	8b92      	ldrh	r2, [r2, #28]
70006092:	7082      	strb	r2, [r0, #2]
70006094:	880a      	ldrh	r2, [r1, #0]
70006096:	70c2      	strb	r2, [r0, #3]
70006098:	890a      	ldrh	r2, [r1, #8]
7000609a:	7102      	strb	r2, [r0, #4]
7000609c:	888a      	ldrh	r2, [r1, #4]
7000609e:	7142      	strb	r2, [r0, #5]
700060a0:	8989      	ldrh	r1, [r1, #12]
700060a2:	7181      	strb	r1, [r0, #6]
700060a4:	bd10      	pop	{r4, pc}
700060a6:	0000      	movs	r0, r0
700060a8:	0000      	movs	r0, r0
700060aa:	a071      	add	r0, pc, #452	@ (adr r0, 0x70006270)
700060ac:	b500      	push	{lr}
700060ae:	f000 f9af 	bl	0x70006410
700060b2:	f000 f927 	bl	0x70006304
700060b6:	bd00      	pop	{pc}
700060b8:	b5f0      	push	{r4, r5, r6, r7, lr}
700060ba:	4f13      	ldr	r7, [pc, #76]	@ (0x70006108)
700060bc:	883d      	ldrh	r5, [r7, #0]
700060be:	4813      	ldr	r0, [pc, #76]	@ (0x7000610c)
700060c0:	4305      	orrs	r5, r0
700060c2:	803d      	strh	r5, [r7, #0]
700060c4:	f7ff fc48 	bl	0x70005958
700060c8:	4e11      	ldr	r6, [pc, #68]	@ (0x70006110)
700060ca:	247d      	movs	r4, #125	@ 0x7d
700060cc:	00e4      	lsls	r4, r4, #3
700060ce:	8838      	ldrh	r0, [r7, #0]
700060d0:	0740      	lsls	r0, r0, #29
700060d2:	d407      	bmi.n	0x700060e4
700060d4:	0033      	movs	r3, r6
700060d6:	1e5b      	subs	r3, r3, #1
700060d8:	d1fd      	bne.n	0x700060d6
700060da:	803d      	strh	r5, [r7, #0]
700060dc:	f7ff fc3c 	bl	0x70005958
700060e0:	1e64      	subs	r4, r4, #1
700060e2:	d1f4      	bne.n	0x700060ce
700060e4:	4808      	ldr	r0, [pc, #32]	@ (0x70006108)
700060e6:	3040      	adds	r0, #64	@ 0x40
700060e8:	8b01      	ldrh	r1, [r0, #24]
700060ea:	220e      	movs	r2, #14
700060ec:	4391      	bics	r1, r2
700060ee:	8301      	strh	r1, [r0, #24]
700060f0:	4905      	ldr	r1, [pc, #20]	@ (0x70006108)
700060f2:	3120      	adds	r1, #32
700060f4:	888a      	ldrh	r2, [r1, #4]
700060f6:	8801      	ldrh	r1, [r0, #0]
700060f8:	0a09      	lsrs	r1, r1, #8
700060fa:	0209      	lsls	r1, r1, #8
700060fc:	4311      	orrs	r1, r2
700060fe:	8001      	strh	r1, [r0, #0]
70006100:	f7ff fc2a 	bl	0x70005958
70006104:	bdf0      	pop	{r4, r5, r6, r7, pc}
70006106:	0000      	movs	r0, r0
70006108:	0000      	movs	r0, r0
7000610a:	a071      	add	r0, pc, #452	@ (adr r0, 0x700062d0)
7000610c:	430c      	orrs	r4, r1
7000610e:	0000      	movs	r0, r0
70006110:	2710      	movs	r7, #16
70006112:	0000      	movs	r0, r0
70006114:	b510      	push	{r4, lr}
70006116:	7802      	ldrb	r2, [r0, #0]
70006118:	490b      	ldr	r1, [pc, #44]	@ (0x70006148)
7000611a:	828a      	strh	r2, [r1, #20]
7000611c:	7842      	ldrb	r2, [r0, #1]
7000611e:	830a      	strh	r2, [r1, #24]
70006120:	7882      	ldrb	r2, [r0, #2]
70006122:	838a      	strh	r2, [r1, #28]
70006124:	78c2      	ldrb	r2, [r0, #3]
70006126:	4908      	ldr	r1, [pc, #32]	@ (0x70006148)
70006128:	3120      	adds	r1, #32
7000612a:	800a      	strh	r2, [r1, #0]
7000612c:	7942      	ldrb	r2, [r0, #5]
7000612e:	808a      	strh	r2, [r1, #4]
70006130:	7902      	ldrb	r2, [r0, #4]
70006132:	810a      	strh	r2, [r1, #8]
70006134:	7982      	ldrb	r2, [r0, #6]
70006136:	818a      	strh	r2, [r1, #12]
70006138:	0001      	movs	r1, r0
7000613a:	4804      	ldr	r0, [pc, #16]	@ (0x7000614c)
7000613c:	2207      	movs	r2, #7
7000613e:	f7fe eca0 	blx	0x70004a80
70006142:	f7ff fc09 	bl	0x70005958
70006146:	bd10      	pop	{r4, pc}
70006148:	0000      	movs	r0, r0
7000614a:	a071      	add	r0, pc, #452	@ (adr r0, 0x70006310)
7000614c:	2fb6      	cmp	r7, #182	@ 0xb6
7000614e:	0001      	movs	r1, r0
70006150:	b5f8      	push	{r3, r4, r5, r6, r7, lr}
70006152:	4e2d      	ldr	r6, [pc, #180]	@ (0x70006208)
70006154:	4c2c      	ldr	r4, [pc, #176]	@ (0x70006208)
70006156:	0003      	movs	r3, r0
70006158:	2500      	movs	r5, #0
7000615a:	3620      	adds	r6, #32
7000615c:	8a20      	ldrh	r0, [r4, #16]
7000615e:	7819      	ldrb	r1, [r3, #0]
70006160:	0980      	lsrs	r0, r0, #6
70006162:	0180      	lsls	r0, r0, #6
70006164:	4308      	orrs	r0, r1
70006166:	8aa1      	ldrh	r1, [r4, #20]
70006168:	098f      	lsrs	r7, r1, #6
7000616a:	7859      	ldrb	r1, [r3, #1]
7000616c:	01bf      	lsls	r7, r7, #6
7000616e:	430f      	orrs	r7, r1
70006170:	8b21      	ldrh	r1, [r4, #24]
70006172:	46bc      	mov	ip, r7
70006174:	094f      	lsrs	r7, r1, #5
70006176:	7899      	ldrb	r1, [r3, #2]
70006178:	017f      	lsls	r7, r7, #5
7000617a:	430f      	orrs	r7, r1
7000617c:	8ba1      	ldrh	r1, [r4, #28]
7000617e:	46be      	mov	lr, r7
70006180:	094f      	lsrs	r7, r1, #5
70006182:	78d9      	ldrb	r1, [r3, #3]
70006184:	017f      	lsls	r7, r7, #5
70006186:	430f      	orrs	r7, r1
70006188:	9700      	str	r7, [sp, #0]
7000618a:	88b1      	ldrh	r1, [r6, #4]
7000618c:	791a      	ldrb	r2, [r3, #4]
7000618e:	0909      	lsrs	r1, r1, #4
70006190:	0109      	lsls	r1, r1, #4
70006192:	4311      	orrs	r1, r2
70006194:	8932      	ldrh	r2, [r6, #8]
70006196:	799f      	ldrb	r7, [r3, #6]
70006198:	8220      	strh	r0, [r4, #16]
7000619a:	09d2      	lsrs	r2, r2, #7
7000619c:	01d2      	lsls	r2, r2, #7
7000619e:	433a      	orrs	r2, r7
700061a0:	4667      	mov	r7, ip
700061a2:	82a7      	strh	r7, [r4, #20]
700061a4:	4677      	mov	r7, lr
700061a6:	8327      	strh	r7, [r4, #24]
700061a8:	9f00      	ldr	r7, [sp, #0]
700061aa:	83a7      	strh	r7, [r4, #28]
700061ac:	80b1      	strh	r1, [r6, #4]
700061ae:	8132      	strh	r2, [r6, #8]
700061b0:	f7ff fbd2 	bl	0x70005958
700061b4:	8a20      	ldrh	r0, [r4, #16]
700061b6:	7819      	ldrb	r1, [r3, #0]
700061b8:	0680      	lsls	r0, r0, #26
700061ba:	0e80      	lsrs	r0, r0, #26
700061bc:	4288      	cmp	r0, r1
700061be:	d11d      	bne.n	0x700061fc
700061c0:	8aa0      	ldrh	r0, [r4, #20]
700061c2:	7859      	ldrb	r1, [r3, #1]
700061c4:	0680      	lsls	r0, r0, #26
700061c6:	0e80      	lsrs	r0, r0, #26
700061c8:	4288      	cmp	r0, r1
700061ca:	d117      	bne.n	0x700061fc
700061cc:	8b20      	ldrh	r0, [r4, #24]
700061ce:	7899      	ldrb	r1, [r3, #2]
700061d0:	06c0      	lsls	r0, r0, #27
700061d2:	0ec0      	lsrs	r0, r0, #27
700061d4:	4288      	cmp	r0, r1
700061d6:	d111      	bne.n	0x700061fc
700061d8:	8ba0      	ldrh	r0, [r4, #28]
700061da:	78d9      	ldrb	r1, [r3, #3]
700061dc:	06c0      	lsls	r0, r0, #27
700061de:	0ec0      	lsrs	r0, r0, #27
700061e0:	4288      	cmp	r0, r1
700061e2:	d10b      	bne.n	0x700061fc
700061e4:	88b0      	ldrh	r0, [r6, #4]
700061e6:	7919      	ldrb	r1, [r3, #4]
700061e8:	0700      	lsls	r0, r0, #28
700061ea:	0f00      	lsrs	r0, r0, #28
700061ec:	4288      	cmp	r0, r1
700061ee:	d105      	bne.n	0x700061fc
700061f0:	8930      	ldrh	r0, [r6, #8]
700061f2:	7999      	ldrb	r1, [r3, #6]
700061f4:	0640      	lsls	r0, r0, #25
700061f6:	0e40      	lsrs	r0, r0, #25
700061f8:	4288      	cmp	r0, r1
700061fa:	d003      	beq.n	0x70006204
700061fc:	4803      	ldr	r0, [pc, #12]	@ (0x7000620c)
700061fe:	1c6d      	adds	r5, r5, #1
70006200:	4285      	cmp	r5, r0
70006202:	d3ab      	bcc.n	0x7000615c
70006204:	bdf8      	pop	{r3, r4, r5, r6, r7, pc}
70006206:	0000      	movs	r0, r0
70006208:	0020      	movs	r0, r4
7000620a:	a071      	add	r0, pc, #452	@ (adr r0, 0x700063d0)
7000620c:	4240      	negs	r0, r0
7000620e:	000f      	movs	r7, r1
70006210:	b57f      	push	{r0, r1, r2, r3, r4, r5, r6, lr}
70006212:	1e80      	subs	r0, r0, #2
70006214:	000d      	movs	r5, r1
70006216:	0003      	movs	r3, r0
70006218:	f7ff ebae 	blx	0x70005978
7000621c:	0405      	lsls	r5, r0, #16
7000621e:	0906      	lsrs	r6, r0, #4
70006220:	0f0c      	lsrs	r4, r1, #28
70006222:	0012      	movs	r2, r2
70006224:	4c11      	ldr	r4, [pc, #68]	@ (0x7000626c)
70006226:	e016      	b.n	0x70006256
70006228:	4c10      	ldr	r4, [pc, #64]	@ (0x7000626c)
7000622a:	1d24      	adds	r4, r4, #4
7000622c:	e013      	b.n	0x70006256
7000622e:	4c0f      	ldr	r4, [pc, #60]	@ (0x7000626c)
70006230:	3408      	adds	r4, #8
70006232:	e010      	b.n	0x70006256
70006234:	4c0d      	ldr	r4, [pc, #52]	@ (0x7000626c)
70006236:	340c      	adds	r4, #12
70006238:	e00d      	b.n	0x70006256
7000623a:	4c0c      	ldr	r4, [pc, #48]	@ (0x7000626c)
7000623c:	3410      	adds	r4, #16
7000623e:	e00a      	b.n	0x70006256
70006240:	2200      	movs	r2, #0
70006242:	9201      	str	r2, [sp, #4]
70006244:	9202      	str	r2, [sp, #8]
70006246:	9203      	str	r2, [sp, #12]
70006248:	9200      	str	r2, [sp, #0]
7000624a:	4a09      	ldr	r2, [pc, #36]	@ (0x70006270)
7000624c:	2300      	movs	r3, #0
7000624e:	a109      	add	r1, pc, #36	@ (adr r1, 0x70006274)
70006250:	a00f      	add	r0, pc, #60	@ (adr r0, 0x70006290)
70006252:	f7ff fba9 	bl	0x700059a8
70006256:	f7fe ee2c 	blx	0x70004eb0
7000625a:	8821      	ldrh	r1, [r4, #0]
7000625c:	060a      	lsls	r2, r1, #24
7000625e:	0e12      	lsrs	r2, r2, #24
70006260:	0229      	lsls	r1, r5, #8
70006262:	4311      	orrs	r1, r2
70006264:	8021      	strh	r1, [r4, #0]
70006266:	f7fe ee20 	blx	0x70004ea8
7000626a:	bd7f      	pop	{r0, r1, r2, r3, r4, r5, r6, pc}
7000626c:	0038      	movs	r0, r7
7000626e:	a071      	add	r0, pc, #452	@ (adr r0, 0x70006434)
70006270:	1379      	asrs	r1, r7, #13
70006272:	0000      	movs	r0, r0
70006274:	6168      	str	r0, [r5, #20]
70006276:	5c6c      	ldrb	r4, [r5, r1]
70006278:	6570      	str	r0, [r6, #84]	@ 0x54
7000627a:	6972      	ldr	r2, [r6, #20]
7000627c:	6870      	ldr	r0, [r6, #4]
7000627e:	7265      	strb	r5, [r4, #9]
70006280:	6c61      	ldr	r1, [r4, #68]	@ 0x44
70006282:	735c      	strb	r4, [r3, #13]
70006284:	6372      	str	r2, [r6, #52]	@ 0x34
70006286:	725c      	strb	r4, [r3, #9]
70006288:	6374      	str	r4, [r6, #52]	@ 0x34
7000628a:	632e      	str	r6, [r5, #48]	@ 0x30
7000628c:	0000      	movs	r0, r0
7000628e:	0000      	movs	r0, r0
70006290:	0030      	movs	r0, r6
70006292:	0000      	movs	r0, r0
70006294:	b530      	push	{r4, r5, lr}
70006296:	480a      	ldr	r0, [pc, #40]	@ (0x700062c0)
70006298:	8a01      	ldrh	r1, [r0, #16]
7000629a:	8a82      	ldrh	r2, [r0, #20]
7000629c:	4b08      	ldr	r3, [pc, #32]	@ (0x700062c0)
7000629e:	3320      	adds	r3, #32
700062a0:	8b1c      	ldrh	r4, [r3, #24]
700062a2:	8b03      	ldrh	r3, [r0, #24]
700062a4:	4d08      	ldr	r5, [pc, #32]	@ (0x700062c8)
700062a6:	0be0      	lsrs	r0, r4, #15
700062a8:	4c06      	ldr	r4, [pc, #24]	@ (0x700062c4)
700062aa:	03c0      	lsls	r0, r0, #15
700062ac:	42a9      	cmp	r1, r5
700062ae:	8023      	strh	r3, [r4, #0]
700062b0:	d104      	bne.n	0x700062bc
700062b2:	4906      	ldr	r1, [pc, #24]	@ (0x700062cc)
700062b4:	428a      	cmp	r2, r1
700062b6:	d101      	bne.n	0x700062bc
700062b8:	2800      	cmp	r0, #0
700062ba:	d000      	beq.n	0x700062be
700062bc:	2001      	movs	r0, #1
700062be:	bd30      	pop	{r4, r5, pc}
700062c0:	0040      	lsls	r0, r0, #1
700062c2:	a071      	add	r0, pc, #452	@ (adr r0, 0x70006488)
700062c4:	2fb4      	cmp	r7, #180	@ 0xb4
700062c6:	0001      	movs	r1, r0
700062c8:	a357      	add	r3, pc, #348	@ (adr r3, 0x70006428)
700062ca:	0000      	movs	r0, r0
700062cc:	67d2      	str	r2, [r2, #124]	@ 0x7c
700062ce:	0000      	movs	r0, r0
700062d0:	7801      	ldrb	r1, [r0, #0]
700062d2:	293b      	cmp	r1, #59	@ 0x3b
700062d4:	d812      	bhi.n	0x700062fc
700062d6:	7841      	ldrb	r1, [r0, #1]
700062d8:	293b      	cmp	r1, #59	@ 0x3b
700062da:	d80f      	bhi.n	0x700062fc
700062dc:	7881      	ldrb	r1, [r0, #2]
700062de:	2917      	cmp	r1, #23
700062e0:	d80c      	bhi.n	0x700062fc
700062e2:	78c1      	ldrb	r1, [r0, #3]
700062e4:	291f      	cmp	r1, #31
700062e6:	d809      	bhi.n	0x700062fc
700062e8:	2900      	cmp	r1, #0
700062ea:	d007      	beq.n	0x700062fc
700062ec:	7901      	ldrb	r1, [r0, #4]
700062ee:	290c      	cmp	r1, #12
700062f0:	d804      	bhi.n	0x700062fc
700062f2:	2900      	cmp	r1, #0
700062f4:	d002      	beq.n	0x700062fc
700062f6:	7980      	ldrb	r0, [r0, #6]
700062f8:	287f      	cmp	r0, #127	@ 0x7f
700062fa:	d901      	bls.n	0x70006300
700062fc:	2000      	movs	r0, #0
700062fe:	4770      	bx	lr
70006300:	2001      	movs	r0, #1
70006302:	4770      	bx	lr
70006304:	4904      	ldr	r1, [pc, #16]	@ (0x70006318)
70006306:	b500      	push	{lr}
70006308:	8808      	ldrh	r0, [r1, #0]
7000630a:	4a04      	ldr	r2, [pc, #16]	@ (0x7000631c)
7000630c:	4310      	orrs	r0, r2
7000630e:	8008      	strh	r0, [r1, #0]
70006310:	f7ff fb22 	bl	0x70005958
70006314:	bd00      	pop	{pc}
70006316:	0000      	movs	r0, r0
70006318:	0000      	movs	r0, r0
7000631a:	a071      	add	r0, pc, #452	@ (adr r0, 0x700064e0)
7000631c:	4320      	orrs	r0, r4
7000631e:	0000      	movs	r0, r0
70006320:	490a      	ldr	r1, [pc, #40]	@ (0x7000634c)
70006322:	480b      	ldr	r0, [pc, #44]	@ (0x70006350)
70006324:	b510      	push	{r4, lr}
70006326:	8201      	strh	r1, [r0, #16]
70006328:	490a      	ldr	r1, [pc, #40]	@ (0x70006354)
7000632a:	8281      	strh	r1, [r0, #20]
7000632c:	f7ff fb14 	bl	0x70005958
70006330:	4809      	ldr	r0, [pc, #36]	@ (0x70006358)
70006332:	2100      	movs	r1, #0
70006334:	f7ff f9fa 	bl	0x7000572c
70006338:	4908      	ldr	r1, [pc, #32]	@ (0x7000635c)
7000633a:	0004      	movs	r4, r0
7000633c:	2200      	movs	r2, #0
7000633e:	f7ff fa6b 	bl	0x70005818
70006342:	0020      	movs	r0, r4
70006344:	f7ff fa2a 	bl	0x7000579c
70006348:	bd10      	pop	{r4, pc}
7000634a:	0000      	movs	r0, r0
7000634c:	a357      	add	r3, pc, #348	@ (adr r3, 0x700064ac)
7000634e:	0000      	movs	r0, r0
70006350:	0040      	lsls	r0, r0, #1
70006352:	a071      	add	r0, pc, #452	@ (adr r0, 0x70006518)
70006354:	67d2      	str	r2, [r2, #124]	@ 0x7c
70006356:	0000      	movs	r0, r0
70006358:	1b01      	subs	r1, r0, r4
7000635a:	0000      	movs	r0, r0
7000635c:	1d02      	adds	r2, r0, #4
7000635e:	0000      	movs	r0, r0
70006360:	b5fe      	push	{r1, r2, r3, r4, r5, r6, r7, lr}
70006362:	481a      	ldr	r0, [pc, #104]	@ (0x700063cc)
70006364:	8a04      	ldrh	r4, [r0, #16]
70006366:	8a85      	ldrh	r5, [r0, #20]
70006368:	f000 f83a 	bl	0x700063e0
7000636c:	4818      	ldr	r0, [pc, #96]	@ (0x700063d0)
7000636e:	2100      	movs	r1, #0
70006370:	f7ff f9dc 	bl	0x7000572c
70006374:	4917      	ldr	r1, [pc, #92]	@ (0x700063d4)
70006376:	0006      	movs	r6, r0
70006378:	2200      	movs	r2, #0
7000637a:	f7ff fa4d 	bl	0x70005818
7000637e:	4915      	ldr	r1, [pc, #84]	@ (0x700063d4)
70006380:	0030      	movs	r0, r6
70006382:	1e49      	subs	r1, r1, #1
70006384:	aa02      	add	r2, sp, #8
70006386:	f7ff fa47 	bl	0x70005818
7000638a:	466b      	mov	r3, sp
7000638c:	7a18      	ldrb	r0, [r3, #8]
7000638e:	2800      	cmp	r0, #0
70006390:	d117      	bne.n	0x700063c2
70006392:	4811      	ldr	r0, [pc, #68]	@ (0x700063d8)
70006394:	4284      	cmp	r4, r0
70006396:	d10c      	bne.n	0x700063b2
70006398:	4810      	ldr	r0, [pc, #64]	@ (0x700063dc)
7000639a:	4285      	cmp	r5, r0
7000639c:	d109      	bne.n	0x700063b2
7000639e:	490d      	ldr	r1, [pc, #52]	@ (0x700063d4)
700063a0:	0030      	movs	r0, r6
700063a2:	1c49      	adds	r1, r1, #1
700063a4:	aa01      	add	r2, sp, #4
700063a6:	f7ff fa37 	bl	0x70005818
700063aa:	466b      	mov	r3, sp
700063ac:	7a18      	ldrb	r0, [r3, #8]
700063ae:	2800      	cmp	r0, #0
700063b0:	d107      	bne.n	0x700063c2
700063b2:	4908      	ldr	r1, [pc, #32]	@ (0x700063d4)
700063b4:	2001      	movs	r0, #1
700063b6:	9000      	str	r0, [sp, #0]
700063b8:	1c89      	adds	r1, r1, #2
700063ba:	0030      	movs	r0, r6
700063bc:	466a      	mov	r2, sp
700063be:	f7ff fa2b 	bl	0x70005818
700063c2:	0030      	movs	r0, r6
700063c4:	f7ff f9ea 	bl	0x7000579c
700063c8:	bdfe      	pop	{r1, r2, r3, r4, r5, r6, r7, pc}
700063ca:	0000      	movs	r0, r0
700063cc:	0040      	lsls	r0, r0, #1
700063ce:	a071      	add	r0, pc, #452	@ (adr r0, 0x70006594)
700063d0:	1b01      	subs	r1, r0, r4
700063d2:	0000      	movs	r0, r0
700063d4:	1d02      	adds	r2, r0, #4
700063d6:	0000      	movs	r0, r0
700063d8:	a357      	add	r3, pc, #348	@ (adr r3, 0x70006538)
700063da:	0000      	movs	r0, r0
700063dc:	67d2      	str	r2, [r2, #124]	@ 0x7c
700063de:	0000      	movs	r0, r0
700063e0:	4808      	ldr	r0, [pc, #32]	@ (0x70006404)
700063e2:	4a09      	ldr	r2, [pc, #36]	@ (0x70006408)
700063e4:	8110      	strh	r0, [r2, #8]
700063e6:	2301      	movs	r3, #1
700063e8:	8293      	strh	r3, [r2, #20]
700063ea:	4807      	ldr	r0, [pc, #28]	@ (0x70006408)
700063ec:	3860      	subs	r0, #96	@ 0x60
700063ee:	8801      	ldrh	r1, [r0, #0]
700063f0:	0649      	lsls	r1, r1, #25
700063f2:	d4fc      	bmi.n	0x700063ee
700063f4:	4905      	ldr	r1, [pc, #20]	@ (0x7000640c)
700063f6:	8111      	strh	r1, [r2, #8]
700063f8:	8293      	strh	r3, [r2, #20]
700063fa:	8801      	ldrh	r1, [r0, #0]
700063fc:	0649      	lsls	r1, r1, #25
700063fe:	d4fc      	bmi.n	0x700063fa
70006400:	4770      	bx	lr
70006402:	0000      	movs	r0, r0
70006404:	586a      	ldr	r2, [r5, r1]
70006406:	0000      	movs	r0, r0
70006408:	0060      	lsls	r0, r4, #1
7000640a:	a071      	add	r0, pc, #452	@ (adr r0, 0x700065d0)
7000640c:	9136      	str	r1, [sp, #216]	@ 0xd8
7000640e:	0000      	movs	r0, r0
70006410:	4a04      	ldr	r2, [pc, #16]	@ (0x70006424)
70006412:	2000      	movs	r0, #0
70006414:	8811      	ldrh	r1, [r2, #0]
70006416:	0649      	lsls	r1, r1, #25
70006418:	d502      	bpl.n	0x70006420
7000641a:	1c40      	adds	r0, r0, #1
7000641c:	1c41      	adds	r1, r0, #1
7000641e:	d1f9      	bne.n	0x70006414
70006420:	4770      	bx	lr
70006422:	0000      	movs	r0, r0
70006424:	0000      	movs	r0, r0
70006426:	a071      	add	r0, pc, #452	@ (adr r0, 0x700065ec)
70006428:	b510      	push	{r4, lr}
7000642a:	6844      	ldr	r4, [r0, #4]
7000642c:	6803      	ldr	r3, [r0, #0]
7000642e:	42a3      	cmp	r3, r4
70006430:	d202      	bcs.n	0x70006438
70006432:	1e49      	subs	r1, r1, #1
70006434:	d012      	beq.n	0x7000645c
70006436:	e001      	b.n	0x7000643c
70006438:	2300      	movs	r3, #0
7000643a:	e00d      	b.n	0x70006458
7000643c:	008b      	lsls	r3, r1, #2
7000643e:	58c3      	ldr	r3, [r0, r3]
70006440:	4293      	cmp	r3, r2
70006442:	d8f6      	bhi.n	0x70006432
70006444:	0089      	lsls	r1, r1, #2
70006446:	e004      	b.n	0x70006452
70006448:	009c      	lsls	r4, r3, #2
7000644a:	5904      	ldr	r4, [r0, r4]
7000644c:	4294      	cmp	r4, r2
7000644e:	d802      	bhi.n	0x70006456
70006450:	0099      	lsls	r1, r3, #2
70006452:	5840      	ldr	r0, [r0, r1]
70006454:	bd10      	pop	{r4, pc}
70006456:	1c5b      	adds	r3, r3, #1
70006458:	428b      	cmp	r3, r1
7000645a:	d3f5      	bcc.n	0x70006448
7000645c:	2000      	movs	r0, #0
7000645e:	bd10      	pop	{r4, pc}
70006460:	b51f      	push	{r0, r1, r2, r3, r4, lr}
70006462:	0003      	movs	r3, r0
70006464:	2000      	movs	r0, #0
70006466:	e004      	b.n	0x70006472
70006468:	0084      	lsls	r4, r0, #2
7000646a:	591c      	ldr	r4, [r3, r4]
7000646c:	4294      	cmp	r4, r2
7000646e:	d00f      	beq.n	0x70006490
70006470:	1c40      	adds	r0, r0, #1
70006472:	4288      	cmp	r0, r1
70006474:	d3f8      	bcc.n	0x70006468
70006476:	2200      	movs	r2, #0
70006478:	9201      	str	r2, [sp, #4]
7000647a:	9202      	str	r2, [sp, #8]
7000647c:	9203      	str	r2, [sp, #12]
7000647e:	9200      	str	r2, [sp, #0]
70006480:	22ff      	movs	r2, #255	@ 0xff
70006482:	3260      	adds	r2, #96	@ 0x60
70006484:	2300      	movs	r3, #0
70006486:	a103      	add	r1, pc, #12	@ (adr r1, 0x70006494)
70006488:	a009      	add	r0, pc, #36	@ (adr r0, 0x700064b0)
7000648a:	f7ff fa8d 	bl	0x700059a8
7000648e:	2000      	movs	r0, #0
70006490:	b004      	add	sp, #16
70006492:	bd10      	pop	{r4, pc}
70006494:	6168      	str	r0, [r5, #20]
70006496:	5c6c      	ldrb	r4, [r5, r1]
70006498:	6570      	str	r0, [r6, #84]	@ 0x54
7000649a:	6972      	ldr	r2, [r6, #20]
7000649c:	6870      	ldr	r0, [r6, #4]
7000649e:	7265      	strb	r5, [r4, #9]
700064a0:	6c61      	ldr	r1, [r4, #68]	@ 0x44
700064a2:	735c      	strb	r4, [r3, #13]
700064a4:	6372      	str	r2, [r6, #52]	@ 0x34
700064a6:	625c      	str	r4, [r3, #36]	@ 0x24
700064a8:	746d      	strb	r5, [r5, #17]
700064aa:	685f      	ldr	r7, [r3, #4]
700064ac:	2e77      	cmp	r6, #119	@ 0x77
700064ae:	0063      	lsls	r3, r4, #1
700064b0:	0030      	movs	r0, r6
700064b2:	0000      	movs	r0, r0
700064b4:	4800      	ldr	r0, [pc, #0]	@ (0x700064b8)
700064b6:	4770      	bx	lr
700064b8:	2094      	movs	r0, #148	@ 0x94
700064ba:	0001      	movs	r1, r0
700064bc:	2306      	movs	r3, #6
700064be:	4359      	muls	r1, r3
700064c0:	4a04      	ldr	r2, [pc, #16]	@ (0x700064d4)
700064c2:	1889      	adds	r1, r1, r2
700064c4:	784a      	ldrb	r2, [r1, #1]
700064c6:	5a82      	ldrh	r2, [r0, r2]
700064c8:	8848      	ldrh	r0, [r1, #2]
700064ca:	7909      	ldrb	r1, [r1, #4]
700064cc:	4010      	ands	r0, r2
700064ce:	40c8      	lsrs	r0, r1
700064d0:	4770      	bx	lr
700064d2:	0000      	movs	r0, r0
700064d4:	8580      	strh	r0, [r0, #44]	@ 0x2c
700064d6:	1000      	asrs	r0, r0, #32
700064d8:	b5f0      	push	{r4, r5, r6, r7, lr}
700064da:	0004      	movs	r4, r0
700064dc:	000e      	movs	r6, r1
700064de:	0017      	movs	r7, r2
700064e0:	2830      	cmp	r0, #48	@ 0x30
700064e2:	b085      	sub	sp, #20
700064e4:	d30a      	bcc.n	0x700064fc
700064e6:	2200      	movs	r2, #0
700064e8:	9201      	str	r2, [sp, #4]
700064ea:	9202      	str	r2, [sp, #8]
700064ec:	9203      	str	r2, [sp, #12]
700064ee:	9200      	str	r2, [sp, #0]
700064f0:	4a10      	ldr	r2, [pc, #64]	@ (0x70006534)
700064f2:	2300      	movs	r3, #0
700064f4:	a110      	add	r1, pc, #64	@ (adr r1, 0x70006538)
700064f6:	a019      	add	r0, pc, #100	@ (adr r0, 0x7000655c)
700064f8:	f7ff fa56 	bl	0x700059a8
700064fc:	4818      	ldr	r0, [pc, #96]	@ (0x70006560)
700064fe:	230c      	movs	r3, #12
70006500:	5d00      	ldrb	r0, [r0, r4]
70006502:	4918      	ldr	r1, [pc, #96]	@ (0x70006564)
70006504:	4358      	muls	r0, r3
70006506:	1845      	adds	r5, r0, r1
70006508:	6828      	ldr	r0, [r5, #0]
7000650a:	42a0      	cmp	r0, r4
7000650c:	d00b      	beq.n	0x70006526
7000650e:	2200      	movs	r2, #0
70006510:	9201      	str	r2, [sp, #4]
70006512:	9202      	str	r2, [sp, #8]
70006514:	9203      	str	r2, [sp, #12]
70006516:	9200      	str	r2, [sp, #0]
70006518:	4a06      	ldr	r2, [pc, #24]	@ (0x70006534)
7000651a:	2300      	movs	r3, #0
7000651c:	1dd2      	adds	r2, r2, #7
7000651e:	a106      	add	r1, pc, #24	@ (adr r1, 0x70006538)
70006520:	a00e      	add	r0, pc, #56	@ (adr r0, 0x7000655c)
70006522:	f7ff fa41 	bl	0x700059a8
70006526:	6868      	ldr	r0, [r5, #4]
70006528:	003a      	movs	r2, r7
7000652a:	0031      	movs	r1, r6
7000652c:	f7ff f9d8 	bl	0x700058e0
70006530:	b005      	add	sp, #20
70006532:	bdf0      	pop	{r4, r5, r6, r7, pc}
70006534:	0276      	lsls	r6, r6, #9
70006536:	0000      	movs	r0, r0
70006538:	6168      	str	r0, [r5, #20]
7000653a:	5c6c      	ldrb	r4, [r5, r1]
7000653c:	6570      	str	r0, [r6, #84]	@ 0x54
7000653e:	6972      	ldr	r2, [r6, #20]
70006540:	6870      	ldr	r0, [r6, #4]
70006542:	7265      	strb	r5, [r4, #9]
70006544:	6c61      	ldr	r1, [r4, #68]	@ 0x44
70006546:	735c      	strb	r4, [r3, #13]
70006548:	6372      	str	r2, [r6, #52]	@ 0x34
7000654a:	645c      	str	r4, [r3, #68]	@ 0x44
7000654c:	6c63      	ldr	r3, [r4, #68]	@ 0x44
7000654e:	705f      	strb	r7, [r3, #1]
70006550:	756d      	strb	r5, [r5, #21]
70006552:	3236      	adds	r2, #54	@ 0x36
70006554:	3136      	adds	r1, #54	@ 0x36
70006556:	632e      	str	r6, [r5, #48]	@ 0x30
70006558:	0000      	movs	r0, r0
7000655a:	0000      	movs	r0, r0
7000655c:	0030      	movs	r0, r6
7000655e:	0000      	movs	r0, r0
70006560:	2ee0      	cmp	r6, #224	@ 0xe0
70006562:	0001      	movs	r1, r0
70006564:	84e4      	strh	r4, [r4, #38]	@ 0x26
70006566:	1000      	asrs	r0, r0, #32
70006568:	b5f0      	push	{r4, r5, r6, r7, lr}
7000656a:	000c      	movs	r4, r1
7000656c:	0015      	movs	r5, r2
7000656e:	001e      	movs	r6, r3
70006570:	28ff      	cmp	r0, #255	@ 0xff
70006572:	b0a1      	sub	sp, #132	@ 0x84
70006574:	d00f      	beq.n	0x70006596
70006576:	0001      	movs	r1, r0
70006578:	4808      	ldr	r0, [pc, #32]	@ (0x7000659c)
7000657a:	f7ff fc0d 	bl	0x70005d98
7000657e:	0007      	movs	r7, r0
70006580:	2200      	movs	r2, #0
70006582:	2104      	movs	r1, #4
70006584:	f7fe ffb6 	bl	0x700054f4
70006588:	466b      	mov	r3, sp
7000658a:	c370      	stmia	r3!, {r4, r5, r6}
7000658c:	212a      	movs	r1, #42	@ 0x2a
7000658e:	0038      	movs	r0, r7
70006590:	466a      	mov	r2, sp
70006592:	f7fe ffaf 	bl	0x700054f4
70006596:	b021      	add	sp, #132	@ 0x84
70006598:	bdf0      	pop	{r4, r5, r6, r7, pc}
7000659a:	0000      	movs	r0, r0
7000659c:	0401      	lsls	r1, r0, #16
7000659e:	0000      	movs	r0, r0
700065a0:	b570      	push	{r4, r5, r6, lr}
700065a2:	4e07      	ldr	r6, [pc, #28]	@ (0x700065c0)
700065a4:	0004      	movs	r4, r0
700065a6:	000d      	movs	r5, r1
700065a8:	2300      	movs	r3, #0
700065aa:	8025      	strh	r5, [r4, #0]
700065ac:	f7ff f9d4 	bl	0x70005958
700065b0:	8820      	ldrh	r0, [r4, #0]
700065b2:	42a8      	cmp	r0, r5
700065b4:	d002      	beq.n	0x700065bc
700065b6:	1c5b      	adds	r3, r3, #1
700065b8:	42b3      	cmp	r3, r6
700065ba:	d3f6      	bcc.n	0x700065aa
700065bc:	bd70      	pop	{r4, r5, r6, pc}
700065be:	0000      	movs	r0, r0
700065c0:	4240      	negs	r0, r0
700065c2:	000f      	movs	r7, r1
700065c4:	b510      	push	{r4, lr}
700065c6:	4c4f      	ldr	r4, [pc, #316]	@ (0x70006704)
700065c8:	6820      	ldr	r0, [r4, #0]
700065ca:	1c41      	adds	r1, r0, #1
700065cc:	d00c      	beq.n	0x700065e8
700065ce:	494e      	ldr	r1, [pc, #312]	@ (0x70006708)
700065d0:	680a      	ldr	r2, [r1, #0]
700065d2:	1a81      	subs	r1, r0, r2
700065d4:	4290      	cmp	r0, r2
700065d6:	d200      	bcs.n	0x700065da
700065d8:	1e49      	subs	r1, r1, #1
700065da:	484c      	ldr	r0, [pc, #304]	@ (0x7000670c)
700065dc:	4348      	muls	r0, r1
700065de:	2100      	movs	r1, #0
700065e0:	0a80      	lsrs	r0, r0, #10
700065e2:	43c9      	mvns	r1, r1
700065e4:	6021      	str	r1, [r4, #0]
700065e6:	bd10      	pop	{r4, pc}
700065e8:	2000      	movs	r0, #0
700065ea:	bd10      	pop	{r4, pc}
700065ec:	b5f0      	push	{r4, r5, r6, r7, lr}
700065ee:	074a      	lsls	r2, r1, #29
700065f0:	0f52      	lsrs	r2, r2, #29
700065f2:	0113      	lsls	r3, r2, #4
700065f4:	4d44      	ldr	r5, [pc, #272]	@ (0x70006708)
700065f6:	181c      	adds	r4, r3, r0
700065f8:	6ae3      	ldr	r3, [r4, #44]	@ 0x2c
700065fa:	68ef      	ldr	r7, [r5, #12]
700065fc:	1c5e      	adds	r6, r3, #1
700065fe:	1c7f      	adds	r7, r7, #1
70006600:	2501      	movs	r5, #1
70006602:	4095      	lsls	r5, r2
70006604:	2e00      	cmp	r6, #0
70006606:	4e40      	ldr	r6, [pc, #256]	@ (0x70006708)
70006608:	d02f      	beq.n	0x7000666a
7000660a:	6872      	ldr	r2, [r6, #4]
7000660c:	68b6      	ldr	r6, [r6, #8]
7000660e:	1c76      	adds	r6, r6, #1
70006610:	428b      	cmp	r3, r1
70006612:	46b4      	mov	ip, r6
70006614:	d022      	beq.n	0x7000665c
70006616:	6b63      	ldr	r3, [r4, #52]	@ 0x34
70006618:	1c5e      	adds	r6, r3, #1
7000661a:	d01c      	beq.n	0x70006656
7000661c:	428b      	cmp	r3, r1
7000661e:	d013      	beq.n	0x70006648
70006620:	4e39      	ldr	r6, [pc, #228]	@ (0x70006708)
70006622:	4215      	tst	r5, r2
70006624:	60f7      	str	r7, [r6, #12]
70006626:	d007      	beq.n	0x70006638
70006628:	6361      	str	r1, [r4, #52]	@ 0x34
7000662a:	f7fe ec3a 	blx	0x70004ea0
7000662e:	63a0      	str	r0, [r4, #56]	@ 0x38
70006630:	6871      	ldr	r1, [r6, #4]
70006632:	43a9      	bics	r1, r5
70006634:	6071      	str	r1, [r6, #4]
70006636:	bdf0      	pop	{r4, r5, r6, r7, pc}
70006638:	62e1      	str	r1, [r4, #44]	@ 0x2c
7000663a:	f7fe ec32 	blx	0x70004ea0
7000663e:	6320      	str	r0, [r4, #48]	@ 0x30
70006640:	6871      	ldr	r1, [r6, #4]
70006642:	430d      	orrs	r5, r1
70006644:	6075      	str	r5, [r6, #4]
70006646:	bdf0      	pop	{r4, r5, r6, r7, pc}
70006648:	492f      	ldr	r1, [pc, #188]	@ (0x70006708)
7000664a:	4660      	mov	r0, ip
7000664c:	6088      	str	r0, [r1, #8]
7000664e:	6ba0      	ldr	r0, [r4, #56]	@ 0x38
70006650:	43aa      	bics	r2, r5
70006652:	604a      	str	r2, [r1, #4]
70006654:	bdf0      	pop	{r4, r5, r6, r7, pc}
70006656:	4e2c      	ldr	r6, [pc, #176]	@ (0x70006708)
70006658:	60f7      	str	r7, [r6, #12]
7000665a:	e7e5      	b.n	0x70006628
7000665c:	492a      	ldr	r1, [pc, #168]	@ (0x70006708)
7000665e:	4660      	mov	r0, ip
70006660:	6088      	str	r0, [r1, #8]
70006662:	6b20      	ldr	r0, [r4, #48]	@ 0x30
70006664:	4315      	orrs	r5, r2
70006666:	604d      	str	r5, [r1, #4]
70006668:	bdf0      	pop	{r4, r5, r6, r7, pc}
7000666a:	60f7      	str	r7, [r6, #12]
7000666c:	e7e4      	b.n	0x70006638
7000666e:	b57f      	push	{r0, r1, r2, r3, r4, r5, r6, lr}
70006670:	000d      	movs	r5, r1
70006672:	0004      	movs	r4, r0
70006674:	2a00      	cmp	r2, #0
70006676:	d00a      	beq.n	0x7000668e
70006678:	2200      	movs	r2, #0
7000667a:	9201      	str	r2, [sp, #4]
7000667c:	9202      	str	r2, [sp, #8]
7000667e:	9203      	str	r2, [sp, #12]
70006680:	9200      	str	r2, [sp, #0]
70006682:	4a23      	ldr	r2, [pc, #140]	@ (0x70006710)
70006684:	2300      	movs	r3, #0
70006686:	a123      	add	r1, pc, #140	@ (adr r1, 0x70006714)
70006688:	a02c      	add	r0, pc, #176	@ (adr r0, 0x7000673c)
7000668a:	f7ff f98d 	bl	0x700059a8
7000668e:	0029      	movs	r1, r5
70006690:	0020      	movs	r0, r4
70006692:	f7ff ffab 	bl	0x700065ec
70006696:	61a0      	str	r0, [r4, #24]
70006698:	b004      	add	sp, #16
7000669a:	bd70      	pop	{r4, r5, r6, pc}
7000669c:	b510      	push	{r4, lr}
7000669e:	6943      	ldr	r3, [r0, #20]
700066a0:	2200      	movs	r2, #0
700066a2:	6858      	ldr	r0, [r3, #4]
700066a4:	e004      	b.n	0x700066b0
700066a6:	1c52      	adds	r2, r2, #1
700066a8:	00d4      	lsls	r4, r2, #3
700066aa:	1d24      	adds	r4, r4, #4
700066ac:	591c      	ldr	r4, [r3, r4]
700066ae:	1820      	adds	r0, r4, r0
700066b0:	4288      	cmp	r0, r1
700066b2:	d9f8      	bls.n	0x700066a6
700066b4:	00d0      	lsls	r0, r2, #3
700066b6:	5818      	ldr	r0, [r3, r0]
700066b8:	bd10      	pop	{r4, pc}
700066ba:	b570      	push	{r4, r5, r6, lr}
700066bc:	0002      	movs	r2, r0
700066be:	6952      	ldr	r2, [r2, #20]
700066c0:	0008      	movs	r0, r1
700066c2:	2100      	movs	r1, #0
700066c4:	6815      	ldr	r5, [r2, #0]
700066c6:	6853      	ldr	r3, [r2, #4]
700066c8:	000c      	movs	r4, r1
700066ca:	e008      	b.n	0x700066de
700066cc:	1d2d      	adds	r5, r5, #4
700066ce:	5955      	ldr	r5, [r2, r5]
700066d0:	1c49      	adds	r1, r1, #1
700066d2:	192c      	adds	r4, r5, r4
700066d4:	1ac0      	subs	r0, r0, r3
700066d6:	00cd      	lsls	r5, r1, #3
700066d8:	1d2b      	adds	r3, r5, #4
700066da:	58d3      	ldr	r3, [r2, r3]
700066dc:	5955      	ldr	r5, [r2, r5]
700066de:	436b      	muls	r3, r5
700066e0:	4283      	cmp	r3, r0
700066e2:	d203      	bcs.n	0x700066ec
700066e4:	00cd      	lsls	r5, r1, #3
700066e6:	5956      	ldr	r6, [r2, r5]
700066e8:	2e00      	cmp	r6, #0
700066ea:	d1ef      	bne.n	0x700066cc
700066ec:	4283      	cmp	r3, r0
700066ee:	d305      	bcc.n	0x700066fc
700066f0:	00c9      	lsls	r1, r1, #3
700066f2:	5851      	ldr	r1, [r2, r1]
700066f4:	f000 efc4 	blx	0x70007680
700066f8:	1900      	adds	r0, r0, r4
700066fa:	bd70      	pop	{r4, r5, r6, pc}
700066fc:	2000      	movs	r0, #0
700066fe:	43c0      	mvns	r0, r0
70006700:	bd70      	pop	{r4, r5, r6, pc}
70006702:	0000      	movs	r0, r0
70006704:	2078      	movs	r0, #120	@ 0x78
70006706:	0001      	movs	r1, r0
70006708:	2f94      	cmp	r7, #148	@ 0x94
7000670a:	0001      	movs	r1, r0
7000670c:	0455      	lsls	r5, r2, #17
7000670e:	0000      	movs	r0, r0
70006710:	030d      	lsls	r5, r1, #12
70006712:	0000      	movs	r0, r0
70006714:	6168      	str	r0, [r5, #20]
70006716:	5c6c      	ldrb	r4, [r5, r1]
70006718:	7473      	strb	r3, [r6, #17]
7000671a:	726f      	strb	r7, [r5, #9]
7000671c:	6761      	str	r1, [r4, #116]	@ 0x74
7000671e:	5c65      	ldrb	r5, [r4, r1]
70006720:	6c66      	ldr	r6, [r4, #68]	@ 0x44
70006722:	7361      	strb	r1, [r4, #13]
70006724:	5c68      	ldrb	r0, [r5, r1]
70006726:	746d      	strb	r5, [r5, #17]
70006728:	5c64      	ldrb	r4, [r4, r1]
7000672a:	7273      	strb	r3, [r6, #9]
7000672c:	5c63      	ldrb	r3, [r4, r1]
7000672e:	6c66      	ldr	r6, [r4, #68]	@ 0x44
70006730:	7361      	strb	r1, [r4, #13]
70006732:	5f68      	ldrsh	r0, [r5, r5]
70006734:	746d      	strb	r5, [r5, #17]
70006736:	2e64      	cmp	r6, #100	@ 0x64
70006738:	0063      	lsls	r3, r4, #1
7000673a:	0000      	movs	r0, r0
7000673c:	6957      	ldr	r7, [r2, #20]
7000673e:	646e      	str	r6, [r5, #68]	@ 0x44
70006740:	776f      	strb	r7, [r5, #29]
70006742:	6e49      	ldr	r1, [r1, #100]	@ 0x64
70006744:	6564      	str	r4, [r4, #84]	@ 0x54
70006746:	2078      	movs	r0, #120	@ 0x78
70006748:	3d3d      	subs	r5, #61	@ 0x3d
7000674a:	3020      	adds	r0, #32
7000674c:	0000      	movs	r0, r0
7000674e:	0000      	movs	r0, r0
70006750:	b510      	push	{r4, lr}
70006752:	f000 f9e3 	bl	0x70006b1c
70006756:	bd10      	pop	{r4, pc}
70006758:	b5f0      	push	{r4, r5, r6, r7, lr}
7000675a:	2001      	movs	r0, #1
7000675c:	b085      	sub	sp, #20
7000675e:	9002      	str	r0, [sp, #8]
70006760:	2010      	movs	r0, #16
70006762:	9001      	str	r0, [sp, #4]
70006764:	482a      	ldr	r0, [pc, #168]	@ (0x70006810)
70006766:	2101      	movs	r1, #1
70006768:	9000      	str	r0, [sp, #0]
7000676a:	482a      	ldr	r0, [pc, #168]	@ (0x70006814)
7000676c:	4d27      	ldr	r5, [pc, #156]	@ (0x7000680c)
7000676e:	0389      	lsls	r1, r1, #14
70006770:	8201      	strh	r1, [r0, #16]
70006772:	2401      	movs	r4, #1
70006774:	8284      	strh	r4, [r0, #20]
70006776:	271f      	movs	r7, #31
70006778:	2600      	movs	r6, #0
7000677a:	0021      	movs	r1, r4
7000677c:	0038      	movs	r0, r7
7000677e:	f7fe fa97 	bl	0x70004cb0
70006782:	9003      	str	r0, [sp, #12]
70006784:	0021      	movs	r1, r4
70006786:	0030      	movs	r0, r6
70006788:	f7fe fa92 	bl	0x70004cb0
7000678c:	42a8      	cmp	r0, r5
7000678e:	9004      	str	r0, [sp, #16]
70006790:	d81d      	bhi.n	0x700067ce
70006792:	9803      	ldr	r0, [sp, #12]
70006794:	42a8      	cmp	r0, r5
70006796:	d320      	bcc.n	0x700067da
70006798:	19f0      	adds	r0, r6, r7
7000679a:	0844      	lsrs	r4, r0, #1
7000679c:	42a6      	cmp	r6, r4
7000679e:	d121      	bne.n	0x700067e4
700067a0:	9804      	ldr	r0, [sp, #16]
700067a2:	9903      	ldr	r1, [sp, #12]
700067a4:	1a28      	subs	r0, r5, r0
700067a6:	1b49      	subs	r1, r1, r5
700067a8:	4288      	cmp	r0, r1
700067aa:	d816      	bhi.n	0x700067da
700067ac:	4288      	cmp	r0, r1
700067ae:	d30e      	bcc.n	0x700067ce
700067b0:	9901      	ldr	r1, [sp, #4]
700067b2:	0030      	movs	r0, r6
700067b4:	f7fe fa7c 	bl	0x70004cb0
700067b8:	0004      	movs	r4, r0
700067ba:	9901      	ldr	r1, [sp, #4]
700067bc:	0038      	movs	r0, r7
700067be:	f7fe fa77 	bl	0x70004cb0
700067c2:	9900      	ldr	r1, [sp, #0]
700067c4:	9a00      	ldr	r2, [sp, #0]
700067c6:	1b09      	subs	r1, r1, r4
700067c8:	1a80      	subs	r0, r0, r2
700067ca:	4281      	cmp	r1, r0
700067cc:	d805      	bhi.n	0x700067da
700067ce:	0030      	movs	r0, r6
700067d0:	f000 fc36 	bl	0x70007040
700067d4:	0030      	movs	r0, r6
700067d6:	b005      	add	sp, #20
700067d8:	bdf0      	pop	{r4, r5, r6, r7, pc}
700067da:	0038      	movs	r0, r7
700067dc:	f000 fc30 	bl	0x70007040
700067e0:	0038      	movs	r0, r7
700067e2:	e7f8      	b.n	0x700067d6
700067e4:	9902      	ldr	r1, [sp, #8]
700067e6:	0020      	movs	r0, r4
700067e8:	f7fe fa62 	bl	0x70004cb0
700067ec:	42a8      	cmp	r0, r5
700067ee:	d202      	bcs.n	0x700067f6
700067f0:	0026      	movs	r6, r4
700067f2:	9004      	str	r0, [sp, #16]
700067f4:	e7d0      	b.n	0x70006798
700067f6:	4285      	cmp	r5, r0
700067f8:	d202      	bcs.n	0x70006800
700067fa:	0027      	movs	r7, r4
700067fc:	9003      	str	r0, [sp, #12]
700067fe:	e7cb      	b.n	0x70006798
70006800:	0020      	movs	r0, r4
70006802:	f000 fc1d 	bl	0x70007040
70006806:	0020      	movs	r0, r4
70006808:	e7e5      	b.n	0x700067d6
7000680a:	0000      	movs	r0, r0
7000680c:	0633      	lsls	r3, r6, #24
7000680e:	0000      	movs	r0, r0
70006810:	34b1      	adds	r4, #177	@ 0xb1
70006812:	0000      	movs	r0, r0
70006814:	0fe0      	lsrs	r0, r4, #31
70006816:	a070      	add	r0, pc, #448	@ (adr r0, 0x700069d8)
70006818:	b570      	push	{r4, r5, r6, lr}
7000681a:	4c11      	ldr	r4, [pc, #68]	@ (0x70006860)
7000681c:	8a21      	ldrh	r1, [r4, #16]
7000681e:	8aa2      	ldrh	r2, [r4, #20]
70006820:	480f      	ldr	r0, [pc, #60]	@ (0x70006860)
70006822:	3020      	adds	r0, #32
70006824:	8b03      	ldrh	r3, [r0, #24]
70006826:	4d0e      	ldr	r5, [pc, #56]	@ (0x70006860)
70006828:	2000      	movs	r0, #0
7000682a:	0bdb      	lsrs	r3, r3, #15
7000682c:	03db      	lsls	r3, r3, #15
7000682e:	3d40      	subs	r5, #64	@ 0x40
70006830:	882e      	ldrh	r6, [r5, #0]
70006832:	0676      	lsls	r6, r6, #25
70006834:	d502      	bpl.n	0x7000683c
70006836:	1c40      	adds	r0, r0, #1
70006838:	1c46      	adds	r6, r0, #1
7000683a:	d1f9      	bne.n	0x70006830
7000683c:	4809      	ldr	r0, [pc, #36]	@ (0x70006864)
7000683e:	4281      	cmp	r1, r0
70006840:	d104      	bne.n	0x7000684c
70006842:	4809      	ldr	r0, [pc, #36]	@ (0x70006868)
70006844:	4282      	cmp	r2, r0
70006846:	d101      	bne.n	0x7000684c
70006848:	2b00      	cmp	r3, #0
7000684a:	d008      	beq.n	0x7000685e
7000684c:	89a0      	ldrh	r0, [r4, #12]
7000684e:	0680      	lsls	r0, r0, #26
70006850:	d401      	bmi.n	0x70006856
70006852:	4806      	ldr	r0, [pc, #24]	@ (0x7000686c)
70006854:	e001      	b.n	0x7000685a
70006856:	4805      	ldr	r0, [pc, #20]	@ (0x7000686c)
70006858:	3008      	adds	r0, #8
7000685a:	f000 fbc7 	bl	0x70006fec
7000685e:	bd70      	pop	{r4, r5, r6, pc}
70006860:	0040      	lsls	r0, r0, #1
70006862:	a071      	add	r0, pc, #452	@ (adr r0, 0x70006a28)
70006864:	a357      	add	r3, pc, #348	@ (adr r3, 0x700069c4)
70006866:	0000      	movs	r0, r0
70006868:	67d2      	str	r2, [r2, #124]	@ 0x7c
7000686a:	0000      	movs	r0, r0
7000686c:	0407      	lsls	r7, r0, #16
7000686e:	0000      	movs	r0, r0
70006870:	b510      	push	{r4, lr}
70006872:	f000 fba9 	bl	0x70006fc8
70006876:	4804      	ldr	r0, [pc, #16]	@ (0x70006888)
70006878:	8980      	ldrh	r0, [r0, #12]
7000687a:	0680      	lsls	r0, r0, #26
7000687c:	d401      	bmi.n	0x70006882
7000687e:	2001      	movs	r0, #1
70006880:	bd10      	pop	{r4, pc}
70006882:	2000      	movs	r0, #0
70006884:	bd10      	pop	{r4, pc}
70006886:	0000      	movs	r0, r0
70006888:	0040      	lsls	r0, r0, #1
7000688a:	a071      	add	r0, pc, #452	@ (adr r0, 0x70006a50)
7000688c:	2002      	movs	r0, #2
7000688e:	43c0      	mvns	r0, r0
70006890:	4770      	bx	lr
70006892:	2002      	movs	r0, #2
70006894:	43c0      	mvns	r0, r0
70006896:	4770      	bx	lr
70006898:	2002      	movs	r0, #2
7000689a:	43c0      	mvns	r0, r0
7000689c:	4770      	bx	lr
7000689e:	0000      	movs	r0, r0
700068a0:	2280      	movs	r2, #128	@ 0x80
700068a2:	4390      	bics	r0, r2
700068a4:	0942      	lsrs	r2, r0, #5
700068a6:	b510      	push	{r4, lr}
700068a8:	06c0      	lsls	r0, r0, #27
700068aa:	4c09      	ldr	r4, [pc, #36]	@ (0x700068d0)
700068ac:	0ec0      	lsrs	r0, r0, #27
700068ae:	2301      	movs	r3, #1
700068b0:	2900      	cmp	r1, #0
700068b2:	d006      	beq.n	0x700068c2
700068b4:	0111      	lsls	r1, r2, #4
700068b6:	1909      	adds	r1, r1, r4
700068b8:	680a      	ldr	r2, [r1, #0]
700068ba:	4083      	lsls	r3, r0
700068bc:	4313      	orrs	r3, r2
700068be:	600b      	str	r3, [r1, #0]
700068c0:	bd10      	pop	{r4, pc}
700068c2:	0111      	lsls	r1, r2, #4
700068c4:	1909      	adds	r1, r1, r4
700068c6:	680a      	ldr	r2, [r1, #0]
700068c8:	4083      	lsls	r3, r0
700068ca:	439a      	bics	r2, r3
700068cc:	600a      	str	r2, [r1, #0]
700068ce:	bd10      	pop	{r4, pc}
700068d0:	0200      	lsls	r0, r0, #8
700068d2:	a002      	add	r0, pc, #8	@ (adr r0, 0x700068dc)
700068d4:	b500      	push	{lr}
700068d6:	f000 fa3d 	bl	0x70006d54
700068da:	bd00      	pop	{pc}
700068dc:	b570      	push	{r4, r5, r6, lr}
700068de:	000c      	movs	r4, r1
700068e0:	0600      	lsls	r0, r0, #24
700068e2:	0e00      	lsrs	r0, r0, #24
700068e4:	2180      	movs	r1, #128	@ 0x80
700068e6:	4388      	bics	r0, r1
700068e8:	0746      	lsls	r6, r0, #29
700068ea:	08c5      	lsrs	r5, r0, #3
700068ec:	0f76      	lsrs	r6, r6, #29
700068ee:	f7fe eae0 	blx	0x70004eb0
700068f2:	4908      	ldr	r1, [pc, #32]	@ (0x70006914)
700068f4:	012a      	lsls	r2, r5, #4
700068f6:	1851      	adds	r1, r2, r1
700068f8:	680b      	ldr	r3, [r1, #0]
700068fa:	00b2      	lsls	r2, r6, #2
700068fc:	250f      	movs	r5, #15
700068fe:	4095      	lsls	r5, r2
70006900:	0724      	lsls	r4, r4, #28
70006902:	0f24      	lsrs	r4, r4, #28
70006904:	4094      	lsls	r4, r2
70006906:	43ab      	bics	r3, r5
70006908:	431c      	orrs	r4, r3
7000690a:	600c      	str	r4, [r1, #0]
7000690c:	f7fe eacc 	blx	0x70004ea8
70006910:	bd70      	pop	{r4, r5, r6, pc}
70006912:	0000      	movs	r0, r0
70006914:	0c00      	lsrs	r0, r0, #16
70006916:	a002      	add	r0, pc, #8	@ (adr r0, 0x70006920)
70006918:	0602      	lsls	r2, r0, #24
7000691a:	0e12      	lsrs	r2, r2, #24
7000691c:	2080      	movs	r0, #128	@ 0x80
7000691e:	4382      	bics	r2, r0
70006920:	0950      	lsrs	r0, r2, #5
70006922:	b510      	push	{r4, lr}
70006924:	06d2      	lsls	r2, r2, #27
70006926:	4c07      	ldr	r4, [pc, #28]	@ (0x70006944)
70006928:	0ed2      	lsrs	r2, r2, #27
7000692a:	2301      	movs	r3, #1
7000692c:	2900      	cmp	r1, #0
7000692e:	d004      	beq.n	0x7000693a
70006930:	4093      	lsls	r3, r2
70006932:	0100      	lsls	r0, r0, #4
70006934:	1900      	adds	r0, r0, r4
70006936:	6043      	str	r3, [r0, #4]
70006938:	bd10      	pop	{r4, pc}
7000693a:	4093      	lsls	r3, r2
7000693c:	0100      	lsls	r0, r0, #4
7000693e:	1900      	adds	r0, r0, r4
70006940:	6083      	str	r3, [r0, #8]
70006942:	bd10      	pop	{r4, pc}
70006944:	0500      	lsls	r0, r0, #20
70006946:	a002      	add	r0, pc, #8	@ (adr r0, 0x70006950)
70006948:	2280      	movs	r2, #128	@ 0x80
7000694a:	4390      	bics	r0, r2
7000694c:	0942      	lsrs	r2, r0, #5
7000694e:	b510      	push	{r4, lr}
70006950:	06c0      	lsls	r0, r0, #27
70006952:	4c07      	ldr	r4, [pc, #28]	@ (0x70006970)
70006954:	0ec0      	lsrs	r0, r0, #27
70006956:	2301      	movs	r3, #1
70006958:	2900      	cmp	r1, #0
7000695a:	d004      	beq.n	0x70006966
7000695c:	4083      	lsls	r3, r0
7000695e:	0110      	lsls	r0, r2, #4
70006960:	1900      	adds	r0, r0, r4
70006962:	6043      	str	r3, [r0, #4]
70006964:	bd10      	pop	{r4, pc}
70006966:	4083      	lsls	r3, r0
70006968:	0110      	lsls	r0, r2, #4
7000696a:	1900      	adds	r0, r0, r4
7000696c:	6083      	str	r3, [r0, #8]
7000696e:	bd10      	pop	{r4, pc}
70006970:	0100      	lsls	r0, r0, #4
70006972:	a002      	add	r0, pc, #8	@ (adr r0, 0x7000697c)
70006974:	b500      	push	{lr}
70006976:	f000 fa1d 	bl	0x70006db4
7000697a:	bd00      	pop	{pc}
7000697c:	2180      	movs	r1, #128	@ 0x80
7000697e:	4388      	bics	r0, r1
70006980:	0941      	lsrs	r1, r0, #5
70006982:	4a06      	ldr	r2, [pc, #24]	@ (0x7000699c)
70006984:	06c0      	lsls	r0, r0, #27
70006986:	0ec0      	lsrs	r0, r0, #27
70006988:	0109      	lsls	r1, r1, #4
7000698a:	1889      	adds	r1, r1, r2
7000698c:	680a      	ldr	r2, [r1, #0]
7000698e:	2101      	movs	r1, #1
70006990:	4081      	lsls	r1, r0
70006992:	4011      	ands	r1, r2
70006994:	40c1      	lsrs	r1, r0
70006996:	0608      	lsls	r0, r1, #24
70006998:	0e00      	lsrs	r0, r0, #24
7000699a:	4770      	bx	lr
7000699c:	0000      	movs	r0, r0
7000699e:	a002      	add	r0, pc, #8	@ (adr r0, 0x700069a8)
700069a0:	2180      	movs	r1, #128	@ 0x80
700069a2:	4388      	bics	r0, r1
700069a4:	0941      	lsrs	r1, r0, #5
700069a6:	4a06      	ldr	r2, [pc, #24]	@ (0x700069c0)
700069a8:	06c0      	lsls	r0, r0, #27
700069aa:	0ec0      	lsrs	r0, r0, #27
700069ac:	0109      	lsls	r1, r1, #4
700069ae:	1889      	adds	r1, r1, r2
700069b0:	680a      	ldr	r2, [r1, #0]
700069b2:	2101      	movs	r1, #1
700069b4:	4081      	lsls	r1, r0
700069b6:	4011      	ands	r1, r2
700069b8:	40c1      	lsrs	r1, r0
700069ba:	0608      	lsls	r0, r1, #24
700069bc:	0e00      	lsrs	r0, r0, #24
700069be:	4770      	bx	lr
700069c0:	0300      	lsls	r0, r0, #12
700069c2:	a002      	add	r0, pc, #8	@ (adr r0, 0x700069cc)
700069c4:	2180      	movs	r1, #128	@ 0x80
700069c6:	4388      	bics	r0, r1
700069c8:	08c1      	lsrs	r1, r0, #3
700069ca:	4a06      	ldr	r2, [pc, #24]	@ (0x700069e4)
700069cc:	0740      	lsls	r0, r0, #29
700069ce:	0109      	lsls	r1, r1, #4
700069d0:	1889      	adds	r1, r1, r2
700069d2:	680a      	ldr	r2, [r1, #0]
700069d4:	0ec0      	lsrs	r0, r0, #27
700069d6:	210f      	movs	r1, #15
700069d8:	4081      	lsls	r1, r0
700069da:	4011      	ands	r1, r2
700069dc:	40c1      	lsrs	r1, r0
700069de:	0608      	lsls	r0, r1, #24
700069e0:	0e00      	lsrs	r0, r0, #24
700069e2:	4770      	bx	lr
700069e4:	0c00      	lsrs	r0, r0, #16
700069e6:	a002      	add	r0, pc, #8	@ (adr r0, 0x700069f0)
700069e8:	b51f      	push	{r0, r1, r2, r3, r4, lr}
700069ea:	2200      	movs	r2, #0
700069ec:	9201      	str	r2, [sp, #4]
700069ee:	9202      	str	r2, [sp, #8]
700069f0:	9203      	str	r2, [sp, #12]
700069f2:	9200      	str	r2, [sp, #0]
700069f4:	4a03      	ldr	r2, [pc, #12]	@ (0x70006a04)
700069f6:	2300      	movs	r3, #0
700069f8:	a103      	add	r1, pc, #12	@ (adr r1, 0x70006a08)
700069fa:	a00a      	add	r0, pc, #40	@ (adr r0, 0x70006a24)
700069fc:	f7fe ffd4 	bl	0x700059a8
70006a00:	bd1f      	pop	{r0, r1, r2, r3, r4, pc}
70006a02:	0000      	movs	r0, r0
70006a04:	0609      	lsls	r1, r1, #24
70006a06:	0000      	movs	r0, r0
70006a08:	6168      	str	r0, [r5, #20]
70006a0a:	5c6c      	ldrb	r4, [r5, r1]
70006a0c:	6570      	str	r0, [r6, #84]	@ 0x54
70006a0e:	6972      	ldr	r2, [r6, #20]
70006a10:	6870      	ldr	r0, [r6, #4]
70006a12:	7265      	strb	r5, [r4, #9]
70006a14:	6c61      	ldr	r1, [r4, #68]	@ 0x44
70006a16:	735c      	strb	r4, [r3, #13]
70006a18:	6372      	str	r2, [r6, #52]	@ 0x34
70006a1a:	675c      	str	r4, [r3, #116]	@ 0x74
70006a1c:	6970      	ldr	r0, [r6, #20]
70006a1e:	2e6f      	cmp	r6, #111	@ 0x6f
70006a20:	0063      	lsls	r3, r4, #1
70006a22:	0000      	movs	r0, r0
70006a24:	0030      	movs	r0, r6
70006a26:	0000      	movs	r0, r0
70006a28:	b570      	push	{r4, r5, r6, lr}
70006a2a:	000d      	movs	r5, r1
70006a2c:	2805      	cmp	r0, #5
70006a2e:	d812      	bhi.n	0x70006a56
70006a30:	2d83      	cmp	r5, #131	@ 0x83
70006a32:	d210      	bcs.n	0x70006a56
70006a34:	0004      	movs	r4, r0
70006a36:	f7fe ea3c 	blx	0x70004eb0
70006a3a:	0001      	movs	r1, r0
70006a3c:	4806      	ldr	r0, [pc, #24]	@ (0x70006a58)
70006a3e:	0122      	lsls	r2, r4, #4
70006a40:	1810      	adds	r0, r2, r0
70006a42:	6802      	ldr	r2, [r0, #0]
70006a44:	072b      	lsls	r3, r5, #28
70006a46:	0912      	lsrs	r2, r2, #4
70006a48:	0112      	lsls	r2, r2, #4
70006a4a:	0f1b      	lsrs	r3, r3, #28
70006a4c:	4313      	orrs	r3, r2
70006a4e:	6003      	str	r3, [r0, #0]
70006a50:	0008      	movs	r0, r1
70006a52:	f7fe ea2a 	blx	0x70004ea8
70006a56:	bd70      	pop	{r4, r5, r6, pc}
70006a58:	0e00      	lsrs	r0, r0, #24
70006a5a:	a002      	add	r0, pc, #8	@ (adr r0, 0x70006a64)
70006a5c:	4770      	bx	lr
70006a5e:	4770      	bx	lr
70006a60:	b5f8      	push	{r3, r4, r5, r6, r7, lr}
70006a62:	000f      	movs	r7, r1
70006a64:	2180      	movs	r1, #128	@ 0x80
70006a66:	0014      	movs	r4, r2
70006a68:	001e      	movs	r6, r3
70006a6a:	4388      	bics	r0, r1
70006a6c:	f000 fa34 	bl	0x70006ed8
70006a70:	06c1      	lsls	r1, r0, #27
70006a72:	0942      	lsrs	r2, r0, #5
70006a74:	4d14      	ldr	r5, [pc, #80]	@ (0x70006ac8)
70006a76:	0ec9      	lsrs	r1, r1, #27
70006a78:	2001      	movs	r0, #1
70006a7a:	2c00      	cmp	r4, #0
70006a7c:	d005      	beq.n	0x70006a8a
70006a7e:	0004      	movs	r4, r0
70006a80:	408c      	lsls	r4, r1
70006a82:	0113      	lsls	r3, r2, #4
70006a84:	195b      	adds	r3, r3, r5
70006a86:	605c      	str	r4, [r3, #4]
70006a88:	e004      	b.n	0x70006a94
70006a8a:	0004      	movs	r4, r0
70006a8c:	408c      	lsls	r4, r1
70006a8e:	0113      	lsls	r3, r2, #4
70006a90:	195b      	adds	r3, r3, r5
70006a92:	609c      	str	r4, [r3, #8]
70006a94:	2e00      	cmp	r6, #0
70006a96:	d005      	beq.n	0x70006aa4
70006a98:	0004      	movs	r4, r0
70006a9a:	408c      	lsls	r4, r1
70006a9c:	0113      	lsls	r3, r2, #4
70006a9e:	195b      	adds	r3, r3, r5
70006aa0:	625c      	str	r4, [r3, #36]	@ 0x24
70006aa2:	e004      	b.n	0x70006aae
70006aa4:	0004      	movs	r4, r0
70006aa6:	408c      	lsls	r4, r1
70006aa8:	0113      	lsls	r3, r2, #4
70006aaa:	195b      	adds	r3, r3, r5
70006aac:	629c      	str	r4, [r3, #40]	@ 0x28
70006aae:	4b07      	ldr	r3, [pc, #28]	@ (0x70006acc)
70006ab0:	2f00      	cmp	r7, #0
70006ab2:	d004      	beq.n	0x70006abe
70006ab4:	4088      	lsls	r0, r1
70006ab6:	0111      	lsls	r1, r2, #4
70006ab8:	18c9      	adds	r1, r1, r3
70006aba:	6088      	str	r0, [r1, #8]
70006abc:	bdf8      	pop	{r3, r4, r5, r6, r7, pc}
70006abe:	4088      	lsls	r0, r1
70006ac0:	0111      	lsls	r1, r2, #4
70006ac2:	18c9      	adds	r1, r1, r3
70006ac4:	6048      	str	r0, [r1, #4]
70006ac6:	bdf8      	pop	{r3, r4, r5, r6, r7, pc}
70006ac8:	0b00      	lsrs	r0, r0, #12
70006aca:	a002      	add	r0, pc, #8	@ (adr r0, 0x70006ad4)
70006acc:	0a00      	lsrs	r0, r0, #8
70006ace:	a002      	add	r0, pc, #8	@ (adr r0, 0x70006ad8)
70006ad0:	2001      	movs	r0, #1
70006ad2:	0580      	lsls	r0, r0, #22
70006ad4:	4770      	bx	lr
70006ad6:	b5f8      	push	{r3, r4, r5, r6, r7, lr}
70006ad8:	0005      	movs	r5, r0
70006ada:	000c      	movs	r4, r1
70006adc:	0017      	movs	r7, r2
70006ade:	001e      	movs	r6, r3
70006ae0:	f7fe ee14 	blx	0x7000570c
70006ae4:	4284      	cmp	r4, r0
70006ae6:	d202      	bcs.n	0x70006aee
70006ae8:	19a1      	adds	r1, r4, r6
70006aea:	4281      	cmp	r1, r0
70006aec:	d901      	bls.n	0x70006af2
70006aee:	2002      	movs	r0, #2
70006af0:	bdf8      	pop	{r3, r4, r5, r6, r7, pc}
70006af2:	0028      	movs	r0, r5
70006af4:	3008      	adds	r0, #8
70006af6:	f7fe ee0a 	blx	0x7000570c
70006afa:	6840      	ldr	r0, [r0, #4]
70006afc:	1904      	adds	r4, r0, r4
70006afe:	207e      	movs	r0, #126	@ 0x7e
70006b00:	5d40      	ldrb	r0, [r0, r5]
70006b02:	2800      	cmp	r0, #0
70006b04:	d102      	bne.n	0x70006b0c
70006b06:	0028      	movs	r0, r5
70006b08:	f000 f9aa 	bl	0x70006e60
70006b0c:	0032      	movs	r2, r6
70006b0e:	0021      	movs	r1, r4
70006b10:	0038      	movs	r0, r7
70006b12:	f001 e82e 	blx	0x70007b70
70006b16:	2000      	movs	r0, #0
70006b18:	bdf8      	pop	{r3, r4, r5, r6, r7, pc}
70006b1a:	0000      	movs	r0, r0
70006b1c:	b5f0      	push	{r4, r5, r6, r7, lr}
70006b1e:	2000      	movs	r0, #0
70006b20:	b085      	sub	sp, #20
70006b22:	f000 fa0f 	bl	0x70006f44
70006b26:	4c31      	ldr	r4, [pc, #196]	@ (0x70006bec)
70006b28:	2388      	movs	r3, #136	@ 0x88
70006b2a:	6860      	ldr	r0, [r4, #4]
70006b2c:	6821      	ldr	r1, [r4, #0]
70006b2e:	4358      	muls	r0, r3
70006b30:	2240      	movs	r2, #64	@ 0x40
70006b32:	1841      	adds	r1, r0, r1
70006b34:	8848      	ldrh	r0, [r1, #2]
70006b36:	6120      	str	r0, [r4, #16]
70006b38:	0008      	movs	r0, r1
70006b3a:	3008      	adds	r0, #8
70006b3c:	60e0      	str	r0, [r4, #12]
70006b3e:	0020      	movs	r0, r4
70006b40:	3148      	adds	r1, #72	@ 0x48
70006b42:	301c      	adds	r0, #28
70006b44:	f001 e814 	blx	0x70007b70
70006b48:	4829      	ldr	r0, [pc, #164]	@ (0x70006bf0)
70006b4a:	0021      	movs	r1, r4
70006b4c:	3114      	adds	r1, #20
70006b4e:	62c1      	str	r1, [r0, #44]	@ 0x2c
70006b50:	4f28      	ldr	r7, [pc, #160]	@ (0x70006bf4)
70006b52:	3184      	adds	r1, #132	@ 0x84
70006b54:	6301      	str	r1, [r0, #48]	@ 0x30
70006b56:	2600      	movs	r6, #0
70006b58:	3040      	adds	r0, #64	@ 0x40
70006b5a:	003d      	movs	r5, r7
70006b5c:	80c6      	strh	r6, [r0, #6]
70006b5e:	43f8      	mvns	r0, r7
70006b60:	35c0      	adds	r5, #192	@ 0xc0
70006b62:	6028      	str	r0, [r5, #0]
70006b64:	f000 fa24 	bl	0x70006fb0
70006b68:	2800      	cmp	r0, #0
70006b6a:	d003      	beq.n	0x70006b74
70006b6c:	2001      	movs	r0, #1
70006b6e:	0700      	lsls	r0, r0, #28
70006b70:	6068      	str	r0, [r5, #4]
70006b72:	e000      	b.n	0x70006b76
70006b74:	606e      	str	r6, [r5, #4]
70006b76:	6860      	ldr	r0, [r4, #4]
70006b78:	2388      	movs	r3, #136	@ 0x88
70006b7a:	4358      	muls	r0, r3
70006b7c:	6821      	ldr	r1, [r4, #0]
70006b7e:	686a      	ldr	r2, [r5, #4]
70006b80:	1840      	adds	r0, r0, r1
70006b82:	6843      	ldr	r3, [r0, #4]
70006b84:	491a      	ldr	r1, [pc, #104]	@ (0x70006bf0)
70006b86:	4819      	ldr	r0, [pc, #100]	@ (0x70006bec)
70006b88:	3980      	subs	r1, #128	@ 0x80
70006b8a:	305c      	adds	r0, #92	@ 0x5c
70006b8c:	f7fe fba5 	bl	0x700052da
70006b90:	3078      	adds	r0, #120	@ 0x78
70006b92:	d10a      	bne.n	0x70006baa
70006b94:	2200      	movs	r2, #0
70006b96:	9201      	str	r2, [sp, #4]
70006b98:	9202      	str	r2, [sp, #8]
70006b9a:	9203      	str	r2, [sp, #12]
70006b9c:	9200      	str	r2, [sp, #0]
70006b9e:	4a16      	ldr	r2, [pc, #88]	@ (0x70006bf8)
70006ba0:	2300      	movs	r3, #0
70006ba2:	a116      	add	r1, pc, #88	@ (adr r1, 0x70006bfc)
70006ba4:	a01e      	add	r0, pc, #120	@ (adr r0, 0x70006c20)
70006ba6:	f7fe feff 	bl	0x700059a8
70006baa:	4810      	ldr	r0, [pc, #64]	@ (0x70006bec)
70006bac:	301c      	adds	r0, #28
70006bae:	f7fe f8d1 	bl	0x70004d54
70006bb2:	4910      	ldr	r1, [pc, #64]	@ (0x70006bf4)
70006bb4:	3140      	adds	r1, #64	@ 0x40
70006bb6:	f7fe ed9a 	blx	0x700056ec
70006bba:	0001      	movs	r1, r0
70006bbc:	4a0d      	ldr	r2, [pc, #52]	@ (0x70006bf4)
70006bbe:	2000      	movs	r0, #0
70006bc0:	f7fe f8ff 	bl	0x70004dc2
70006bc4:	490b      	ldr	r1, [pc, #44]	@ (0x70006bf4)
70006bc6:	4809      	ldr	r0, [pc, #36]	@ (0x70006bec)
70006bc8:	3144      	adds	r1, #68	@ 0x44
70006bca:	305c      	adds	r0, #92	@ 0x5c
70006bcc:	616f      	str	r7, [r5, #20]
70006bce:	f7fe ed8e 	blx	0x700056ec
70006bd2:	4908      	ldr	r1, [pc, #32]	@ (0x70006bf4)
70006bd4:	3148      	adds	r1, #72	@ 0x48
70006bd6:	0008      	movs	r0, r1
70006bd8:	3078      	adds	r0, #120	@ 0x78
70006bda:	f7fe ed88 	blx	0x700056ec
70006bde:	4804      	ldr	r0, [pc, #16]	@ (0x70006bf0)
70006be0:	38a0      	subs	r0, #160	@ 0xa0
70006be2:	7786      	strb	r6, [r0, #30]
70006be4:	2000      	movs	r0, #0
70006be6:	b005      	add	sp, #20
70006be8:	bdf0      	pop	{r4, r5, r6, r7, pc}
70006bea:	0000      	movs	r0, r0
70006bec:	2acc      	cmp	r2, #204	@ 0xcc
70006bee:	0001      	movs	r1, r0
70006bf0:	2e64      	cmp	r6, #100	@ 0x64
70006bf2:	0001      	movs	r1, r0
70006bf4:	2d24      	cmp	r5, #36	@ 0x24
70006bf6:	0001      	movs	r1, r0
70006bf8:	07b3      	lsls	r3, r6, #30
70006bfa:	0000      	movs	r0, r0
70006bfc:	7563      	strb	r3, [r4, #21]
70006bfe:	7473      	strb	r3, [r6, #17]
70006c00:	6d6f      	ldr	r7, [r5, #84]	@ 0x54
70006c02:	635c      	str	r4, [r3, #52]	@ 0x34
70006c04:	6d6f      	ldr	r7, [r5, #84]	@ 0x54
70006c06:	6f6d      	ldr	r5, [r5, #116]	@ 0x74
70006c08:	5c6e      	ldrb	r6, [r5, r1]
70006c0a:	6168      	str	r0, [r5, #20]
70006c0c:	5c6c      	ldrb	r4, [r5, r1]
70006c0e:	6f63      	ldr	r3, [r4, #116]	@ 0x74
70006c10:	626d      	str	r5, [r5, #36]	@ 0x24
70006c12:	5f6f      	ldrsh	r7, [r5, r5]
70006c14:	6c66      	ldr	r6, [r4, #68]	@ 0x44
70006c16:	7361      	strb	r1, [r4, #13]
70006c18:	5f68      	ldrsh	r0, [r5, r5]
70006c1a:	6f6e      	ldr	r6, [r5, #116]	@ 0x74
70006c1c:	2e72      	cmp	r6, #114	@ 0x72
70006c1e:	0063      	lsls	r3, r4, #1
70006c20:	6572      	str	r2, [r6, #84]	@ 0x54
70006c22:	7573      	strb	r3, [r6, #21]
70006c24:	746c      	strb	r4, [r5, #17]
70006c26:	3d21      	subs	r5, #33	@ 0x21
70006c28:	5346      	strh	r6, [r0, r5]
70006c2a:	465f      	mov	r7, fp
70006c2c:	414c      	adcs	r4, r1
70006c2e:	4853      	ldr	r0, [pc, #332]	@ (0x70006d7c)
70006c30:	4d5f      	ldr	r5, [pc, #380]	@ (0x70006db0)
70006c32:	554f      	strb	r7, [r1, r5]
70006c34:	544e      	strb	r6, [r1, r1]
70006c36:	455f      	cmp	r7, fp
70006c38:	5252      	strh	r2, [r2, r1]
70006c3a:	524f      	strh	r7, [r1, r1]
70006c3c:	0000      	movs	r0, r0
70006c3e:	0000      	movs	r0, r0
70006c40:	b51f      	push	{r0, r1, r2, r3, r4, lr}
70006c42:	0040      	lsls	r0, r0, #1
70006c44:	d40e      	bmi.n	0x70006c64
70006c46:	2200      	movs	r2, #0
70006c48:	9201      	str	r2, [sp, #4]
70006c4a:	9202      	str	r2, [sp, #8]
70006c4c:	9203      	str	r2, [sp, #12]
70006c4e:	9200      	str	r2, [sp, #0]
70006c50:	4a15      	ldr	r2, [pc, #84]	@ (0x70006ca8)
70006c52:	2300      	movs	r3, #0
70006c54:	a115      	add	r1, pc, #84	@ (adr r1, 0x70006cac)
70006c56:	a01d      	add	r0, pc, #116	@ (adr r0, 0x70006ccc)
70006c58:	f7fe fea6 	bl	0x700059a8
70006c5c:	2005      	movs	r0, #5
70006c5e:	43c0      	mvns	r0, r0
70006c60:	b004      	add	sp, #16
70006c62:	bd10      	pop	{r4, pc}
70006c64:	481a      	ldr	r0, [pc, #104]	@ (0x70006cd0)
70006c66:	6800      	ldr	r0, [r0, #0]
70006c68:	2800      	cmp	r0, #0
70006c6a:	d10e      	bne.n	0x70006c8a
70006c6c:	2200      	movs	r2, #0
70006c6e:	9201      	str	r2, [sp, #4]
70006c70:	9202      	str	r2, [sp, #8]
70006c72:	9203      	str	r2, [sp, #12]
70006c74:	9200      	str	r2, [sp, #0]
70006c76:	4a0c      	ldr	r2, [pc, #48]	@ (0x70006ca8)
70006c78:	2300      	movs	r3, #0
70006c7a:	1d92      	adds	r2, r2, #6
70006c7c:	a10b      	add	r1, pc, #44	@ (adr r1, 0x70006cac)
70006c7e:	a013      	add	r0, pc, #76	@ (adr r0, 0x70006ccc)
70006c80:	f7fe fe92 	bl	0x700059a8
70006c84:	2003      	movs	r0, #3
70006c86:	43c0      	mvns	r0, r0
70006c88:	e7ea      	b.n	0x70006c60
70006c8a:	4a11      	ldr	r2, [pc, #68]	@ (0x70006cd0)
70006c8c:	2000      	movs	r0, #0
70006c8e:	0001      	movs	r1, r0
70006c90:	1d12      	adds	r2, r2, #4
70006c92:	0083      	lsls	r3, r0, #2
70006c94:	1c40      	adds	r0, r0, #1
70006c96:	2820      	cmp	r0, #32
70006c98:	50d1      	str	r1, [r2, r3]
70006c9a:	d3fa      	bcc.n	0x70006c92
70006c9c:	f7fe e908 	blx	0x70004eb0
70006ca0:	f7fe e902 	blx	0x70004ea8
70006ca4:	2000      	movs	r0, #0
70006ca6:	e7db      	b.n	0x70006c60
70006ca8:	03cb      	lsls	r3, r1, #15
70006caa:	0000      	movs	r0, r0
70006cac:	6168      	str	r0, [r5, #20]
70006cae:	5c6c      	ldrb	r4, [r5, r1]
70006cb0:	6570      	str	r0, [r6, #84]	@ 0x54
70006cb2:	6972      	ldr	r2, [r6, #20]
70006cb4:	6870      	ldr	r0, [r6, #4]
70006cb6:	7265      	strb	r5, [r4, #9]
70006cb8:	6c61      	ldr	r1, [r4, #68]	@ 0x44
70006cba:	735c      	strb	r4, [r3, #13]
70006cbc:	6372      	str	r2, [r6, #52]	@ 0x34
70006cbe:	645c      	str	r4, [r3, #68]	@ 0x44
70006cc0:	6c63      	ldr	r3, [r4, #68]	@ 0x44
70006cc2:	725f      	strb	r7, [r3, #9]
70006cc4:	6374      	str	r4, [r6, #52]	@ 0x34
70006cc6:	632e      	str	r6, [r5, #48]	@ 0x30
70006cc8:	0000      	movs	r0, r0
70006cca:	0000      	movs	r0, r0
70006ccc:	0030      	movs	r0, r6
70006cce:	0000      	movs	r0, r0
70006cd0:	2f10      	cmp	r7, #16
70006cd2:	0001      	movs	r1, r0
70006cd4:	b57f      	push	{r0, r1, r2, r3, r4, r5, r6, lr}
70006cd6:	4913      	ldr	r1, [pc, #76]	@ (0x70006d24)
70006cd8:	2500      	movs	r5, #0
70006cda:	43ed      	mvns	r5, r5
70006cdc:	4288      	cmp	r0, r1
70006cde:	d006      	beq.n	0x70006cee
70006ce0:	2200      	movs	r2, #0
70006ce2:	9201      	str	r2, [sp, #4]
70006ce4:	9202      	str	r2, [sp, #8]
70006ce6:	9203      	str	r2, [sp, #12]
70006ce8:	9200      	str	r2, [sp, #0]
70006cea:	22d9      	movs	r2, #217	@ 0xd9
70006cec:	e009      	b.n	0x70006d02
70006cee:	4c0e      	ldr	r4, [pc, #56]	@ (0x70006d28)
70006cf0:	6820      	ldr	r0, [r4, #0]
70006cf2:	2802      	cmp	r0, #2
70006cf4:	d30d      	bcc.n	0x70006d12
70006cf6:	2200      	movs	r2, #0
70006cf8:	9201      	str	r2, [sp, #4]
70006cfa:	9202      	str	r2, [sp, #8]
70006cfc:	9203      	str	r2, [sp, #12]
70006cfe:	9200      	str	r2, [sp, #0]
70006d00:	22df      	movs	r2, #223	@ 0xdf
70006d02:	2300      	movs	r3, #0
70006d04:	a109      	add	r1, pc, #36	@ (adr r1, 0x70006d2c)
70006d06:	a011      	add	r0, pc, #68	@ (adr r0, 0x70006d4c)
70006d08:	f7fe fe4e 	bl	0x700059a8
70006d0c:	0028      	movs	r0, r5
70006d0e:	b004      	add	sp, #16
70006d10:	bd70      	pop	{r4, r5, r6, pc}
70006d12:	f7fe e8ce 	blx	0x70004eb0
70006d16:	2101      	movs	r1, #1
70006d18:	6021      	str	r1, [r4, #0]
70006d1a:	4c0d      	ldr	r4, [pc, #52]	@ (0x70006d50)
70006d1c:	f7fe e8c4 	blx	0x70004ea8
70006d20:	0020      	movs	r0, r4
70006d22:	e7f4      	b.n	0x70006d0e
70006d24:	0a01      	lsrs	r1, r0, #8
70006d26:	0000      	movs	r0, r0
70006d28:	2f10      	cmp	r7, #16
70006d2a:	0001      	movs	r1, r0
70006d2c:	6168      	str	r0, [r5, #20]
70006d2e:	5c6c      	ldrb	r4, [r5, r1]
70006d30:	6570      	str	r0, [r6, #84]	@ 0x54
70006d32:	6972      	ldr	r2, [r6, #20]
70006d34:	6870      	ldr	r0, [r6, #4]
70006d36:	7265      	strb	r5, [r4, #9]
70006d38:	6c61      	ldr	r1, [r4, #68]	@ 0x44
70006d3a:	735c      	strb	r4, [r3, #13]
70006d3c:	6372      	str	r2, [r6, #52]	@ 0x34
70006d3e:	645c      	str	r4, [r3, #68]	@ 0x44
70006d40:	6c63      	ldr	r3, [r4, #68]	@ 0x44
70006d42:	725f      	strb	r7, [r3, #9]
70006d44:	6374      	str	r4, [r6, #52]	@ 0x34
70006d46:	632e      	str	r6, [r5, #48]	@ 0x30
70006d48:	0000      	movs	r0, r0
70006d4a:	0000      	movs	r0, r0
70006d4c:	0030      	movs	r0, r6
70006d4e:	0000      	movs	r0, r0
70006d50:	0001      	movs	r1, r0
70006d52:	4000      	ands	r0, r0
70006d54:	b5f0      	push	{r4, r5, r6, r7, lr}
70006d56:	2280      	movs	r2, #128	@ 0x80
70006d58:	4391      	bics	r1, r2
70006d5a:	4a12      	ldr	r2, [pc, #72]	@ (0x70006da4)
70006d5c:	2401      	movs	r4, #1
70006d5e:	7812      	ldrb	r2, [r2, #0]
70006d60:	2a01      	cmp	r2, #1
70006d62:	d10e      	bne.n	0x70006d82
70006d64:	060a      	lsls	r2, r1, #24
70006d66:	0f52      	lsrs	r2, r2, #29
70006d68:	0092      	lsls	r2, r2, #2
70006d6a:	4e0f      	ldr	r6, [pc, #60]	@ (0x70006da8)
70006d6c:	06cf      	lsls	r7, r1, #27
70006d6e:	0eff      	lsrs	r7, r7, #27
70006d70:	0023      	movs	r3, r4
70006d72:	58b5      	ldr	r5, [r6, r2]
70006d74:	40bb      	lsls	r3, r7
70006d76:	431d      	orrs	r5, r3
70006d78:	50b5      	str	r5, [r6, r2]
70006d7a:	4e0c      	ldr	r6, [pc, #48]	@ (0x70006dac)
70006d7c:	58b5      	ldr	r5, [r6, r2]
70006d7e:	431d      	orrs	r5, r3
70006d80:	50b5      	str	r5, [r6, r2]
70006d82:	094a      	lsrs	r2, r1, #5
70006d84:	06c9      	lsls	r1, r1, #27
70006d86:	4b0a      	ldr	r3, [pc, #40]	@ (0x70006db0)
70006d88:	0ec9      	lsrs	r1, r1, #27
70006d8a:	2801      	cmp	r0, #1
70006d8c:	d104      	bne.n	0x70006d98
70006d8e:	408c      	lsls	r4, r1
70006d90:	0110      	lsls	r0, r2, #4
70006d92:	18c0      	adds	r0, r0, r3
70006d94:	6044      	str	r4, [r0, #4]
70006d96:	bdf0      	pop	{r4, r5, r6, r7, pc}
70006d98:	408c      	lsls	r4, r1
70006d9a:	0110      	lsls	r0, r2, #4
70006d9c:	18c0      	adds	r0, r0, r3
70006d9e:	6084      	str	r4, [r0, #8]
70006da0:	bdf0      	pop	{r4, r5, r6, r7, pc}
70006da2:	0000      	movs	r0, r0
70006da4:	2faa      	cmp	r7, #170	@ 0xaa
70006da6:	0001      	movs	r1, r0
70006da8:	2080      	movs	r0, #128	@ 0x80
70006daa:	0001      	movs	r1, r0
70006dac:	2088      	movs	r0, #136	@ 0x88
70006dae:	0001      	movs	r1, r0
70006db0:	0000      	movs	r0, r0
70006db2:	a002      	add	r0, pc, #8	@ (adr r0, 0x70006dbc)
70006db4:	2180      	movs	r1, #128	@ 0x80
70006db6:	b570      	push	{r4, r5, r6, lr}
70006db8:	4388      	bics	r0, r1
70006dba:	4910      	ldr	r1, [pc, #64]	@ (0x70006dfc)
70006dbc:	2401      	movs	r4, #1
70006dbe:	7809      	ldrb	r1, [r1, #0]
70006dc0:	2901      	cmp	r1, #1
70006dc2:	d10d      	bne.n	0x70006de0
70006dc4:	0601      	lsls	r1, r0, #24
70006dc6:	0f49      	lsrs	r1, r1, #29
70006dc8:	008b      	lsls	r3, r1, #2
70006dca:	4d0d      	ldr	r5, [pc, #52]	@ (0x70006e00)
70006dcc:	06c6      	lsls	r6, r0, #27
70006dce:	0ef6      	lsrs	r6, r6, #27
70006dd0:	0021      	movs	r1, r4
70006dd2:	58ea      	ldr	r2, [r5, r3]
70006dd4:	40b1      	lsls	r1, r6
70006dd6:	0016      	movs	r6, r2
70006dd8:	420e      	tst	r6, r1
70006dda:	d001      	beq.n	0x70006de0
70006ddc:	438a      	bics	r2, r1
70006dde:	50ea      	str	r2, [r5, r3]
70006de0:	0941      	lsrs	r1, r0, #5
70006de2:	4a08      	ldr	r2, [pc, #32]	@ (0x70006e04)
70006de4:	06c0      	lsls	r0, r0, #27
70006de6:	0ec0      	lsrs	r0, r0, #27
70006de8:	0109      	lsls	r1, r1, #4
70006dea:	1889      	adds	r1, r1, r2
70006dec:	6809      	ldr	r1, [r1, #0]
70006dee:	4084      	lsls	r4, r0
70006df0:	400c      	ands	r4, r1
70006df2:	40c4      	lsrs	r4, r0
70006df4:	0620      	lsls	r0, r4, #24
70006df6:	0e00      	lsrs	r0, r0, #24
70006df8:	bd70      	pop	{r4, r5, r6, pc}
70006dfa:	0000      	movs	r0, r0
70006dfc:	2faa      	cmp	r7, #170	@ 0xaa
70006dfe:	0001      	movs	r1, r0
70006e00:	2088      	movs	r0, #136	@ 0x88
70006e02:	0001      	movs	r1, r0
70006e04:	0400      	lsls	r0, r0, #16
70006e06:	a002      	add	r0, pc, #8	@ (adr r0, 0x70006e10)
70006e08:	b5f0      	push	{r4, r5, r6, r7, lr}
70006e0a:	2280      	movs	r2, #128	@ 0x80
70006e0c:	4391      	bics	r1, r2
70006e0e:	4a11      	ldr	r2, [pc, #68]	@ (0x70006e54)
70006e10:	2501      	movs	r5, #1
70006e12:	7812      	ldrb	r2, [r2, #0]
70006e14:	2a01      	cmp	r2, #1
70006e16:	d10d      	bne.n	0x70006e34
70006e18:	060a      	lsls	r2, r1, #24
70006e1a:	0f52      	lsrs	r2, r2, #29
70006e1c:	0094      	lsls	r4, r2, #2
70006e1e:	4e0e      	ldr	r6, [pc, #56]	@ (0x70006e58)
70006e20:	06cf      	lsls	r7, r1, #27
70006e22:	0eff      	lsrs	r7, r7, #27
70006e24:	002b      	movs	r3, r5
70006e26:	5932      	ldr	r2, [r6, r4]
70006e28:	40bb      	lsls	r3, r7
70006e2a:	0017      	movs	r7, r2
70006e2c:	421f      	tst	r7, r3
70006e2e:	d001      	beq.n	0x70006e34
70006e30:	439a      	bics	r2, r3
70006e32:	5132      	str	r2, [r6, r4]
70006e34:	094a      	lsrs	r2, r1, #5
70006e36:	06c9      	lsls	r1, r1, #27
70006e38:	4b08      	ldr	r3, [pc, #32]	@ (0x70006e5c)
70006e3a:	0ec9      	lsrs	r1, r1, #27
70006e3c:	2801      	cmp	r0, #1
70006e3e:	d104      	bne.n	0x70006e4a
70006e40:	408d      	lsls	r5, r1
70006e42:	0110      	lsls	r0, r2, #4
70006e44:	18c0      	adds	r0, r0, r3
70006e46:	6045      	str	r5, [r0, #4]
70006e48:	bdf0      	pop	{r4, r5, r6, r7, pc}
70006e4a:	408d      	lsls	r5, r1
70006e4c:	0110      	lsls	r0, r2, #4
70006e4e:	18c0      	adds	r0, r0, r3
70006e50:	6085      	str	r5, [r0, #8]
70006e52:	bdf0      	pop	{r4, r5, r6, r7, pc}
70006e54:	2faa      	cmp	r7, #170	@ 0xaa
70006e56:	0001      	movs	r1, r0
70006e58:	2080      	movs	r0, #128	@ 0x80
70006e5a:	0001      	movs	r1, r0
70006e5c:	0300      	lsls	r0, r0, #12
70006e5e:	a002      	add	r0, pc, #8	@ (adr r0, 0x70006e68)
70006e60:	b57f      	push	{r0, r1, r2, r3, r4, r5, r6, lr}
70006e62:	0004      	movs	r4, r0
70006e64:	3060      	adds	r0, #96	@ 0x60
70006e66:	0005      	movs	r5, r0
70006e68:	7f80      	ldrb	r0, [r0, #30]
70006e6a:	2800      	cmp	r0, #0
70006e6c:	d11b      	bne.n	0x70006ea6
70006e6e:	0020      	movs	r0, r4
70006e70:	3008      	adds	r0, #8
70006e72:	f7fe ec4c 	blx	0x7000570c
70006e76:	0006      	movs	r6, r0
70006e78:	1d20      	adds	r0, r4, #4
70006e7a:	f7fe ec48 	blx	0x7000570c
70006e7e:	0021      	movs	r1, r4
70006e80:	6802      	ldr	r2, [r0, #0]
70006e82:	310c      	adds	r1, #12
70006e84:	0030      	movs	r0, r6
70006e86:	4790      	blx	r2
70006e88:	2800      	cmp	r0, #0
70006e8a:	da0a      	bge.n	0x70006ea2
70006e8c:	2200      	movs	r2, #0
70006e8e:	9201      	str	r2, [sp, #4]
70006e90:	9202      	str	r2, [sp, #8]
70006e92:	9203      	str	r2, [sp, #12]
70006e94:	9200      	str	r2, [sp, #0]
70006e96:	4a04      	ldr	r2, [pc, #16]	@ (0x70006ea8)
70006e98:	2300      	movs	r3, #0
70006e9a:	a104      	add	r1, pc, #16	@ (adr r1, 0x70006eac)
70006e9c:	a00d      	add	r0, pc, #52	@ (adr r0, 0x70006ed4)
70006e9e:	f7fe fd83 	bl	0x700059a8
70006ea2:	2001      	movs	r0, #1
70006ea4:	77a8      	strb	r0, [r5, #30]
70006ea6:	bd7f      	pop	{r0, r1, r2, r3, r4, r5, r6, pc}
70006ea8:	02ee      	lsls	r6, r5, #11
70006eaa:	0000      	movs	r0, r0
70006eac:	6168      	str	r0, [r5, #20]
70006eae:	5c6c      	ldrb	r4, [r5, r1]
70006eb0:	7473      	strb	r3, [r6, #17]
70006eb2:	726f      	strb	r7, [r5, #9]
70006eb4:	6761      	str	r1, [r4, #116]	@ 0x74
70006eb6:	5c65      	ldrb	r5, [r4, r1]
70006eb8:	6c66      	ldr	r6, [r4, #68]	@ 0x44
70006eba:	7361      	strb	r1, [r4, #13]
70006ebc:	5c68      	ldrb	r0, [r5, r1]
70006ebe:	746d      	strb	r5, [r5, #17]
70006ec0:	5c64      	ldrb	r4, [r4, r1]
70006ec2:	7273      	strb	r3, [r6, #9]
70006ec4:	5c63      	ldrb	r3, [r4, r1]
70006ec6:	6c66      	ldr	r6, [r4, #68]	@ 0x44
70006ec8:	7361      	strb	r1, [r4, #13]
70006eca:	5f68      	ldrsh	r0, [r5, r5]
70006ecc:	6964      	ldr	r4, [r4, #20]
70006ece:	6b73      	ldr	r3, [r6, #52]	@ 0x34
70006ed0:	632e      	str	r6, [r5, #48]	@ 0x30
70006ed2:	0000      	movs	r0, r0
70006ed4:	0030      	movs	r0, r6
70006ed6:	0000      	movs	r0, r0
70006ed8:	b51f      	push	{r0, r1, r2, r3, r4, lr}
70006eda:	4b10      	ldr	r3, [pc, #64]	@ (0x70006f1c)
70006edc:	4a10      	ldr	r2, [pc, #64]	@ (0x70006f20)
70006ede:	2100      	movs	r1, #0
70006ee0:	8019      	strh	r1, [r3, #0]
70006ee2:	8819      	ldrh	r1, [r3, #0]
70006ee4:	004c      	lsls	r4, r1, #1
70006ee6:	5b14      	ldrh	r4, [r2, r4]
70006ee8:	4284      	cmp	r4, r0
70006eea:	d102      	bne.n	0x70006ef2
70006eec:	8818      	ldrh	r0, [r3, #0]
70006eee:	b004      	add	sp, #16
70006ef0:	bd10      	pop	{r4, pc}
70006ef2:	1c49      	adds	r1, r1, #1
70006ef4:	0409      	lsls	r1, r1, #16
70006ef6:	0c09      	lsrs	r1, r1, #16
70006ef8:	2934      	cmp	r1, #52	@ 0x34
70006efa:	8019      	strh	r1, [r3, #0]
70006efc:	d3f1      	bcc.n	0x70006ee2
70006efe:	2200      	movs	r2, #0
70006f00:	9201      	str	r2, [sp, #4]
70006f02:	9202      	str	r2, [sp, #8]
70006f04:	9203      	str	r2, [sp, #12]
70006f06:	9200      	str	r2, [sp, #0]
70006f08:	2207      	movs	r2, #7
70006f0a:	0212      	lsls	r2, r2, #8
70006f0c:	2300      	movs	r3, #0
70006f0e:	a105      	add	r1, pc, #20	@ (adr r1, 0x70006f24)
70006f10:	a00b      	add	r0, pc, #44	@ (adr r0, 0x70006f40)
70006f12:	f7fe fd49 	bl	0x700059a8
70006f16:	2000      	movs	r0, #0
70006f18:	e7e9      	b.n	0x70006eee
70006f1a:	0000      	movs	r0, r0
70006f1c:	2fa8      	cmp	r7, #168	@ 0xa8
70006f1e:	0001      	movs	r1, r0
70006f20:	8b28      	ldrh	r0, [r5, #24]
70006f22:	1000      	asrs	r0, r0, #32
70006f24:	6168      	str	r0, [r5, #20]
70006f26:	5c6c      	ldrb	r4, [r5, r1]
70006f28:	6570      	str	r0, [r6, #84]	@ 0x54
70006f2a:	6972      	ldr	r2, [r6, #20]
70006f2c:	6870      	ldr	r0, [r6, #4]
70006f2e:	7265      	strb	r5, [r4, #9]
70006f30:	6c61      	ldr	r1, [r4, #68]	@ 0x44
70006f32:	735c      	strb	r4, [r3, #13]
70006f34:	6372      	str	r2, [r6, #52]	@ 0x34
70006f36:	675c      	str	r4, [r3, #116]	@ 0x74
70006f38:	6970      	ldr	r0, [r6, #20]
70006f3a:	2e6f      	cmp	r6, #111	@ 0x6f
70006f3c:	0063      	lsls	r3, r4, #1
70006f3e:	0000      	movs	r0, r0
70006f40:	0030      	movs	r0, r6
70006f42:	0000      	movs	r0, r0
70006f44:	b51f      	push	{r0, r1, r2, r3, r4, lr}
70006f46:	4c0d      	ldr	r4, [pc, #52]	@ (0x70006f7c)
70006f48:	2800      	cmp	r0, #0
70006f4a:	d113      	bne.n	0x70006f74
70006f4c:	f7fd fe62 	bl	0x70004c14
70006f50:	2800      	cmp	r0, #0
70006f52:	6060      	str	r0, [r4, #4]
70006f54:	da0a      	bge.n	0x70006f6c
70006f56:	2200      	movs	r2, #0
70006f58:	9201      	str	r2, [sp, #4]
70006f5a:	9202      	str	r2, [sp, #8]
70006f5c:	9203      	str	r2, [sp, #12]
70006f5e:	9200      	str	r2, [sp, #0]
70006f60:	4a07      	ldr	r2, [pc, #28]	@ (0x70006f80)
70006f62:	2300      	movs	r3, #0
70006f64:	a107      	add	r1, pc, #28	@ (adr r1, 0x70006f84)
70006f66:	a010      	add	r0, pc, #64	@ (adr r0, 0x70006fa8)
70006f68:	f7fe fd1e 	bl	0x700059a8
70006f6c:	6860      	ldr	r0, [r4, #4]
70006f6e:	f7fd fe81 	bl	0x70004c74
70006f72:	60a0      	str	r0, [r4, #8]
70006f74:	480d      	ldr	r0, [pc, #52]	@ (0x70006fac)
70006f76:	6020      	str	r0, [r4, #0]
70006f78:	bd1f      	pop	{r0, r1, r2, r3, r4, pc}
70006f7a:	0000      	movs	r0, r0
70006f7c:	2acc      	cmp	r2, #204	@ 0xcc
70006f7e:	0001      	movs	r1, r0
70006f80:	05ca      	lsls	r2, r1, #23
70006f82:	0000      	movs	r0, r0
70006f84:	7563      	strb	r3, [r4, #21]
70006f86:	7473      	strb	r3, [r6, #17]
70006f88:	6d6f      	ldr	r7, [r5, #84]	@ 0x54
70006f8a:	635c      	str	r4, [r3, #52]	@ 0x34
70006f8c:	6d6f      	ldr	r7, [r5, #84]	@ 0x54
70006f8e:	6f6d      	ldr	r5, [r5, #116]	@ 0x74
70006f90:	5c6e      	ldrb	r6, [r5, r1]
70006f92:	6168      	str	r0, [r5, #20]
70006f94:	5c6c      	ldrb	r4, [r5, r1]
70006f96:	6f63      	ldr	r3, [r4, #116]	@ 0x74
70006f98:	626d      	str	r5, [r5, #36]	@ 0x24
70006f9a:	5f6f      	ldrsh	r7, [r5, r5]
70006f9c:	6c66      	ldr	r6, [r4, #68]	@ 0x44
70006f9e:	7361      	strb	r1, [r4, #13]
70006fa0:	5f68      	ldrsh	r0, [r5, r5]
70006fa2:	6f6e      	ldr	r6, [r5, #116]	@ 0x74
70006fa4:	2e72      	cmp	r6, #114	@ 0x72
70006fa6:	0063      	lsls	r3, r4, #1
70006fa8:	0030      	movs	r0, r6
70006faa:	0000      	movs	r0, r0
70006fac:	8bfc      	ldrh	r4, [r7, #30]
70006fae:	1000      	asrs	r0, r0, #32
70006fb0:	4804      	ldr	r0, [pc, #16]	@ (0x70006fc4)
70006fb2:	8800      	ldrh	r0, [r0, #0]
70006fb4:	0780      	lsls	r0, r0, #30
70006fb6:	0f80      	lsrs	r0, r0, #30
70006fb8:	2802      	cmp	r0, #2
70006fba:	d101      	bne.n	0x70006fc0
70006fbc:	2000      	movs	r0, #0
70006fbe:	4770      	bx	lr
70006fc0:	2001      	movs	r0, #1
70006fc2:	4770      	bx	lr
70006fc4:	0000      	movs	r0, r0
70006fc6:	a051      	add	r0, pc, #324	@ (adr r0, 0x7000710c)
70006fc8:	b510      	push	{r4, lr}
70006fca:	4806      	ldr	r0, [pc, #24]	@ (0x70006fe4)
70006fcc:	2100      	movs	r1, #0
70006fce:	f7ff fe81 	bl	0x70006cd4
70006fd2:	4905      	ldr	r1, [pc, #20]	@ (0x70006fe8)
70006fd4:	0004      	movs	r4, r0
70006fd6:	2200      	movs	r2, #0
70006fd8:	f7fb ffe4 	bl	0x70002fa4
70006fdc:	0020      	movs	r0, r4
70006fde:	f7ff fe2f 	bl	0x70006c40
70006fe2:	bd10      	pop	{r4, pc}
70006fe4:	0a01      	lsrs	r1, r0, #8
70006fe6:	0000      	movs	r0, r0
70006fe8:	081b      	lsrs	r3, r3, #32
70006fea:	0000      	movs	r0, r0
70006fec:	b570      	push	{r4, r5, r6, lr}
70006fee:	4a10      	ldr	r2, [pc, #64]	@ (0x70007030)
70006ff0:	4c10      	ldr	r4, [pc, #64]	@ (0x70007034)
70006ff2:	2100      	movs	r1, #0
70006ff4:	81a2      	strh	r2, [r4, #12]
70006ff6:	4a0f      	ldr	r2, [pc, #60]	@ (0x70007034)
70006ff8:	4b0f      	ldr	r3, [pc, #60]	@ (0x70007038)
70006ffa:	3a40      	subs	r2, #64	@ 0x40
70006ffc:	8815      	ldrh	r5, [r2, #0]
70006ffe:	066d      	lsls	r5, r5, #25
70007000:	d502      	bpl.n	0x70007008
70007002:	1c49      	adds	r1, r1, #1
70007004:	4299      	cmp	r1, r3
70007006:	d3f9      	bcc.n	0x70006ffc
70007008:	4d0c      	ldr	r5, [pc, #48]	@ (0x7000703c)
7000700a:	2100      	movs	r1, #0
7000700c:	81a5      	strh	r5, [r4, #12]
7000700e:	8815      	ldrh	r5, [r2, #0]
70007010:	066d      	lsls	r5, r5, #25
70007012:	d502      	bpl.n	0x7000701a
70007014:	1c49      	adds	r1, r1, #1
70007016:	4299      	cmp	r1, r3
70007018:	d3f9      	bcc.n	0x7000700e
7000701a:	2100      	movs	r1, #0
7000701c:	81a0      	strh	r0, [r4, #12]
7000701e:	8810      	ldrh	r0, [r2, #0]
70007020:	0640      	lsls	r0, r0, #25
70007022:	d502      	bpl.n	0x7000702a
70007024:	1c49      	adds	r1, r1, #1
70007026:	4299      	cmp	r1, r3
70007028:	d3f9      	bcc.n	0x7000701e
7000702a:	f7ff ffcd 	bl	0x70006fc8
7000702e:	bd70      	pop	{r4, r5, r6, pc}
70007030:	1a57      	subs	r7, r2, r1
70007032:	0000      	movs	r0, r0
70007034:	0040      	lsls	r0, r0, #1
70007036:	a071      	add	r0, pc, #452	@ (adr r0, 0x700071fc)
70007038:	ffff 0000 	vaddl.u<illegal width 64>	q8, d15, d0
7000703c:	2b68      	cmp	r3, #104	@ 0x68
7000703e:	0000      	movs	r0, r0
70007040:	4904      	ldr	r1, [pc, #16]	@ (0x70007054)
70007042:	b510      	push	{r4, lr}
70007044:	8989      	ldrh	r1, [r1, #12]
70007046:	0949      	lsrs	r1, r1, #5
70007048:	0149      	lsls	r1, r1, #5
7000704a:	4308      	orrs	r0, r1
7000704c:	f7ff ffce 	bl	0x70006fec
70007050:	bd10      	pop	{r4, pc}
70007052:	0000      	movs	r0, r0
70007054:	0040      	lsls	r0, r0, #1
70007056:	a071      	add	r0, pc, #452	@ (adr r0, 0x7000721c)
70007058:	b570      	push	{r4, r5, r6, lr}
7000705a:	0005      	movs	r5, r0
7000705c:	f000 f828 	bl	0x700070b0
70007060:	0006      	movs	r6, r0
70007062:	2400      	movs	r4, #0
70007064:	f000 f824 	bl	0x700070b0
70007068:	0001      	movs	r1, r0
7000706a:	0030      	movs	r0, r6
7000706c:	f000 f826 	bl	0x700070bc
70007070:	42a8      	cmp	r0, r5
70007072:	d802      	bhi.n	0x7000707a
70007074:	1c64      	adds	r4, r4, #1
70007076:	1c60      	adds	r0, r4, #1
70007078:	d1f4      	bne.n	0x70007064
7000707a:	bd70      	pop	{r4, r5, r6, pc}
7000707c:	b51f      	push	{r0, r1, r2, r3, r4, lr}
7000707e:	b084      	sub	sp, #16
70007080:	2000      	movs	r0, #0
70007082:	9c0a      	ldr	r4, [sp, #40]	@ 0x28
70007084:	aa04      	add	r2, sp, #16
70007086:	a902      	add	r1, sp, #8
70007088:	ab06      	add	r3, sp, #24
7000708a:	9400      	str	r4, [sp, #0]
7000708c:	46c0      	nop			@ (mov r8, r8)
7000708e:	46c0      	nop			@ (mov r8, r8)
70007090:	2800      	cmp	r0, #0
70007092:	d107      	bne.n	0x700070a4
70007094:	4805      	ldr	r0, [pc, #20]	@ (0x700070ac)
70007096:	4020      	ands	r0, r4
70007098:	f000 f816 	bl	0x700070c8
7000709c:	2100      	movs	r1, #0
7000709e:	a802      	add	r0, sp, #8
700070a0:	000a      	movs	r2, r1
700070a2:	c006      	stmia	r0!, {r1, r2}
700070a4:	9903      	ldr	r1, [sp, #12]
700070a6:	9802      	ldr	r0, [sp, #8]
700070a8:	b008      	add	sp, #32
700070aa:	bd10      	pop	{r4, pc}
700070ac:	0000      	movs	r0, r0
700070ae:	7c20      	ldrb	r0, [r4, #16]
700070b0:	4801      	ldr	r0, [pc, #4]	@ (0x700070b8)
700070b2:	6840      	ldr	r0, [r0, #4]
700070b4:	4770      	bx	lr
700070b6:	0000      	movs	r0, r0
700070b8:	0100      	lsls	r0, r0, #4
700070ba:	a018      	add	r0, pc, #96	@ (adr r0, 0x7000711c)
700070bc:	0002      	movs	r2, r0
700070be:	2000      	movs	r0, #0
700070c0:	428a      	cmp	r2, r1
700070c2:	d800      	bhi.n	0x700070c6
700070c4:	1a88      	subs	r0, r1, r2
700070c6:	4770      	bx	lr
700070c8:	b510      	push	{r4, lr}
700070ca:	f000 f809 	bl	0x700070e0
700070ce:	f000 f801 	bl	0x700070d4
700070d2:	bd10      	pop	{r4, pc}
700070d4:	b510      	push	{r4, lr}
700070d6:	2800      	cmp	r0, #0
700070d8:	d001      	beq.n	0x700070de
700070da:	f000 ed5a 	blx	0x70007b90
700070de:	bd10      	pop	{r4, pc}
700070e0:	b510      	push	{r4, lr}
700070e2:	2802      	cmp	r0, #2
700070e4:	d101      	bne.n	0x700070ea
700070e6:	2000      	movs	r0, #0
700070e8:	bd10      	pop	{r4, pc}
700070ea:	0142      	lsls	r2, r0, #5
700070ec:	d501      	bpl.n	0x700070f2
700070ee:	a10b      	add	r1, pc, #44	@ (adr r1, 0x7000711c)
700070f0:	e00e      	b.n	0x70007110
700070f2:	0102      	lsls	r2, r0, #4
700070f4:	d501      	bpl.n	0x700070fa
700070f6:	a10e      	add	r1, pc, #56	@ (adr r1, 0x70007130)
700070f8:	e00a      	b.n	0x70007110
700070fa:	00c2      	lsls	r2, r0, #3
700070fc:	d501      	bpl.n	0x70007102
700070fe:	a110      	add	r1, pc, #64	@ (adr r1, 0x70007140)
70007100:	e006      	b.n	0x70007110
70007102:	0082      	lsls	r2, r0, #2
70007104:	d501      	bpl.n	0x7000710a
70007106:	a111      	add	r1, pc, #68	@ (adr r1, 0x7000714c)
70007108:	e002      	b.n	0x70007110
7000710a:	0040      	lsls	r0, r0, #1
7000710c:	d500      	bpl.n	0x70007110
7000710e:	a112      	add	r1, pc, #72	@ (adr r1, 0x70007158)
70007110:	a015      	add	r0, pc, #84	@ (adr r0, 0x70007168)
70007112:	f000 f839 	bl	0x70007188
70007116:	2001      	movs	r0, #1
70007118:	bd10      	pop	{r4, pc}
7000711a:	0000      	movs	r0, r0
7000711c:	6e49      	ldr	r1, [r1, #100]	@ 0x64
7000711e:	6176      	str	r6, [r6, #20]
70007120:	696c      	ldr	r4, [r5, #20]
70007122:	2064      	movs	r0, #100	@ 0x64
70007124:	704f      	strb	r7, [r1, #1]
70007126:	7265      	strb	r5, [r4, #9]
70007128:	7461      	strb	r1, [r4, #17]
7000712a:	6f69      	ldr	r1, [r5, #116]	@ 0x74
7000712c:	006e      	lsls	r6, r5, #1
7000712e:	0000      	movs	r0, r0
70007130:	6944      	ldr	r4, [r0, #20]
70007132:	6976      	ldr	r6, [r6, #20]
70007134:	6564      	str	r4, [r4, #84]	@ 0x54
70007136:	4220      	tst	r0, r4
70007138:	2079      	movs	r0, #121	@ 0x79
7000713a:	655a      	str	r2, [r3, #84]	@ 0x54
7000713c:	6f72      	ldr	r2, [r6, #116]	@ 0x74
7000713e:	0000      	movs	r0, r0
70007140:	764f      	strb	r7, [r1, #25]
70007142:	7265      	strb	r5, [r4, #9]
70007144:	6c66      	ldr	r6, [r4, #68]	@ 0x44
70007146:	776f      	strb	r7, [r5, #29]
70007148:	0000      	movs	r0, r0
7000714a:	0000      	movs	r0, r0
7000714c:	6e55      	ldr	r5, [r2, #100]	@ 0x64
7000714e:	6564      	str	r4, [r4, #84]	@ 0x54
70007150:	6672      	str	r2, [r6, #100]	@ 0x64
70007152:	6f6c      	ldr	r4, [r5, #116]	@ 0x74
70007154:	0077      	lsls	r7, r6, #1
70007156:	0000      	movs	r0, r0
70007158:	6e49      	ldr	r1, [r1, #100]	@ 0x64
7000715a:	7865      	ldrb	r5, [r4, #1]
7000715c:	6361      	str	r1, [r4, #52]	@ 0x34
7000715e:	2074      	movs	r0, #116	@ 0x74
70007160:	6552      	str	r2, [r2, #84]	@ 0x54
70007162:	7573      	strb	r3, [r6, #21]
70007164:	746c      	strb	r4, [r5, #17]
70007166:	0000      	movs	r0, r0
70007168:	4953      	ldr	r1, [pc, #332]	@ (0x700072b8)
7000716a:	4647      	mov	r7, r8
7000716c:	4550      	cmp	r0, sl
7000716e:	203a      	movs	r0, #58	@ 0x3a
70007170:	7241      	strb	r1, [r0, #9]
70007172:	7469      	strb	r1, [r5, #17]
70007174:	6d68      	ldr	r0, [r5, #84]	@ 0x54
70007176:	7465      	strb	r5, [r4, #17]
70007178:	6369      	str	r1, [r5, #52]	@ 0x34
7000717a:	6520      	str	r0, [r4, #80]	@ 0x50
7000717c:	6378      	str	r0, [r7, #52]	@ 0x34
7000717e:	7065      	strb	r5, [r4, #1]
70007180:	6974      	ldr	r4, [r6, #20]
70007182:	6e6f      	ldr	r7, [r5, #100]	@ 0x64
70007184:	203a      	movs	r0, #58	@ 0x3a
70007186:	0000      	movs	r0, r0
70007188:	b570      	push	{r4, r5, r6, lr}
7000718a:	0004      	movs	r4, r0
7000718c:	000d      	movs	r5, r1
7000718e:	200a      	movs	r0, #10
70007190:	e000      	b.n	0x70007194
70007192:	1c64      	adds	r4, r4, #1
70007194:	f000 f812 	bl	0x700071bc
70007198:	2c00      	cmp	r4, #0
7000719a:	d006      	beq.n	0x700071aa
7000719c:	7820      	ldrb	r0, [r4, #0]
7000719e:	2800      	cmp	r0, #0
700071a0:	d1f7      	bne.n	0x70007192
700071a2:	e002      	b.n	0x700071aa
700071a4:	1c6d      	adds	r5, r5, #1
700071a6:	f000 f809 	bl	0x700071bc
700071aa:	2d00      	cmp	r5, #0
700071ac:	d002      	beq.n	0x700071b4
700071ae:	7828      	ldrb	r0, [r5, #0]
700071b0:	2800      	cmp	r0, #0
700071b2:	d1f7      	bne.n	0x700071a4
700071b4:	200a      	movs	r0, #10
700071b6:	f000 f801 	bl	0x700071bc
700071ba:	bd70      	pop	{r4, r5, r6, pc}
700071bc:	b508      	push	{r3, lr}
700071be:	4669      	mov	r1, sp
700071c0:	9000      	str	r0, [sp, #0]
700071c2:	2003      	movs	r0, #3
700071c4:	dfab      	svc	171	@ 0xab
700071c6:	bd08      	pop	{r3, pc}
700071c8:	700e      	strb	r6, [r1, #0]
700071ca:	e1a0      	b.n	0x7000750e
700071cc:	00d4      	lsls	r4, r2, #3
700071ce:	e59f      	b.n	0x70006d10
700071d0:	10d4      	asrs	r4, r2, #3
700071d2:	e59f      	b.n	0x70006d14
700071d4:	2001      	movs	r0, #1
700071d6:	e1a0      	b.n	0x7000751a
700071d8:	30d0      	adds	r0, #208	@ 0xd0
700071da:	e59f      	b.n	0x70006d1c
700071dc:	2003      	movs	r0, #3
700071de:	e082      	b.n	0x700072e6
700071e0:	f710 ebff 	bfcsel	1c, 0x700079e2, 1e, mi
700071e4:	20c8      	movs	r0, #200	@ 0xc8
700071e6:	e59f      	b.n	0x70006d28
700071e8:	00c8      	lsls	r0, r1, #3
700071ea:	e59f      	b.n	0x70006d2c
700071ec:	1000      	asrs	r0, r0, #32
700071ee:	e1a0      	b.n	0x70007532
700071f0:	1002      	asrs	r2, r0, #32
700071f2:	e081      	b.n	0x700072f8
700071f4:	f70d ebff 	bfcsel	1c, 0x700069f6, 1e, cc
700071f8:	00bc      	lsls	r4, r7, #2
700071fa:	e59f      	b.n	0x70006d3c
700071fc:	10bc      	asrs	r4, r7, #2
700071fe:	e59f      	b.n	0x70006d40
70007200:	2001      	movs	r0, #1
70007202:	e1a0      	b.n	0x70007546
70007204:	30b8      	adds	r0, #184	@ 0xb8
70007206:	e59f      	b.n	0x70006d48
70007208:	2003      	movs	r0, #3
7000720a:	e082      	b.n	0x70007312
7000720c:	f705 ebff 	bfcsel	1c, 0x70006a0e, 1e, ne
70007210:	20b0      	movs	r0, #176	@ 0xb0
70007212:	e59f      	b.n	0x70006d54
70007214:	00b0      	lsls	r0, r6, #2
70007216:	e59f      	b.n	0x70006d58
70007218:	1000      	asrs	r0, r0, #32
7000721a:	e1a0      	b.n	0x7000755e
7000721c:	1002      	asrs	r2, r0, #32
7000721e:	e081      	b.n	0x70007324
70007220:	f702 ebff 	bfcsel	1c, 0x70007a22, 20, eq
70007224:	00a4      	lsls	r4, r4, #2
70007226:	e59f      	b.n	0x70006d68
70007228:	10a4      	asrs	r4, r4, #2
7000722a:	e59f      	b.n	0x70006d6c
7000722c:	2001      	movs	r0, #1
7000722e:	e1a0      	b.n	0x70007572
70007230:	30a0      	adds	r0, #160	@ 0xa0
70007232:	e59f      	b.n	0x70006d74
70007234:	2003      	movs	r0, #3
70007236:	e082      	b.n	0x7000733e
70007238:	f6fa ebff 			@ <UNDEFINED> instruction: 0xf6faebff
7000723c:	2098      	movs	r0, #152	@ 0x98
7000723e:	e59f      	b.n	0x70006d80
70007240:	0098      	lsls	r0, r3, #2
70007242:	e59f      	b.n	0x70006d84
70007244:	1000      	asrs	r0, r0, #32
70007246:	e1a0      	b.n	0x7000758a
70007248:	1002      	asrs	r2, r0, #32
7000724a:	e081      	b.n	0x70007350
7000724c:	f6f7 ebff 			@ <UNDEFINED> instruction: 0xf6f7ebff
70007250:	008c      	lsls	r4, r1, #2
70007252:	e59f      	b.n	0x70006d94
70007254:	108c      	asrs	r4, r1, #2
70007256:	e59f      	b.n	0x70006d98
70007258:	2001      	movs	r0, #1
7000725a:	e1a0      	b.n	0x7000759e
7000725c:	3088      	adds	r0, #136	@ 0x88
7000725e:	e59f      	b.n	0x70006da0
70007260:	2003      	movs	r0, #3
70007262:	e082      	b.n	0x7000736a
70007264:	f6ef ebff 			@ <UNDEFINED> instruction: 0xf6efebff
70007268:	2080      	movs	r0, #128	@ 0x80
7000726a:	e59f      	b.n	0x70006dac
7000726c:	0080      	lsls	r0, r0, #2
7000726e:	e59f      	b.n	0x70006db0
70007270:	1000      	asrs	r0, r0, #32
70007272:	e1a0      	b.n	0x700075b6
70007274:	1002      	asrs	r2, r0, #32
70007276:	e081      	b.n	0x7000737c
70007278:	f6ec ebff 			@ <UNDEFINED> instruction: 0xf6ecebff
7000727c:	ff17 e12f 	vrhadd.u16	d14, d7, d31
70007280:	0070      	lsls	r0, r6, #1
70007282:	e59f      	b.n	0x70006dc4
70007284:	1070      	asrs	r0, r6, #1
70007286:	e59f      	b.n	0x70006dc8
70007288:	2001      	movs	r0, #1
7000728a:	e1a0      	b.n	0x700075ce
7000728c:	306c      	adds	r0, #108	@ 0x6c
7000728e:	e59f      	b.n	0x70006dd0
70007290:	2003      	movs	r0, #3
70007292:	e082      	b.n	0x7000739a
70007294:	0002      	movs	r2, r0
70007296:	e151      	b.n	0x7000753c
70007298:	3004      	adds	r0, #4
7000729a:	3490      	adds	r4, #144	@ 0x90
7000729c:	3004      	adds	r0, #4
7000729e:	3481      	adds	r4, #129	@ 0x81
700072a0:	fffb 3aff 			@ <UNDEFINED> instruction: 0xfffb3aff
700072a4:	ff1e e12f 	vrhadd.u16	d14, d14, d31
	...
700072bc:	9f8c      	ldr	r7, [sp, #560]	@ 0x230
700072be:	1000      	asrs	r0, r0, #32
700072c0:	5f7c      	ldrsh	r4, [r7, r5]
700072c2:	7000      	strb	r0, [r0, #0]
700072c4:	0288      	lsls	r0, r1, #10
700072c6:	0000      	movs	r0, r0
700072c8:	0004      	movs	r4, r0
700072ca:	0000      	movs	r0, r0
700072cc:	6204      	str	r4, [r0, #32]
700072ce:	7000      	strb	r0, [r0, #0]
700072d0:	9010      	str	r0, [sp, #64]	@ 0x40
700072d2:	1000      	asrs	r0, r0, #32
700072d4:	5000      	str	r0, [r0, r0]
700072d6:	7000      	strb	r0, [r0, #0]
700072d8:	0f20      	lsrs	r0, r4, #28
700072da:	0000      	movs	r0, r0
700072dc:	0000      	movs	r0, r0
700072de:	0000      	movs	r0, r0
700072e0:	5f20      	ldrsh	r0, [r4, r4]
700072e2:	7000      	strb	r0, [r0, #0]
700072e4:	8f2c      	ldrh	r4, [r5, #56]	@ 0x38
700072e6:	1000      	asrs	r0, r0, #32
700072e8:	2000      	movs	r0, #0
700072ea:	0001      	movs	r1, r0
700072ec:	00e4      	lsls	r4, r4, #3
700072ee:	0000      	movs	r0, r0
700072f0:	11a8      	asrs	r0, r5, #6
700072f2:	0000      	movs	r0, r0
700072f4:	20e4      	movs	r0, #228	@ 0xe4
700072f6:	0001      	movs	r1, r0
700072f8:	9f30      	ldr	r7, [sp, #192]	@ 0xc0
700072fa:	1000      	asrs	r0, r0, #32
700072fc:	5f20      	ldrsh	r0, [r4, r4]
700072fe:	7000      	strb	r0, [r0, #0]
70007300:	005c      	lsls	r4, r3, #1
70007302:	0000      	movs	r0, r0
70007304:	ff1e e12f 	vrhadd.u16	d14, d14, d31
70007308:	3020      	adds	r0, #32
7000730a:	e252      	b.n	0x700077b2
7000730c:	0004      	movs	r4, r0
7000730e:	5a00      	ldrh	r0, [r0, r0]
70007310:	3020      	adds	r0, #32
70007312:	e262      	b.n	0x700077da
70007314:	1211      	asrs	r1, r2, #8
70007316:	e1a0      	b.n	0x7000765a
70007318:	1330      	asrs	r0, r6, #12
7000731a:	e181      	b.n	0x70007620
7000731c:	0210      	lsls	r0, r2, #8
7000731e:	e1a0      	b.n	0x70007662
70007320:	ff1e e12f 	vrhadd.u16	d14, d14, d31
70007324:	1310      	asrs	r0, r2, #12
70007326:	e1a0      	b.n	0x7000766a
70007328:	0000      	movs	r0, r0
7000732a:	e3a0      	b.n	0x70007a6e
7000732c:	ff1e e12f 	vrhadd.u16	d14, d14, d31
70007330:	3000      	adds	r0, #0
70007332:	e3a0      	b.n	0x70007a76
70007334:	00aa      	lsls	r2, r5, #2
70007336:	ea00 0003 	and.w	r0, r0, r3
7000733a:	e310      	b.n	0x7000795e
7000733c:	0003      	movs	r3, r0
7000733e:	0311      	lsls	r1, r2, #12
70007340:	001f      	movs	r7, r3
70007342:	1a00      	subs	r0, r0, r0
70007344:	4000      	ands	r0, r0
70007346:	e92d e070 	stmdb	sp!, {r4, r5, r6, sp, lr, pc}
7000734a:	e59f      	b.n	0x70006e8c
7000734c:	2004      	movs	r0, #4
7000734e:	e490      	b.n	0x70006c72
70007350:	3004      	adds	r0, #4
70007352:	e491      	b.n	0x70006c78
70007354:	c00e      	stmia	r0!, {r1, r2, r3}
70007356:	e042      	b.n	0x700073de
70007358:	c002      	stmia	r0!, {r1}
7000735a:	e1cc      	b.n	0x700076f6
7000735c:	c38e      	stmia	r3!, {r1, r2, r3, r7}
7000735e:	e01c      	b.n	0x7000739a
70007360:	0003      	movs	r3, r0
70007362:	0152      	lsls	r2, r2, #5
70007364:	0006      	movs	r6, r0
70007366:	1a00      	subs	r0, r0, r0
70007368:	2004      	movs	r0, #4
7000736a:	e490      	b.n	0x70006c8e
7000736c:	3004      	adds	r0, #4
7000736e:	e491      	b.n	0x70006c94
70007370:	c00e      	stmia	r0!, {r1, r2, r3}
70007372:	e042      	b.n	0x700073fa
70007374:	c002      	stmia	r0!, {r1}
70007376:	e1cc      	b.n	0x70007712
70007378:	c38e      	stmia	r3!, {r1, r2, r3, r7}
7000737a:	e01c      	b.n	0x700073b6
7000737c:	0003      	movs	r3, r0
7000737e:	0152      	lsls	r2, r2, #5
70007380:	fff1 0aff 			@ <UNDEFINED> instruction: 0xfff10aff
70007384:	4000      	ands	r0, r0
70007386:	e8bd 0c03 	ldmia.w	sp!, {r0, r1, sl, fp}
7000738a:	e1a0      	b.n	0x700076ce
7000738c:	0c02      	lsrs	r2, r0, #16
7000738e:	e050      	b.n	0x70007432
70007390:	0eff      	lsrs	r7, r7, #27
70007392:	031c      	lsls	r4, r3, #12
70007394:	0007      	movs	r7, r0
70007396:	1a00      	subs	r0, r0, r0
70007398:	0803      	lsrs	r3, r0, #32
7000739a:	e1a0      	b.n	0x700076de
7000739c:	0802      	lsrs	r2, r0, #32
7000739e:	e050      	b.n	0x70007442
700073a0:	0cff      	lsrs	r7, r7, #19
700073a2:	031c      	lsls	r4, r3, #12
700073a4:	0003      	movs	r3, r0
700073a6:	1a00      	subs	r0, r0, r0
700073a8:	0403      	lsls	r3, r0, #16
700073aa:	e1a0      	b.n	0x700076ee
700073ac:	0402      	lsls	r2, r0, #16
700073ae:	e050      	b.n	0x70007452
700073b0:	08ff      	lsrs	r7, r7, #3
700073b2:	031c      	lsls	r4, r3, #12
700073b4:	0002      	movs	r2, r0
700073b6:	0053      	lsls	r3, r2, #1
700073b8:	0060      	lsls	r0, r4, #1
700073ba:	11a0      	asrs	r0, r4, #6
700073bc:	ff1e e12f 	vrhadd.u16	d14, d14, d31
700073c0:	0101      	lsls	r1, r0, #4
700073c2:	0101      	lsls	r1, r0, #4
700073c4:	2001      	movs	r0, #1
700073c6:	e4d0      	b.n	0x70006d6a
700073c8:	3001      	adds	r0, #1
700073ca:	e4d1      	b.n	0x70006d70
700073cc:	0001      	movs	r1, r0
700073ce:	e352      	b.n	0x70007a76
700073d0:	0003      	movs	r3, r0
700073d2:	2152      	movs	r1, #82	@ 0x52
700073d4:	0004      	movs	r4, r0
700073d6:	1a00      	subs	r0, r0, r0
700073d8:	2001      	movs	r0, #1
700073da:	e4d0      	b.n	0x70006d7e
700073dc:	3001      	adds	r0, #1
700073de:	e4d1      	b.n	0x70006d84
700073e0:	0001      	movs	r1, r0
700073e2:	e352      	b.n	0x70007a8a
700073e4:	0003      	movs	r3, r0
700073e6:	2152      	movs	r1, #82	@ 0x52
700073e8:	fff5 0aff 			@ <UNDEFINED> instruction: 0xfff50aff
700073ec:	0003      	movs	r3, r0
700073ee:	e042      	b.n	0x70007476
700073f0:	ff1e e12f 	vrhadd.u16	d14, d14, d31
700073f4:	30ff      	adds	r0, #255	@ 0xff
700073f6:	e201      	b.n	0x700077fc
700073f8:	1002      	asrs	r2, r0, #32
700073fa:	e1a0      	b.n	0x7000773e
700073fc:	4001      	ands	r1, r0
700073fe:	e92d 2403 	stmdb	sp!, {r0, r1, sl, sp}
70007402:	e183      	b.n	0x7000770c
70007404:	2802      	cmp	r0, #2
70007406:	e182      	b.n	0x7000770e
70007408:	0006      	movs	r6, r0
7000740a:	eb00 4001 	add.w	r0, r0, r1, lsl #16
7000740e:	e8bd ff1e 	ldmia.w	sp!, {r1, r2, r3, r4, r8, r9, sl, fp, ip, sp, lr, pc}
70007412:	e12f      	b.n	0x70007674
70007414:	30ff      	adds	r0, #255	@ 0xff
70007416:	e202      	b.n	0x7000781e
70007418:	2403      	movs	r4, #3
7000741a:	e183      	b.n	0x70007724
7000741c:	2802      	cmp	r0, #2
7000741e:	e182      	b.n	0x70007726
70007420:	0000      	movs	r0, r0
70007422:	ea00 2000 	and.w	r0, r0, r0, lsl #8
70007426:	e3a0      	b.n	0x70007b6a
70007428:	0004      	movs	r4, r0
7000742a:	e351      	b.n	0x70007ad0
7000742c:	0007      	movs	r7, r0
7000742e:	3a00      	subs	r2, #0
70007430:	c003      	stmia	r0!, {r0, r1}
70007432:	e210      	b.n	0x70007856
70007434:	000b      	movs	r3, r1
70007436:	0a00      	lsrs	r0, r0, #8
70007438:	c004      	stmia	r0!, {r2}
7000743a:	e26c      	b.n	0x70007916
7000743c:	0002      	movs	r2, r0
7000743e:	e35c      	b.n	0x70007afa
70007440:	2001      	movs	r0, #1
70007442:	14c0      	asrs	r0, r0, #19
70007444:	100c      	asrs	r4, r1, #32
70007446:	e041      	b.n	0x700074cc
70007448:	20b2      	movs	r0, #178	@ 0xb2
7000744a:	a0c0      	add	r0, pc, #768	@ (adr r0, 0x7000774c)
7000744c:	0005      	movs	r5, r0
7000744e:	ea00 cf81 			@ <UNDEFINED> instruction: 0xea00cf81
70007452:	e1b0      	b.n	0x700077b6
70007454:	2001      	movs	r0, #1
70007456:	24c0      	movs	r4, #192	@ 0xc0
70007458:	2001      	movs	r0, #1
7000745a:	24c0      	movs	r4, #192	@ 0xc0
7000745c:	2001      	movs	r0, #1
7000745e:	44c0      	add	r8, r8
70007460:	ff1e e12f 	vrhadd.u16	d14, d14, d31
70007464:	2000      	movs	r0, #0
70007466:	e3a0      	b.n	0x70007baa
70007468:	4000      	ands	r0, r0
7000746a:	e92d 3002 	stmdb	sp!, {r1, ip, sp}
7000746e:	e1a0      	b.n	0x700077b2
70007470:	c002      	stmia	r0!, {r1}
70007472:	e1a0      	b.n	0x700077b6
70007474:	e002      	b.n	0x7000747c
70007476:	e1a0      	b.n	0x700077ba
70007478:	1020      	asrs	r0, r4, #32
7000747a:	e251      	b.n	0x70007920
7000747c:	0008      	movs	r0, r1
7000747e:	3a00      	subs	r2, #0
70007480:	00f0      	lsls	r0, r6, #3
70007482:	e92d 4002 	stmdb	sp!, {r1, lr}
70007486:	e1a0      	b.n	0x700077ca
70007488:	5002      	str	r2, [r0, r0]
7000748a:	e1a0      	b.n	0x700077ce
7000748c:	6002      	str	r2, [r0, #0]
7000748e:	e1a0      	b.n	0x700077d2
70007490:	7002      	strb	r2, [r0, #0]
70007492:	e1a0      	b.n	0x700077d6
70007494:	50fc      	str	r4, [r7, r3]
70007496:	e8a0 1020 	stmia.w	r0!, {r5, ip}
7000749a:	e251      	b.n	0x70007940
7000749c:	fffc 2aff 			@ <UNDEFINED> instruction: 0xfffc2aff
700074a0:	00f0      	lsls	r0, r6, #3
700074a2:	e8bd 1e01 	ldmia.w	sp!, {r0, r9, sl, fp, ip}
700074a6:	e1b0      	b.n	0x7000780a
700074a8:	500c      	str	r4, [r1, r0]
700074aa:	28a0      	cmp	r0, #160	@ 0xa0
700074ac:	000c      	movs	r4, r1
700074ae:	48a0      	ldr	r0, [pc, #640]	@ (0x70007730)
700074b0:	4000      	ands	r0, r0
700074b2:	e8bd 1101 	ldmia.w	sp!, {r0, r8, ip}
700074b6:	e1b0      	b.n	0x7000781a
700074b8:	2004      	movs	r0, #4
700074ba:	2480      	movs	r4, #128	@ 0x80
700074bc:	ff1e 012f 	vrhadd.u16	d0, d14, d31
700074c0:	20b2      	movs	r0, #178	@ 0xb2
700074c2:	40c0      	lsrs	r0, r0
700074c4:	0101      	lsls	r1, r0, #4
700074c6:	e311      	b.n	0x70007aec
700074c8:	2001      	movs	r0, #1
700074ca:	14c0      	asrs	r0, r0, #19
700074cc:	ff1e e12f 	vrhadd.u16	d14, d14, d31
700074d0:	d000      	beq.n	0x700074d4
700074d2:	e1a0      	b.n	0x70007816
700074d4:	ff1e e12f 	vrhadd.u16	d14, d14, d31
700074d8:	2442      	movs	r4, #66	@ 0x42
700074da:	e3a0      	b.n	0x70007c1e
700074dc:	0004      	movs	r4, r0
700074de:	ea00 2102 	and.w	r1, r0, r2, lsl #8
700074e2:	e211      	b.n	0x70007908
700074e4:	0001      	movs	r1, r0
700074e6:	5a00      	ldrh	r0, [r0, r0]
700074e8:	0000      	movs	r0, r0
700074ea:	e270      	b.n	0x700079ce
700074ec:	1000      	asrs	r0, r0, #32
700074ee:	e2e1      	b.n	0x70007ab4
700074f0:	2442      	movs	r4, #66	@ 0x42
700074f2:	e382      	b.n	0x70007bfa
700074f4:	3001      	adds	r0, #1
700074f6:	e1b0      	b.n	0x7000785a
700074f8:	2603      	movs	r6, #3
700074fa:	e242      	b.n	0x70007982
700074fc:	3020      	adds	r0, #32
700074fe:	13a0      	asrs	r0, r4, #14
70007500:	1000      	asrs	r0, r0, #32
70007502:	01b0      	lsls	r0, r6, #6
70007504:	ff1e 012f 	vrhadd.u16	d0, d14, d31
70007508:	cf11      	ldmia	r7!, {r0, r4}
7000750a:	e16f      	b.n	0x700077ec
7000750c:	300c      	adds	r0, #12
7000750e:	e043      	b.n	0x70007598
70007510:	1c11      	adds	r1, r2, #0
70007512:	e1a0      	b.n	0x70007856
70007514:	c330      	stmia	r3!, {r4, r5}
70007516:	e181      	b.n	0x7000781c
70007518:	2a03      	cmp	r2, #3
7000751a:	e082      	b.n	0x70007622
7000751c:	3020      	adds	r0, #32
7000751e:	e263      	b.n	0x700079e8
70007520:	3310      	adds	r3, #16
70007522:	e1a0      	b.n	0x70007866
70007524:	0a83      	lsrs	r3, r0, #10
70007526:	e1b0      	b.n	0x7000788a
70007528:	0101      	lsls	r1, r0, #4
7000752a:	13a0      	asrs	r0, r4, #14
7000752c:	4001      	ands	r1, r0
7000752e:	e92d 0b03 	stmdb	sp!, {r0, r1, r8, r9, fp}
70007532:	e1b0      	b.n	0x70007896
70007534:	00a3      	lsls	r3, r4, #2
70007536:	0003      	movs	r3, r0
70007538:	05a0      	lsls	r0, r4, #22
7000753a:	01b0      	lsls	r0, r6, #6
7000753c:	05a3      	lsls	r3, r4, #22
7000753e:	e1a0      	b.n	0x70007882
70007540:	0a8c      	lsrs	r4, r1, #10
70007542:	e0b0      	b.n	0x700076a6
70007544:	15ac      	asrs	r4, r5, #22
70007546:	e0a2      	b.n	0x7000768e
70007548:	5000      	str	r0, [r0, r0]
7000754a:	e8bd 3b03 	ldmia.w	sp!, {r0, r1, r8, r9, fp, ip, sp}
7000754e:	e1b0      	b.n	0x700078b2
70007550:	ff1e e12f 	vrhadd.u16	d14, d14, d31
70007554:	c001      	stmia	r0!, {r0}
70007556:	e193      	b.n	0x70007880
70007558:	000a      	movs	r2, r1
7000755a:	4a00      	ldr	r2, [pc, #0]	@ (0x7000755c)
7000755c:	0601      	lsls	r1, r0, #24
7000755e:	e37c      	b.n	0x70007c5a
70007560:	0003      	movs	r3, r0
70007562:	4a00      	ldr	r2, [pc, #0]	@ (0x70007564)
70007564:	0001      	movs	r1, r0
70007566:	e153      	b.n	0x70007810
70007568:	ff1e 112f 	vrhadd.u16	d1, d14, d31
7000756c:	0000      	movs	r0, r0
7000756e:	0152      	lsls	r2, r2, #5
70007570:	ff1e e12f 	vrhadd.u16	d14, d14, d31
70007574:	0601      	lsls	r1, r0, #24
70007576:	e373      	b.n	0x70007c60
70007578:	0601      	lsls	r1, r0, #24
7000757a:	5371      	strh	r1, [r6, r5]
7000757c:	000f      	movs	r7, r1
7000757e:	4a00      	ldr	r2, [pc, #0]	@ (0x70007580)
70007580:	0001      	movs	r1, r0
70007582:	e153      	b.n	0x7000782c
70007584:	ff1e e12f 	vrhadd.u16	d14, d14, d31
70007588:	0601      	lsls	r1, r0, #24
7000758a:	e37c      	b.n	0x70007c86
7000758c:	0005      	movs	r5, r0
7000758e:	5a00      	ldrh	r0, [r0, r0]
70007590:	c083      	stmia	r0!, {r0, r1, r7}
70007592:	e192      	b.n	0x700078ba
70007594:	c081      	stmia	r0!, {r0, r7}
70007596:	0190      	lsls	r0, r2, #6
70007598:	0003      	movs	r3, r0
7000759a:	1151      	asrs	r1, r2, #5
7000759c:	ff1e 112f 	vrhadd.u16	d1, d14, d31
700075a0:	0002      	movs	r2, r0
700075a2:	0150      	lsls	r0, r2, #5
700075a4:	ff1e e12f 	vrhadd.u16	d14, d14, d31
700075a8:	c602      	stmia	r6!, {r1}
700075aa:	e3a0      	b.n	0x70007cee
700075ac:	0083      	lsls	r3, r0, #2
700075ae:	e17c      	b.n	0x700078aa
700075b0:	0081      	lsls	r1, r0, #2
700075b2:	317c      	adds	r1, #124	@ 0x7c
700075b4:	0001      	movs	r1, r0
700075b6:	2a00      	cmp	r2, #0
700075b8:	0003      	movs	r3, r0
700075ba:	e151      	b.n	0x70007860
700075bc:	ff1e e12f 	vrhadd.u16	d14, d14, d31
700075c0:	1001      	asrs	r1, r0, #32
700075c2:	e023      	b.n	0x7000760c
700075c4:	0000      	movs	r0, r0
700075c6:	e022      	b.n	0x7000760e
700075c8:	3003      	adds	r0, #3
700075ca:	e021      	b.n	0x70007610
700075cc:	2002      	movs	r0, #2
700075ce:	e020      	b.n	0x70007612
700075d0:	c008      	stmia	r0!, {r3}
700075d2:	e59f      	b.n	0x70007114
700075d4:	1001      	asrs	r1, r0, #32
700075d6:	e023      	b.n	0x70007620
700075d8:	0000      	movs	r0, r0
700075da:	e022      	b.n	0x70007622
700075dc:	0007      	movs	r7, r0
700075de:	ea00 0019 	and.w	r0, r0, r9, lsr #32
700075e2:	0416      	lsls	r6, r2, #16
700075e4:	4000      	ands	r0, r0
700075e6:	e92d e000 	stmdb	sp!, {sp, lr, pc}
700075ea:	e1a0      	b.n	0x7000792e
700075ec:	0e92      	lsrs	r2, r2, #26
700075ee:	e08c      	b.n	0x7000770a
700075f0:	c192      	stmia	r1!, {r1, r4, r7}
700075f2:	e021      	b.n	0x70007638
700075f4:	1e93      	subs	r3, r2, #2
700075f6:	e021      	b.n	0x7000763c
700075f8:	4000      	ands	r0, r0
700075fa:	e8bd ff1e 	ldmia.w	sp!, {r1, r2, r3, r4, r8, r9, sl, fp, ip, sp, lr, pc}
700075fe:	e12f      	b.n	0x70007860
70007600:	4000      	ands	r0, r0
70007602:	e92d e602 	stmdb	sp!, {r1, r9, sl, sp, lr, pc}
70007606:	e3a0      	b.n	0x70007d4a
70007608:	0081      	lsls	r1, r0, #2
7000760a:	e17e      	b.n	0x7000790a
7000760c:	0000      	movs	r0, r0
7000760e:	0350      	lsls	r0, r2, #13
70007610:	0083      	lsls	r3, r0, #2
70007612:	917e      	str	r1, [sp, #504]	@ 0x1f8
70007614:	0000      	movs	r0, r0
70007616:	0352      	lsls	r2, r2, #13
70007618:	0014      	movs	r4, r2
7000761a:	8a00      	ldrh	r0, [r0, #16]
7000761c:	4000      	ands	r0, r0
7000761e:	e8bd 0000 	ldmia.w	sp!, {}
70007622:	e1a0      	b.n	0x70007966
70007624:	c003      	stmia	r0!, {r0, r1}
70007626:	e191      	b.n	0x7000794c
70007628:	0004      	movs	r4, r0
7000762a:	4a00      	ldr	r2, [pc, #0]	@ (0x7000762c)
7000762c:	0003      	movs	r3, r0
7000762e:	e151      	b.n	0x700078d4
70007630:	0002      	movs	r2, r0
70007632:	0150      	lsls	r0, r2, #5
70007634:	0008      	movs	r0, r1
70007636:	6a00      	ldr	r0, [r0, #32]
70007638:	0000      	movs	r0, r0
7000763a:	e10f      	b.n	0x7000785c
7000763c:	ff1e e12f 	vrhadd.u16	d14, d14, d31
70007640:	0001      	movs	r1, r0
70007642:	e153      	b.n	0x700078ec
70007644:	0000      	movs	r0, r0
70007646:	0152      	lsls	r2, r2, #5
70007648:	0000      	movs	r0, r0
7000764a:	e10f      	b.n	0x7000786c
7000764c:	0209      	lsls	r1, r1, #8
7000764e:	e3c0      	b.n	0x70007dd2
70007650:	0102      	lsls	r2, r0, #4
70007652:	3380      	adds	r3, #128	@ 0x80
70007654:	f000 e128 	blx	0x704078a8
70007658:	ff1e 712f 	vrhadd.u16	d7, d14, d31
7000765c:	c001      	stmia	r0!, {r0}
7000765e:	e3a0      	b.n	0x70007da2
70007660:	0002      	movs	r2, r0
70007662:	335c      	adds	r3, #92	@ 0x5c
70007664:	0000      	movs	r0, r0
70007666:	635c      	str	r4, [r3, #52]	@ 0x34
70007668:	0000      	movs	r0, r0
7000766a:	e10f      	b.n	0x7000788c
7000766c:	ff1e e12f 	vrhadd.u16	d14, d14, d31
70007670:	4000      	ands	r0, r0
70007672:	e8bd 080d 	ldmia.w	sp!, {r0, r2, r3, fp}
70007676:	e31c      	b.n	0x70007cb2
70007678:	0091      	lsls	r1, r2, #2
7000767a:	1a00      	subs	r0, r0, r0
7000767c:	007d      	lsls	r5, r7, #1
7000767e:	ea00 2f11 	and.w	pc, r0, r1, lsr #8
70007682:	e16f      	b.n	0x70007964
70007684:	3f7a      	subs	r7, #122	@ 0x7a
70007686:	e28f      	b.n	0x70007ba8
70007688:	c211      	stmia	r2!, {r0, r4}
7000768a:	e1a0      	b.n	0x700079ce
7000768c:	cccc      	ldmia	r4!, {r2, r3, r6, r7}
7000768e:	e7d3      	b.n	0x70007638
70007690:	2007      	movs	r0, #7
70007692:	e252      	b.n	0x70007b3a
70007694:	3000      	adds	r0, #0
70007696:	e261      	b.n	0x70007b5c
70007698:	121c      	asrs	r4, r3, #8
7000769a:	51a0      	str	r0, [r4, r6]
7000769c:	0391      	lsls	r1, r2, #14
7000769e:	500c      	str	r4, [r1, r0]
700076a0:	000f      	movs	r7, r1
700076a2:	4a00      	ldr	r2, [pc, #0]	@ (0x700076a4)
700076a4:	1cc1      	adds	r1, r0, #3
700076a6:	e121      	b.n	0x700078ec
700076a8:	00c3      	lsls	r3, r0, #3
700076aa:	e133      	b.n	0x70007914
700076ac:	2000      	movs	r0, #0
700076ae:	13a0      	asrs	r0, r4, #14
700076b0:	0391      	lsls	r1, r2, #14
700076b2:	100c      	asrs	r4, r1, #32
700076b4:	219c      	movs	r1, #156	@ 0x9c
700076b6:	10e1      	asrs	r1, r4, #3
700076b8:	0016      	movs	r6, r2
700076ba:	0a00      	lsrs	r0, r0, #8
700076bc:	2190      	movs	r1, #144	@ 0x90
700076be:	e08c      	b.n	0x700077da
700076c0:	0003      	movs	r3, r0
700076c2:	e080      	b.n	0x700077c6
700076c4:	039c      	lsls	r4, r3, #14
700076c6:	e021      	b.n	0x7000770c
700076c8:	000c      	movs	r4, r1
700076ca:	e1a0      	b.n	0x70007a0e
700076cc:	0003      	movs	r3, r0
700076ce:	e171      	b.n	0x700079b4
700076d0:	1003      	asrs	r3, r0, #32
700076d2:	2041      	movs	r0, #65	@ 0x41
700076d4:	0001      	movs	r1, r0
700076d6:	3280      	adds	r2, #128	@ 0x80
700076d8:	1083      	asrs	r3, r0, #2
700076da:	5081      	str	r1, [r0, r2]
700076dc:	0002      	movs	r2, r0
700076de:	5280      	strh	r0, [r0, r2]
700076e0:	ff1e e12f 	vrhadd.u16	d14, d14, d31
700076e4:	2000      	movs	r0, #0
700076e6:	e262      	b.n	0x70007bae
700076e8:	1000      	asrs	r0, r0, #32
700076ea:	e1a0      	b.n	0x70007a2e
700076ec:	c004      	stmia	r0!, {r2}
700076ee:	e24c      	b.n	0x70007b8a
700076f0:	023c      	lsls	r4, r7, #8
700076f2:	e1a0      	b.n	0x70007a36
700076f4:	2091      	movs	r0, #145	@ 0x91
700076f6:	e080      	b.n	0x700077fa
700076f8:	1390      	asrs	r0, r2, #14
700076fa:	e021      	b.n	0x70007740
700076fc:	00a1      	lsls	r1, r4, #2
700076fe:	e173      	b.n	0x700079e8
70007700:	1083      	asrs	r3, r0, #2
70007702:	2081      	movs	r0, #129	@ 0x81
70007704:	0002      	movs	r2, r0
70007706:	2280      	movs	r2, #128	@ 0x80
70007708:	0001      	movs	r1, r0
7000770a:	e173      	b.n	0x700079f4
7000770c:	1003      	asrs	r3, r0, #32
7000770e:	2081      	movs	r0, #129	@ 0x81
70007710:	0001      	movs	r1, r0
70007712:	2280      	movs	r2, #128	@ 0x80
70007714:	ff1e e12f 	vrhadd.u16	d14, d14, d31
70007718:	0000      	movs	r0, r0
7000771a:	21a0      	movs	r1, #160	@ 0xa0
7000771c:	1000      	asrs	r0, r0, #32
7000771e:	23a0      	movs	r3, #160	@ 0xa0
70007720:	ff1e 212f 	vrhadd.u16	d2, d14, d31
70007724:	4001      	ands	r1, r0
70007726:	e92d 0000 	stmdb	sp!, {}
7000772a:	e3a0      	b.n	0x70007e6e
7000772c:	0000      	movs	r0, r0
7000772e:	e1a0      	b.n	0x70007a72
70007730:	4002      	ands	r2, r0
70007732:	e8bd ff1e 	ldmia.w	sp!, {r1, r2, r3, r4, r8, r9, sl, fp, ip, sp, lr, pc}
70007736:	e12f      	b.n	0x70007998
70007738:	4000      	ands	r0, r0
7000773a:	e92d e102 	stmdb	sp!, {r1, r8, sp, lr, pc}
7000773e:	e211      	b.n	0x70007b64
70007740:	1000      	asrs	r0, r0, #32
70007742:	4261      	negs	r1, r4
70007744:	e040      	b.n	0x700077c8
70007746:	e03e      	b.n	0x700077c6
70007748:	2f11      	cmp	r7, #17
7000774a:	e16f      	b.n	0x70007a2c
7000774c:	3e12      	subs	r6, #18
7000774e:	e28f      	b.n	0x70007c70
70007750:	c211      	stmia	r2!, {r0, r4}
70007752:	e1a0      	b.n	0x70007a96
70007754:	cccc      	ldmia	r4!, {r2, r3, r6, r7}
70007756:	e7d3      	b.n	0x70007700
70007758:	0000      	movs	r0, r0
7000775a:	2260      	movs	r2, #96	@ 0x60
7000775c:	2007      	movs	r0, #7
7000775e:	e252      	b.n	0x70007c06
70007760:	3000      	adds	r0, #0
70007762:	e261      	b.n	0x70007c28
70007764:	121c      	asrs	r4, r3, #8
70007766:	51a0      	str	r0, [r4, r6]
70007768:	0391      	lsls	r1, r2, #14
7000776a:	500c      	str	r4, [r1, r0]
7000776c:	0013      	movs	r3, r2
7000776e:	4a00      	ldr	r2, [pc, #0]	@ (0x70007770)
70007770:	1cc1      	adds	r1, r0, #3
70007772:	e121      	b.n	0x700079b8
70007774:	00c3      	lsls	r3, r0, #3
70007776:	e133      	b.n	0x700079e0
70007778:	2000      	movs	r0, #0
7000777a:	13a0      	asrs	r0, r4, #14
7000777c:	0391      	lsls	r1, r2, #14
7000777e:	100c      	asrs	r4, r1, #32
70007780:	219c      	movs	r1, #156	@ 0x9c
70007782:	10e1      	asrs	r1, r4, #3
70007784:	001e      	movs	r6, r3
70007786:	0a00      	lsrs	r0, r0, #8
70007788:	2190      	movs	r1, #144	@ 0x90
7000778a:	e08c      	b.n	0x700078a6
7000778c:	0003      	movs	r3, r0
7000778e:	e080      	b.n	0x70007892
70007790:	039c      	lsls	r4, r3, #14
70007792:	e021      	b.n	0x700077d8
70007794:	000c      	movs	r4, r1
70007796:	e1a0      	b.n	0x70007ada
70007798:	0003      	movs	r3, r0
7000779a:	e171      	b.n	0x70007a80
7000779c:	1003      	asrs	r3, r0, #32
7000779e:	2041      	movs	r0, #65	@ 0x41
700077a0:	0001      	movs	r1, r0
700077a2:	3280      	adds	r2, #128	@ 0x80
700077a4:	1083      	asrs	r3, r0, #2
700077a6:	5081      	str	r1, [r0, r2]
700077a8:	0002      	movs	r2, r0
700077aa:	5280      	strh	r0, [r0, r2]
700077ac:	e08e      	b.n	0x700078cc
700077ae:	e1b0      	b.n	0x70007b12
700077b0:	4000      	ands	r0, r0
700077b2:	e8bd 0000 	ldmia.w	sp!, {}
700077b6:	2260      	movs	r2, #96	@ 0x60
700077b8:	1000      	asrs	r0, r0, #32
700077ba:	4261      	negs	r1, r4
700077bc:	ff1e e12f 	vrhadd.u16	d14, d14, d31
700077c0:	2000      	movs	r0, #0
700077c2:	e262      	b.n	0x70007c8a
700077c4:	1000      	asrs	r0, r0, #32
700077c6:	e1a0      	b.n	0x70007b0a
700077c8:	c004      	stmia	r0!, {r2}
700077ca:	e24c      	b.n	0x70007c66
700077cc:	023c      	lsls	r4, r7, #8
700077ce:	e1a0      	b.n	0x70007b12
700077d0:	2091      	movs	r0, #145	@ 0x91
700077d2:	e080      	b.n	0x700078d6
700077d4:	1390      	asrs	r0, r2, #14
700077d6:	e021      	b.n	0x7000781c
700077d8:	00a1      	lsls	r1, r4, #2
700077da:	e173      	b.n	0x70007ac4
700077dc:	1083      	asrs	r3, r0, #2
700077de:	2081      	movs	r0, #129	@ 0x81
700077e0:	0002      	movs	r2, r0
700077e2:	2280      	movs	r2, #128	@ 0x80
700077e4:	0001      	movs	r1, r0
700077e6:	e173      	b.n	0x70007ad0
700077e8:	1003      	asrs	r3, r0, #32
700077ea:	2081      	movs	r0, #129	@ 0x81
700077ec:	0001      	movs	r1, r0
700077ee:	2280      	movs	r2, #128	@ 0x80
700077f0:	e08e      	b.n	0x70007910
700077f2:	e1b0      	b.n	0x70007b56
700077f4:	4000      	ands	r0, r0
700077f6:	e8bd 0000 	ldmia.w	sp!, {}
700077fa:	2260      	movs	r2, #96	@ 0x60
700077fc:	1000      	asrs	r0, r0, #32
700077fe:	4261      	negs	r1, r4
70007800:	ff1e e12f 	vrhadd.u16	d14, d14, d31
70007804:	0000      	movs	r0, r0
70007806:	21a0      	movs	r1, #160	@ 0xa0
70007808:	1000      	asrs	r0, r0, #32
7000780a:	23a0      	movs	r3, #160	@ 0xa0
7000780c:	ffe6 2aff 			@ <UNDEFINED> instruction: 0xffe62aff
70007810:	4011      	ands	r1, r2
70007812:	e92d 0000 	stmdb	sp!, {}
70007816:	e3a0      	b.n	0x70007f5a
70007818:	0000      	movs	r0, r0
7000781a:	e1a0      	b.n	0x70007b5e
7000781c:	4012      	ands	r2, r2
7000781e:	e8bd e08e 	ldmia.w	sp!, {r1, r2, r3, r7, sp, lr, pc}
70007822:	e1b0      	b.n	0x70007b86
70007824:	4000      	ands	r0, r0
70007826:	e8bd 0000 	ldmia.w	sp!, {}
7000782a:	2260      	movs	r2, #96	@ 0x60
7000782c:	1000      	asrs	r0, r0, #32
7000782e:	4261      	negs	r1, r4
70007830:	ff1e e12f 	vrhadd.u16	d14, d14, d31
70007834:	fcff f4f8 	ldc2l	4, cr15, [pc], #992	@ 0x70007c18
70007838:	edf0 e6ea 	ldcl	6, cr14, [r0, #936]!	@ 0x3a8
7000783c:	e0e3      	b.n	0x70007a06
7000783e:	dadd      	bge.n	0x700077fc
70007840:	d4d7      	bmi.n	0x700077f2
70007842:	cfd2      	ldmia	r7, {r1, r4, r6, r7}
70007844:	cacc      	ldmia	r2, {r2, r3, r6, r7}
70007846:	c5c7      	stmia	r5!, {r0, r1, r2, r6, r7}
70007848:	c0c3      	stmia	r0!, {r0, r1, r6, r7}
7000784a:	bcbe      	pop	{r1, r2, r3, r4, r5, r7}
7000784c:	b8ba      			@ <UNDEFINED> instruction: 0xb8ba
7000784e:	b4b6      	push	{r1, r2, r4, r5, r7}
70007850:	b0b2      	sub	sp, #200	@ 0xc8
70007852:	acae      	add	r4, sp, #696	@ 0x2b8
70007854:	a8aa      	add	r0, sp, #680	@ 0x2a8
70007856:	a5a7      	add	r5, pc, #668	@ (adr r5, 0x70007af4)
70007858:	a2a3      	add	r2, pc, #652	@ (adr r2, 0x70007ae8)
7000785a:	9fa0      	ldr	r7, [sp, #640]	@ 0x280
7000785c:	9c9d      	ldr	r4, [sp, #628]	@ 0x274
7000785e:	999a      	ldr	r1, [sp, #616]	@ 0x268
70007860:	9697      	str	r6, [sp, #604]	@ 0x25c
70007862:	9394      	str	r3, [sp, #592]	@ 0x250
70007864:	9092      	str	r0, [sp, #584]	@ 0x248
70007866:	8e8f      	ldrh	r7, [r1, #52]	@ 0x34
70007868:	8c8d      	ldrh	r5, [r1, #36]	@ 0x24
7000786a:	898a      	ldrh	r2, [r1, #12]
7000786c:	8788      	strh	r0, [r1, #60]	@ 0x3c
7000786e:	8586      	strh	r6, [r0, #44]	@ 0x2c
70007870:	8384      	strh	r4, [r0, #28]
70007872:	8182      	strh	r2, [r0, #12]
70007874:	0080      	lsls	r0, r0, #2
70007876:	0000      	movs	r0, r0
70007878:	0030      	movs	r0, r6
7000787a:	e92d 0001 	stmdb	sp!, {r0}
7000787e:	e350      	b.n	0x70007f22
70007880:	5601      	ldrsb	r1, [r0, r0]
70007882:	e3a0      	b.n	0x70007fc6
70007884:	4081      	lsls	r1, r0
70007886:	e0a5      	b.n	0x700079d4
70007888:	0001      	movs	r1, r0
7000788a:	e352      	b.n	0x70007f32
7000788c:	5083      	str	r3, [r0, r2]
7000788e:	e0a5      	b.n	0x700079dc
70007890:	0601      	lsls	r1, r0, #24
70007892:	e374      	b.n	0x70007f7e
70007894:	0601      	lsls	r1, r0, #24
70007896:	9375      	str	r3, [sp, #468]	@ 0x1d4
70007898:	0004      	movs	r4, r0
7000789a:	8a00      	ldrh	r0, [r0, #16]
7000789c:	0601      	lsls	r1, r0, #24
7000789e:	e354      	b.n	0x70007f4a
700078a0:	0030      	movs	r0, r6
700078a2:	e8bd 1003 	ldmia.w	sp!, {r0, r1, ip}
700078a6:	21a0      	movs	r1, #160	@ 0xa0
700078a8:	0002      	movs	r2, r0
700078aa:	21a0      	movs	r1, #160	@ 0xa0
700078ac:	007b      	lsls	r3, r7, #1
700078ae:	ea00 0601 	and.w	r6, r0, r1
700078b2:	e374      	b.n	0x70007f9e
700078b4:	0030      	movs	r0, r6
700078b6:	e8bd c901 	ldmia.w	sp!, {r0, r8, fp, lr, pc}
700078ba:	838c      	strh	r4, [r1, #28]
700078bc:	c902      	ldmia	r1, {r1}
700078be:	938c      	str	r3, [sp, #560]	@ 0x230
700078c0:	0000      	movs	r0, r0
700078c2:	e1a0      	b.n	0x70007c06
700078c4:	0070      	lsls	r0, r6, #1
700078c6:	e31c      	b.n	0x70007f02
700078c8:	2001      	movs	r0, #1
700078ca:	01a0      	lsls	r0, r4, #6
700078cc:	000f      	movs	r7, r1
700078ce:	e92d 0003 	stmdb	sp!, {r0, r1}
700078d2:	e92d 500c 	stmdb	sp!, {r2, r3, ip, lr}
700078d6:	e92d 00a8 	stmdb	sp!, {r3, r5, r7}
700078da:	eb00 500c 	add.w	r0, r0, ip, lsl #20
700078de:	e8bd 2000 	ldmia.w	sp!, {sp}
700078e2:	e1a0      	b.n	0x70007c26
700078e4:	0003      	movs	r3, r0
700078e6:	e8bd 1000 	ldmia.w	sp!, {ip}
700078ea:	e592      	b.n	0x70007412
700078ec:	3901      	subs	r1, #1
700078ee:	e1cc      	b.n	0x70007c8a
700078f0:	3203      	adds	r2, #3
700078f2:	e213      	b.n	0x70007d1c
700078f4:	c101      	stmia	r1!, {r0}
700078f6:	138c      	asrs	r4, r1, #14
700078f8:	308c      	adds	r0, #140	@ 0x8c
700078fa:	e1a0      	b.n	0x70007c3e
700078fc:	3da3      	subs	r5, #163	@ 0xa3
700078fe:	e1a0      	b.n	0x70007c42
70007900:	1003      	asrs	r3, r0, #32
70007902:	e181      	b.n	0x70007c08
70007904:	3507      	adds	r5, #7
70007906:	e201      	b.n	0x70007d0c
70007908:	c003      	stmia	r0!, {r0, r1}
7000790a:	e18c      	b.n	0x70007c26
7000790c:	300f      	adds	r0, #15
7000790e:	e20c      	b.n	0x70007d2a
70007910:	0008      	movs	r0, r1
70007912:	e333      	b.n	0x70007f7c
70007914:	3070      	adds	r0, #112	@ 0x70
70007916:	120c      	asrs	r4, r1, #8
70007918:	1000      	asrs	r0, r0, #32
7000791a:	e582      	b.n	0x70007422
7000791c:	c183      	stmia	r1!, {r0, r1, r7}
7000791e:	118c      	asrs	r4, r1, #6
70007920:	3802      	subs	r0, #2
70007922:	03a0      	lsls	r0, r4, #14
70007924:	300c      	adds	r0, #12
70007926:	01d3      	lsls	r3, r2, #7
70007928:	c503      	stmia	r5!, {r0, r1}
7000792a:	038c      	lsls	r4, r1, #14
7000792c:	0202      	lsls	r2, r0, #8
7000792e:	e31c      	b.n	0x70007f6a
70007930:	000d      	movs	r5, r1
70007932:	1a00      	subs	r0, r0, r0
70007934:	0201      	lsls	r1, r0, #8
70007936:	e31c      	b.n	0x70007f72
70007938:	0007      	movs	r7, r0
7000793a:	1a00      	subs	r0, r0, r0
7000793c:	0101      	lsls	r1, r0, #4
7000793e:	e31c      	b.n	0x70007f7a
70007940:	001b      	movs	r3, r3
70007942:	1a00      	subs	r0, r0, r0
70007944:	0302      	lsls	r2, r0, #12
70007946:	e31c      	b.n	0x70007f82
70007948:	000b      	movs	r3, r1
7000794a:	1a00      	subs	r0, r0, r0
7000794c:	0c01      	lsrs	r1, r0, #16
7000794e:	e311      	b.n	0x70007f74
70007950:	000f      	movs	r7, r1
70007952:	e8bd 0028 	ldmia.w	sp!, {r3, r5}
70007956:	0a00      	lsrs	r0, r0, #8
70007958:	f41f eaff 	bfcsel	10, 0x70006f5a, 14, vc
7000795c:	0b01      	lsrs	r1, r0, #12
7000795e:	e311      	b.n	0x70007f84
70007960:	000f      	movs	r7, r1
70007962:	e8bd 0018 	ldmia.w	sp!, {r3, r4}
70007966:	0a00      	lsrs	r0, r0, #8
70007968:	f41b eaff 	bfcsel	10, 0x70006f6a, 14, vs
7000796c:	0b02      	lsrs	r2, r0, #12
7000796e:	e311      	b.n	0x70007f94
70007970:	000f      	movs	r7, r1
70007972:	e8bd 0012 	ldmia.w	sp!, {r1, r4}
70007976:	0a00      	lsrs	r0, r0, #8
70007978:	f417 eaff 	bfcsel	10, 0x70006f7a, 14, pl
7000797c:	0c02      	lsrs	r2, r0, #16
7000797e:	e311      	b.n	0x70007fa4
70007980:	000f      	movs	r7, r1
70007982:	e8bd f414 	ldmia.w	sp!, {r2, r4, sl, ip, sp, lr, pc}
70007986:	1aff      	subs	r7, r7, r3
70007988:	0040      	lsls	r0, r0, #1
7000798a:	e31c      	b.n	0x70007fc6
7000798c:	0106      	lsls	r6, r0, #4
7000798e:	13a0      	asrs	r0, r4, #14
70007990:	ff1e 112f 	vrhadd.u16	d1, d14, d31
70007994:	0010      	movs	r0, r2
70007996:	e31c      	b.n	0x70007fd2
70007998:	2002      	movs	r0, #2
7000799a:	0020      	movs	r0, r4
7000799c:	2003      	movs	r0, #3
7000799e:	1021      	asrs	r1, r4, #32
700079a0:	3000      	adds	r0, #0
700079a2:	e3a0      	b.n	0x700080e6
700079a4:	000f      	movs	r7, r1
700079a6:	e20c      	b.n	0x70007dc2
700079a8:	000a      	movs	r2, r1
700079aa:	e350      	b.n	0x7000804e
700079ac:	2000      	movs	r0, #0
700079ae:	03e0      	lsls	r0, r4, #15
700079b0:	0009      	movs	r1, r1
700079b2:	ea00 0a01 	and.w	sl, r0, r1
700079b6:	e311      	b.n	0x70007fdc
700079b8:	000f      	movs	r7, r1
700079ba:	e8bd 0000 	ldmia.w	sp!, {}
700079be:	0a00      	lsrs	r0, r0, #8
700079c0:	f405 eaff 	bfcsel	10, 0x70006fc2, 12, ne
700079c4:	0010      	movs	r0, r2
700079c6:	e31c      	b.n	0x70008002
700079c8:	ff1e e12f 	vrhadd.u16	d14, d14, d31
700079cc:	c201      	stmia	r2!, {r0}
700079ce:	e3cc      	b.n	0x7000816a
700079d0:	0080      	lsls	r0, r0, #2
700079d2:	e31c      	b.n	0x7000800e
700079d4:	2102      	movs	r1, #2
700079d6:	1201      	asrs	r1, r0, #8
700079d8:	2102      	movs	r1, #2
700079da:	0200      	lsls	r0, r0, #8
700079dc:	0010      	movs	r0, r2
700079de:	e31c      	b.n	0x7000801a
700079e0:	0094      	lsls	r4, r2, #2
700079e2:	128f      	asrs	r7, r1, #10
700079e4:	2102      	movs	r1, #2
700079e6:	e202      	b.n	0x70007dee
700079e8:	0003      	movs	r3, r0
700079ea:	1890      	adds	r0, r2, r2
700079ec:	0098      	lsls	r0, r3, #2
700079ee:	059f      	lsls	r7, r3, #22
700079f0:	1002      	asrs	r2, r0, #32
700079f2:	1181      	asrs	r1, r0, #6
700079f4:	0002      	movs	r2, r0
700079f6:	0180      	lsls	r0, r0, #6
700079f8:	ff1e e12f 	vrhadd.u16	d14, d14, d31
700079fc:	0040      	lsls	r0, r0, #1
700079fe:	e31c      	b.n	0x7000803a
70007a00:	0013      	movs	r3, r2
70007a02:	1a00      	subs	r0, r0, r0
70007a04:	0903      	lsrs	r3, r0, #4
70007a06:	e31c      	b.n	0x70008042
70007a08:	000c      	movs	r4, r1
70007a0a:	0a00      	lsrs	r0, r0, #8
70007a0c:	0902      	lsrs	r2, r0, #4
70007a0e:	e31c      	b.n	0x7000804a
70007a10:	0002      	movs	r2, r0
70007a12:	11a0      	asrs	r0, r4, #6
70007a14:	2c01      	cmp	r4, #1
70007a16:	e20c      	b.n	0x70007e32
70007a18:	1003      	asrs	r3, r0, #32
70007a1a:	11a0      	asrs	r0, r4, #6
70007a1c:	c0a2      	stmia	r0!, {r1, r5, r7}
70007a1e:	102c      	asrs	r4, r5, #32
70007a20:	0080      	lsls	r0, r0, #2
70007a22:	e31c      	b.n	0x7000805e
70007a24:	0501      	lsls	r1, r0, #20
70007a26:	0380      	lsls	r0, r0, #14
70007a28:	1702      	asrs	r2, r0, #28
70007a2a:	1381      	asrs	r1, r0, #14
70007a2c:	31ac      	adds	r1, #172	@ 0xac
70007a2e:	e02c      	b.n	0x70007a8a
70007a30:	0010      	movs	r0, r2
70007a32:	e313      	b.n	0x7000805c
70007a34:	c00f      	stmia	r0!, {r0, r1, r2, r3}
70007a36:	13cc      	asrs	r4, r1, #15
70007a38:	c008      	stmia	r0!, {r3}
70007a3a:	138c      	asrs	r4, r1, #14
70007a3c:	0017      	movs	r7, r2
70007a3e:	ea00 0010 	and.w	r0, r0, r0, lsr #32
70007a42:	e31c      	b.n	0x7000807e
70007a44:	3048      	adds	r0, #72	@ 0x48
70007a46:	128f      	asrs	r7, r1, #10
70007a48:	004c      	lsls	r4, r1, #1
70007a4a:	059f      	lsls	r7, r3, #22
70007a4c:	0003      	movs	r3, r0
70007a4e:	1893      	adds	r3, r2, r2
70007a50:	0012      	movs	r2, r2
70007a52:	ea00 0080 	and.w	r0, r0, r0, lsl #2
70007a56:	e31c      	b.n	0x70008092
70007a58:	2102      	movs	r1, #2
70007a5a:	1201      	asrs	r1, r0, #8
70007a5c:	2102      	movs	r1, #2
70007a5e:	0200      	lsls	r0, r0, #8
70007a60:	0010      	movs	r0, r2
70007a62:	e31c      	b.n	0x7000809e
70007a64:	3028      	adds	r0, #40	@ 0x28
70007a66:	128f      	asrs	r7, r1, #10
70007a68:	002c      	movs	r4, r5
70007a6a:	059f      	lsls	r7, r3, #22
70007a6c:	0003      	movs	r3, r0
70007a6e:	1893      	adds	r3, r2, r2
70007a70:	0002      	movs	r2, r0
70007a72:	0180      	lsls	r0, r0, #6
70007a74:	1002      	asrs	r2, r0, #32
70007a76:	1181      	asrs	r1, r0, #6
70007a78:	0008      	movs	r0, r1
70007a7a:	ea00 0000 	and.w	r0, r0, r0
70007a7e:	0000      	movs	r0, r0
70007a80:	0000      	movs	r0, r0
70007a82:	7ff0      	ldrb	r0, [r6, #31]
70007a84:	ffff ffff 			@ <UNDEFINED> instruction: 0xffffffff
70007a88:	ffff 7fef 	vqrdmlsh.s<illegal width 64>	<illegal reg q11.5>, <illegal reg q15.5>, d31[0]
70007a8c:	0000      	movs	r0, r0
70007a8e:	7f80      	ldrb	r0, [r0, #30]
70007a90:	ffff 7f7f 	vcvt.u32.f32	<illegal reg q11.5>, <illegal reg q15.5>, #1
70007a94:	0000      	movs	r0, r0
70007a96:	0000      	movs	r0, r0
70007a98:	0000      	movs	r0, r0
70007a9a:	7ff8      	ldrb	r0, [r7, #31]
70007a9c:	0000      	movs	r0, r0
70007a9e:	7fc0      	ldrb	r0, [r0, #31]
70007aa0:	300f      	adds	r0, #15
70007aa2:	e20c      	b.n	0x70007ebe
70007aa4:	0009      	movs	r1, r1
70007aa6:	e353      	b.n	0x70008150
70007aa8:	0008      	movs	r0, r1
70007aaa:	03a0      	lsls	r0, r4, #14
70007aac:	f3d3 0aff 			@ <UNDEFINED> instruction: 0xf3d30aff
70007ab0:	000a      	movs	r2, r1
70007ab2:	e353      	b.n	0x7000815c
70007ab4:	001d      	movs	r5, r3
70007ab6:	0a00      	lsrs	r0, r0, #8
70007ab8:	0008      	movs	r0, r1
70007aba:	e353      	b.n	0x70008164
70007abc:	ff1e 112f 	vrhadd.u16	d1, d14, d31
70007ac0:	0040      	lsls	r0, r0, #1
70007ac2:	031c      	lsls	r4, r3, #12
70007ac4:	001c      	movs	r4, r3
70007ac6:	0a00      	lsrs	r0, r0, #8
70007ac8:	0801      	lsrs	r1, r0, #32
70007aca:	e31c      	b.n	0x70008106
70007acc:	0014      	movs	r4, r2
70007ace:	1a00      	subs	r0, r0, r0
70007ad0:	0020      	movs	r0, r4
70007ad2:	e31c      	b.n	0x7000810e
70007ad4:	0009      	movs	r1, r1
70007ad6:	1a00      	subs	r0, r0, r0
70007ad8:	0010      	movs	r0, r2
70007ada:	e31c      	b.n	0x70008116
70007adc:	2000      	movs	r0, #0
70007ade:	01a0      	lsls	r0, r4, #6
70007ae0:	2001      	movs	r0, #1
70007ae2:	11a0      	asrs	r0, r4, #6
70007ae4:	0102      	lsls	r2, r0, #4
70007ae6:	03e0      	lsls	r0, r4, #15
70007ae8:	1102      	asrs	r2, r0, #4
70007aea:	13e0      	asrs	r0, r4, #15
70007aec:	0000      	movs	r0, r0
70007aee:	13e0      	asrs	r0, r4, #15
70007af0:	0102      	lsls	r2, r0, #4
70007af2:	e312      	b.n	0x7000811a
70007af4:	0000      	movs	r0, r0
70007af6:	11e0      	asrs	r0, r4, #7
70007af8:	1001      	asrs	r1, r0, #32
70007afa:	11e0      	asrs	r0, r4, #7
70007afc:	ff1e e12f 	vrhadd.u16	d14, d14, d31
70007b00:	0010      	movs	r0, r2
70007b02:	e31c      	b.n	0x7000813e
70007b04:	2000      	movs	r0, #0
70007b06:	01a0      	lsls	r0, r4, #6
70007b08:	2001      	movs	r0, #1
70007b0a:	11a0      	asrs	r0, r4, #6
70007b0c:	0000      	movs	r0, r0
70007b0e:	e3e0      	b.n	0x700082d2
70007b10:	0102      	lsls	r2, r0, #4
70007b12:	e312      	b.n	0x7000813a
70007b14:	1000      	asrs	r0, r0, #32
70007b16:	e3e0      	b.n	0x700082da
70007b18:	0000      	movs	r0, r0
70007b1a:	11e0      	asrs	r0, r4, #7
70007b1c:	1001      	asrs	r1, r0, #32
70007b1e:	11e0      	asrs	r0, r4, #7
70007b20:	ff1e e12f 	vrhadd.u16	d14, d14, d31
70007b24:	0000      	movs	r0, r0
70007b26:	e3a0      	b.n	0x7000826a
70007b28:	1000      	asrs	r0, r0, #32
70007b2a:	e3a0      	b.n	0x7000826e
70007b2c:	ff1e e12f 	vrhadd.u16	d14, d14, d31
70007b30:	0040      	lsls	r0, r0, #1
70007b32:	e31c      	b.n	0x7000816e
70007b34:	0102      	lsls	r2, r0, #4
70007b36:	13a0      	asrs	r0, r4, #14
70007b38:	ff1e e12f 	vrhadd.u16	d14, d14, d31
70007b3c:	0010      	movs	r0, r2
70007b3e:	e31c      	b.n	0x7000817a
70007b40:	0004      	movs	r4, r0
70007b42:	0a00      	lsrs	r0, r0, #8
70007b44:	320f      	adds	r2, #15
70007b46:	e3c0      	b.n	0x700082ca
70007b48:	24ff      	movs	r4, #255	@ 0xff
70007b4a:	e200      	b.n	0x70007f4e
70007b4c:	11a3      	asrs	r3, r4, #6
70007b4e:	e182      	b.n	0x70007e56
70007b50:	0e83      	lsrs	r3, r0, #26
70007b52:	e1a0      	b.n	0x70007e96
70007b54:	ff1e e12f 	vrhadd.u16	d14, d14, d31
70007b58:	020e      	lsls	r6, r1, #8
70007b5a:	e200      	b.n	0x70007f5e
70007b5c:	24ff      	movs	r4, #255	@ 0xff
70007b5e:	e3c1      	b.n	0x700082e4
70007b60:	2000      	movs	r0, #0
70007b62:	e182      	b.n	0x70007e6a
70007b64:	04ff      	lsls	r7, r7, #19
70007b66:	e201      	b.n	0x70007f6c
70007b68:	0ee2      	lsrs	r2, r4, #27
70007b6a:	e180      	b.n	0x70007e6e
70007b6c:	ff1e e12f 	vrhadd.u16	d14, d14, d31
70007b70:	4001      	ands	r1, r0
70007b72:	e92d f3c1 	stmdb	sp!, {r0, r6, r7, r8, r9, ip, sp, lr, pc}
70007b76:	ebff 4001 			@ <UNDEFINED> instruction: 0xebff4001
70007b7a:	e8bd ff1e 	ldmia.w	sp!, {r1, r2, r3, r4, r8, r9, sl, fp, ip, sp, lr, pc}
70007b7e:	e12f      	b.n	0x70007de0
70007b80:	0004      	movs	r4, r0
70007b82:	e59f      	b.n	0x700076c4
70007b84:	ff1e e12f 	vrhadd.u16	d14, d14, d31
70007b88:	ff1e e12f 	vrhadd.u16	d14, d14, d31
70007b8c:	2ffc      	cmp	r7, #252	@ 0xfc
70007b8e:	0001      	movs	r1, r0
70007b90:	100c      	asrs	r4, r1, #32
70007b92:	e59f      	b.n	0x700076d4
70007b94:	0018      	movs	r0, r3
70007b96:	e3a0      	b.n	0x700082da
70007b98:	3456      	adds	r4, #86	@ 0x56
70007b9a:	ef12 ff1e 	vrecps.f16	d15, d2, d14
70007b9e:	e12f      	b.n	0x70007e00
70007ba0:	0008      	movs	r0, r1
70007ba2:	0000      	movs	r0, r0
70007ba4:	0026      	movs	r6, r4
70007ba6:	0002      	movs	r2, r0
70007ba8:	ff1e e12f 	vrhadd.u16	d14, d14, d31
70007bac:	0100      	lsls	r0, r0, #4
70007bae:	0000      	movs	r0, r0
70007bb0:	0106      	lsls	r6, r0, #4
70007bb2:	0000      	movs	r0, r0
70007bb4:	0106      	lsls	r6, r0, #4
70007bb6:	0000      	movs	r0, r0
70007bb8:	0100      	lsls	r0, r0, #4
70007bba:	0000      	movs	r0, r0
70007bbc:	5370      	strh	r0, [r6, r5]
70007bbe:	6168      	str	r0, [r5, #20]
70007bc0:	6572      	str	r2, [r6, #84]	@ 0x54
70007bc2:	4464      	add	r4, ip
70007bc4:	7461      	strb	r1, [r4, #17]
70007bc6:	4861      	ldr	r0, [pc, #388]	@ (0x70007d4c)
70007bc8:	6165      	str	r5, [r4, #20]
70007bca:	6564      	str	r4, [r4, #84]	@ 0x54
70007bcc:	2d72      	cmp	r5, #114	@ 0x72
70007bce:	6d3e      	ldr	r6, [r7, #80]	@ 0x50
70007bd0:	705f      	strb	r7, [r3, #1]
70007bd2:	7961      	ldrb	r1, [r4, #5]
70007bd4:	6f6c      	ldr	r4, [r5, #116]	@ 0x74
70007bd6:	6461      	str	r1, [r4, #68]	@ 0x44
70007bd8:	305b      	adds	r0, #91	@ 0x5b
70007bda:	205d      	movs	r0, #93	@ 0x5d
70007bdc:	3d3d      	subs	r5, #61	@ 0x3d
70007bde:	5420      	strb	r0, [r4, r0]
70007be0:	564c      	ldrsb	r4, [r1, r1]
70007be2:	535f      	strh	r7, [r3, r5]
70007be4:	5a49      	ldrh	r1, [r1, r1]
70007be6:	5f45      	ldrsh	r5, [r0, r5]
70007be8:	4552      	cmp	r2, sl
70007bea:	4f43      	ldr	r7, [pc, #268]	@ (0x70007cf8)
70007bec:	4452      	add	r2, sl
70007bee:	2620      	movs	r6, #32
70007bf0:	2026      	movs	r0, #38	@ 0x26
70007bf2:	5370      	strh	r0, [r6, r5]
70007bf4:	6168      	str	r0, [r5, #20]
70007bf6:	6572      	str	r2, [r6, #84]	@ 0x54
70007bf8:	4464      	add	r4, ip
70007bfa:	7461      	strb	r1, [r4, #17]
70007bfc:	4861      	ldr	r0, [pc, #388]	@ (0x70007d84)
70007bfe:	6165      	str	r5, [r4, #20]
70007c00:	6564      	str	r4, [r4, #84]	@ 0x54
70007c02:	2d72      	cmp	r5, #114	@ 0x72
70007c04:	6d3e      	ldr	r6, [r7, #80]	@ 0x50
70007c06:	705f      	strb	r7, [r3, #1]
70007c08:	7961      	ldrb	r1, [r4, #5]
70007c0a:	6f6c      	ldr	r4, [r5, #116]	@ 0x74
70007c0c:	6461      	str	r1, [r4, #68]	@ 0x44
70007c0e:	315b      	adds	r1, #91	@ 0x5b
70007c10:	205d      	movs	r0, #93	@ 0x5d
70007c12:	3d3d      	subs	r5, #61	@ 0x3d
70007c14:	3420      	adds	r4, #32
70007c16:	0000      	movs	r0, r0
70007c18:	4c42      	ldr	r4, [pc, #264]	@ (0x70007d24)
70007c1a:	535f      	strh	r7, [r3, r5]
70007c1c:	6168      	str	r0, [r5, #20]
70007c1e:	6572      	str	r2, [r6, #84]	@ 0x54
70007c20:	5f64      	ldrsh	r4, [r4, r5]
70007c22:	6e69      	ldr	r1, [r5, #100]	@ 0x64
70007c24:	6f66      	ldr	r6, [r4, #116]	@ 0x74
70007c26:	6d2e      	ldr	r6, [r5, #80]	@ 0x50
70007c28:	625f      	str	r7, [r3, #36]	@ 0x24
70007c2a:	5f6c      	ldrsh	r4, [r5, r5]
70007c2c:	616d      	str	r5, [r5, #20]
70007c2e:	6975      	ldr	r5, [r6, #20]
70007c30:	735f      	strb	r7, [r3, #13]
70007c32:	6168      	str	r0, [r5, #20]
70007c34:	6572      	str	r2, [r6, #84]	@ 0x54
70007c36:	645f      	str	r7, [r3, #68]	@ 0x44
70007c38:	7461      	strb	r1, [r4, #17]
70007c3a:	2e61      	cmp	r6, #97	@ 0x61
70007c3c:	5f6d      	ldrsh	r5, [r5, r5]
70007c3e:	6c62      	ldr	r2, [r4, #68]	@ 0x44
70007c40:	6d5f      	ldr	r7, [r3, #84]	@ 0x54
70007c42:	6761      	str	r1, [r4, #116]	@ 0x74
70007c44:	6369      	str	r1, [r5, #52]	@ 0x34
70007c46:	685f      	ldr	r7, [r3, #4]
70007c48:	6165      	str	r5, [r4, #20]
70007c4a:	2064      	movs	r0, #100	@ 0x64
70007c4c:	3d3d      	subs	r5, #61	@ 0x3d
70007c4e:	4220      	tst	r0, r4
70007c50:	5f4c      	ldrsh	r4, [r1, r5]
70007c52:	4e49      	ldr	r6, [pc, #292]	@ (0x70007d78)
70007c54:	4f46      	ldr	r7, [pc, #280]	@ (0x70007d70)
70007c56:	565f      	ldrsb	r7, [r3, r1]
70007c58:	0031      	movs	r1, r6
70007c5a:	3056      	adds	r0, #86	@ 0x56
70007c5c:	3530      	adds	r5, #48	@ 0x30
70007c5e:	0000      	movs	r0, r0
70007c60:	7100      	strb	r0, [r0, #4]
70007c62:	0002      	movs	r2, r0
70007c64:	49f0      	ldr	r1, [pc, #960]	@ (0x70008028)
70007c66:	0002      	movs	r2, r0
70007c68:	22e0      	movs	r2, #224	@ 0xe0
70007c6a:	0002      	movs	r2, r0
70007c6c:	fbd0 0001 			@ <UNDEFINED> instruction: 0xfbd00001
70007c70:	d4c0      	bmi.n	0x70007bf4
70007c72:	0001      	movs	r1, r0
70007c74:	adb0      	add	r5, sp, #704	@ 0x2c0
70007c76:	0001      	movs	r1, r0
70007c78:	86a0      	strh	r0, [r4, #52]	@ 0x34
70007c7a:	0001      	movs	r1, r0
70007c7c:	5f90      	ldrsh	r0, [r2, r6]
70007c7e:	0001      	movs	r1, r0
70007c80:	3880      	subs	r0, #128	@ 0x80
70007c82:	0001      	movs	r1, r0
70007c84:	1170      	asrs	r0, r6, #5
70007c86:	0001      	movs	r1, r0
70007c88:	ea60 0000 	orn	r0, r0, r0
70007c8c:	c350      	stmia	r3!, {r4, r6}
70007c8e:	0000      	movs	r0, r0
70007c90:	9c40      	ldr	r4, [sp, #256]	@ 0x100
70007c92:	0000      	movs	r0, r0
70007c94:	7530      	strb	r0, [r6, #20]
70007c96:	0000      	movs	r0, r0
70007c98:	4e20      	ldr	r6, [pc, #128]	@ (0x70007d1c)
70007c9a:	0000      	movs	r0, r0
70007c9c:	1b58      	subs	r0, r3, r5
70007c9e:	0000      	movs	r0, r0
70007ca0:	1640      	asrs	r0, r0, #25
70007ca2:	0040      	lsls	r0, r0, #1
70007ca4:	d990      	bls.n	0x70007bc8
70007ca6:	0040      	lsls	r0, r0, #1
70007ca8:	9ce0      	ldr	r4, [sp, #896]	@ 0x380
70007caa:	0041      	lsls	r1, r0, #1
70007cac:	6030      	str	r0, [r6, #0]
70007cae:	0042      	lsls	r2, r0, #1
70007cb0:	2380      	movs	r3, #128	@ 0x80
70007cb2:	0043      	lsls	r3, r0, #1
70007cb4:	e6d0      	b.n	0x70007a58
70007cb6:	0043      	lsls	r3, r0, #1
70007cb8:	aa20      	add	r2, sp, #128	@ 0x80
70007cba:	0044      	lsls	r4, r0, #1
70007cbc:	6d70      	ldr	r0, [r6, #84]	@ 0x54
70007cbe:	0045      	lsls	r5, r0, #1
70007cc0:	30c0      	adds	r0, #192	@ 0xc0
70007cc2:	0046      	lsls	r6, r0, #1
70007cc4:	8d80      	ldrh	r0, [r0, #44]	@ 0x2c
70007cc6:	005b      	lsls	r3, r3, #1
70007cc8:	2ea0      	cmp	r6, #160	@ 0xa0
70007cca:	0063      	lsls	r3, r4, #1
70007ccc:	cfc0      	ldmia	r7, {r6, r7}
70007cce:	006a      	lsls	r2, r5, #1
70007cd0:	70e0      	strb	r0, [r4, #3]
70007cd2:	0072      	lsls	r2, r6, #1
70007cd4:	b320      	cbz	r0, 0x70007d20
70007cd6:	0081      	lsls	r1, r0, #2
70007cd8:	f560 0090 	sbc.w	r0, r0, #4718592	@ 0x480000
70007cdc:	37a0      	adds	r7, #160	@ 0xa0
70007cde:	00a0      	lsls	r0, r4, #2
70007ce0:	fe00 0000 	cdp2	0, 0, cr0, cr0, cr0, {0}
70007ce4:	0005      	movs	r5, r0
70007ce6:	0000      	movs	r0, r0
70007ce8:	0100      	lsls	r0, r0, #4
70007cea:	a070      	add	r0, pc, #448	@ (adr r0, 0x70007eac)
70007cec:	0000      	movs	r0, r0
70007cee:	0000      	movs	r0, r0
70007cf0:	0021      	movs	r1, r4
70007cf2:	0000      	movs	r0, r0
70007cf4:	0120      	lsls	r0, r4, #4
70007cf6:	a070      	add	r0, pc, #448	@ (adr r0, 0x70007eb8)
70007cf8:	0000      	movs	r0, r0
70007cfa:	0000      	movs	r0, r0
70007cfc:	0008      	movs	r0, r1
70007cfe:	0000      	movs	r0, r0
70007d00:	0130      	lsls	r0, r6, #4
70007d02:	a070      	add	r0, pc, #448	@ (adr r0, 0x70007ec4)
70007d04:	0000      	movs	r0, r0
70007d06:	0000      	movs	r0, r0
70007d08:	000c      	movs	r4, r1
70007d0a:	0000      	movs	r0, r0
70007d0c:	0150      	lsls	r0, r2, #5
70007d0e:	a070      	add	r0, pc, #448	@ (adr r0, 0x70007ed0)
70007d10:	0000      	movs	r0, r0
70007d12:	0000      	movs	r0, r0
70007d14:	000d      	movs	r5, r1
70007d16:	0000      	movs	r0, r0
70007d18:	0160      	lsls	r0, r4, #5
70007d1a:	a070      	add	r0, pc, #448	@ (adr r0, 0x70007edc)
70007d1c:	0000      	movs	r0, r0
70007d1e:	0000      	movs	r0, r0
70007d20:	000f      	movs	r7, r1
70007d22:	0000      	movs	r0, r0
70007d24:	0180      	lsls	r0, r0, #6
70007d26:	a070      	add	r0, pc, #448	@ (adr r0, 0x70007ee8)
70007d28:	0000      	movs	r0, r0
70007d2a:	0000      	movs	r0, r0
70007d2c:	0010      	movs	r0, r2
70007d2e:	0000      	movs	r0, r0
70007d30:	0190      	lsls	r0, r2, #6
70007d32:	a070      	add	r0, pc, #448	@ (adr r0, 0x70007ef4)
70007d34:	0000      	movs	r0, r0
70007d36:	0000      	movs	r0, r0
70007d38:	0001      	movs	r1, r0
70007d3a:	0000      	movs	r0, r0
70007d3c:	01a0      	lsls	r0, r4, #6
70007d3e:	a070      	add	r0, pc, #448	@ (adr r0, 0x70007f00)
70007d40:	0000      	movs	r0, r0
70007d42:	0000      	movs	r0, r0
70007d44:	0011      	movs	r1, r2
70007d46:	0000      	movs	r0, r0
70007d48:	01b0      	lsls	r0, r6, #6
70007d4a:	a070      	add	r0, pc, #448	@ (adr r0, 0x70007f0c)
70007d4c:	0000      	movs	r0, r0
70007d4e:	0000      	movs	r0, r0
70007d50:	0012      	movs	r2, r2
70007d52:	0000      	movs	r0, r0
70007d54:	01c0      	lsls	r0, r0, #7
70007d56:	a070      	add	r0, pc, #448	@ (adr r0, 0x70007f18)
70007d58:	0000      	movs	r0, r0
70007d5a:	0000      	movs	r0, r0
70007d5c:	0023      	movs	r3, r4
70007d5e:	0000      	movs	r0, r0
70007d60:	01d0      	lsls	r0, r2, #7
70007d62:	a070      	add	r0, pc, #448	@ (adr r0, 0x70007f24)
70007d64:	0000      	movs	r0, r0
70007d66:	0000      	movs	r0, r0
70007d68:	001d      	movs	r5, r3
70007d6a:	0000      	movs	r0, r0
70007d6c:	0200      	lsls	r0, r0, #8
70007d6e:	a070      	add	r0, pc, #448	@ (adr r0, 0x70007f30)
70007d70:	0000      	movs	r0, r0
70007d72:	0000      	movs	r0, r0
70007d74:	001b      	movs	r3, r3
70007d76:	0000      	movs	r0, r0
70007d78:	0230      	lsls	r0, r6, #8
70007d7a:	a070      	add	r0, pc, #448	@ (adr r0, 0x70007f3c)
70007d7c:	0000      	movs	r0, r0
70007d7e:	0000      	movs	r0, r0
70007d80:	0000      	movs	r0, r0
70007d82:	0001      	movs	r1, r0
70007d84:	0000      	movs	r0, r0
70007d86:	0001      	movs	r1, r0
70007d88:	0002      	movs	r2, r0
70007d8a:	0001      	movs	r1, r0
70007d8c:	0002      	movs	r2, r0
70007d8e:	0004      	movs	r4, r0
70007d90:	0002      	movs	r2, r0
70007d92:	0003      	movs	r3, r0
70007d94:	01f0      	lsls	r0, r6, #7
70007d96:	0004      	movs	r4, r0
70007d98:	0004      	movs	r4, r0
70007d9a:	0400      	lsls	r0, r0, #16
70007d9c:	000a      	movs	r2, r1
70007d9e:	0005      	movs	r5, r0
70007da0:	0800      	lsrs	r0, r0, #32
70007da2:	000b      	movs	r3, r1
70007da4:	0006      	movs	r6, r0
70007da6:	1000      	asrs	r0, r0, #32
70007da8:	000c      	movs	r4, r1
70007daa:	0007      	movs	r7, r0
70007dac:	2000      	movs	r0, #0
70007dae:	000d      	movs	r5, r1
70007db0:	0008      	movs	r0, r1
70007db2:	4000      	ands	r0, r0
70007db4:	000e      	movs	r6, r1
70007db6:	0009      	movs	r1, r1
70007db8:	8000      	strh	r0, [r0, #0]
70007dba:	000f      	movs	r7, r1
70007dbc:	040a      	lsls	r2, r1, #16
70007dbe:	00f0      	lsls	r0, r6, #3
70007dc0:	0004      	movs	r4, r0
70007dc2:	080b      	lsrs	r3, r1, #32
70007dc4:	0030      	movs	r0, r6
70007dc6:	0004      	movs	r4, r0
70007dc8:	080c      	lsrs	r4, r1, #32
70007dca:	00c0      	lsls	r0, r0, #3
70007dcc:	0006      	movs	r6, r0
70007dce:	0c0d      	lsrs	r5, r1, #16
70007dd0:	01f0      	lsls	r0, r6, #7
70007dd2:	0004      	movs	r4, r0
70007dd4:	0c0e      	lsrs	r6, r1, #16
70007dd6:	0008      	movs	r0, r1
70007dd8:	0003      	movs	r3, r0
70007dda:	280f      	cmp	r0, #15
70007ddc:	0070      	lsls	r0, r6, #1
70007dde:	0004      	movs	r4, r0
70007de0:	0010      	movs	r0, r2
70007de2:	0001      	movs	r1, r0
70007de4:	0000      	movs	r0, r0
70007de6:	0011      	movs	r1, r2
70007de8:	0001      	movs	r1, r0
70007dea:	0000      	movs	r0, r0
70007dec:	0012      	movs	r2, r2
70007dee:	0070      	lsls	r0, r6, #1
70007df0:	0004      	movs	r4, r0
70007df2:	0413      	lsls	r3, r2, #16
70007df4:	00ff      	lsls	r7, r7, #3
70007df6:	0000      	movs	r0, r0
70007df8:	0c14      	lsrs	r4, r2, #16
70007dfa:	000f      	movs	r7, r1
70007dfc:	0000      	movs	r0, r0
70007dfe:	0015      	movs	r5, r2
70007e00:	2000      	movs	r0, #0
70007e02:	000d      	movs	r5, r1
70007e04:	0016      	movs	r6, r2
70007e06:	1000      	asrs	r0, r0, #32
70007e08:	000c      	movs	r4, r1
70007e0a:	0017      	movs	r7, r2
70007e0c:	0200      	lsls	r0, r0, #8
70007e0e:	0009      	movs	r1, r1
70007e10:	0018      	movs	r0, r3
70007e12:	0100      	lsls	r0, r0, #4
70007e14:	0008      	movs	r0, r1
70007e16:	0019      	movs	r1, r3
70007e18:	0001      	movs	r1, r0
70007e1a:	0000      	movs	r0, r0
70007e1c:	041a      	lsls	r2, r3, #16
70007e1e:	0001      	movs	r1, r0
70007e20:	0000      	movs	r0, r0
70007e22:	041b      	lsls	r3, r3, #16
70007e24:	0001      	movs	r1, r0
70007e26:	0000      	movs	r0, r0
70007e28:	041c      	lsls	r4, r3, #16
70007e2a:	0001      	movs	r1, r0
70007e2c:	0000      	movs	r0, r0
70007e2e:	041d      	lsls	r5, r3, #16
70007e30:	0001      	movs	r1, r0
70007e32:	0000      	movs	r0, r0
70007e34:	041e      	lsls	r6, r3, #16
70007e36:	0001      	movs	r1, r0
70007e38:	0000      	movs	r0, r0
70007e3a:	081f      	lsrs	r7, r3, #32
70007e3c:	0002      	movs	r2, r0
70007e3e:	0001      	movs	r1, r0
70007e40:	0420      	lsls	r0, r4, #16
70007e42:	0001      	movs	r1, r0
70007e44:	0000      	movs	r0, r0
70007e46:	0821      	lsrs	r1, r4, #32
70007e48:	0002      	movs	r2, r0
70007e4a:	0001      	movs	r1, r0
70007e4c:	0422      	lsls	r2, r4, #16
70007e4e:	0001      	movs	r1, r0
70007e50:	0000      	movs	r0, r0
70007e52:	0423      	lsls	r3, r4, #16
70007e54:	0001      	movs	r1, r0
70007e56:	0000      	movs	r0, r0
70007e58:	0424      	lsls	r4, r4, #16
70007e5a:	0001      	movs	r1, r0
70007e5c:	0000      	movs	r0, r0
70007e5e:	0825      	lsrs	r5, r4, #32
70007e60:	000c      	movs	r4, r1
70007e62:	0002      	movs	r2, r0
70007e64:	0826      	lsrs	r6, r4, #32
70007e66:	0002      	movs	r2, r0
70007e68:	0001      	movs	r1, r0
70007e6a:	0827      	lsrs	r7, r4, #32
70007e6c:	0001      	movs	r1, r0
70007e6e:	0000      	movs	r0, r0
70007e70:	0c28      	lsrs	r0, r5, #16
70007e72:	0004      	movs	r4, r0
70007e74:	0002      	movs	r2, r0
70007e76:	0429      	lsls	r1, r5, #16
70007e78:	0001      	movs	r1, r0
70007e7a:	0000      	movs	r0, r0
70007e7c:	0c2a      	lsrs	r2, r5, #16
70007e7e:	0008      	movs	r0, r1
70007e80:	0003      	movs	r3, r0
70007e82:	082b      	lsrs	r3, r5, #32
70007e84:	1e00      	subs	r0, r0, #0
70007e86:	0009      	movs	r1, r1
70007e88:	082c      	lsrs	r4, r5, #32
70007e8a:	0100      	lsls	r0, r0, #4
70007e8c:	0008      	movs	r0, r1
70007e8e:	082d      	lsrs	r5, r5, #32
70007e90:	00ff      	lsls	r7, r7, #3
70007e92:	0000      	movs	r0, r0
70007e94:	002e      	movs	r6, r5
70007e96:	0020      	movs	r0, r4
70007e98:	0005      	movs	r5, r0
70007e9a:	002f      	movs	r7, r5
70007e9c:	0010      	movs	r0, r2
70007e9e:	0004      	movs	r4, r0
70007ea0:	0030      	movs	r0, r6
70007ea2:	000c      	movs	r4, r1
70007ea4:	0002      	movs	r2, r0
70007ea6:	0031      	movs	r1, r6
70007ea8:	0002      	movs	r2, r0
70007eaa:	0001      	movs	r1, r0
70007eac:	0032      	movs	r2, r6
70007eae:	0030      	movs	r0, r6
70007eb0:	0004      	movs	r4, r0
70007eb2:	0433      	lsls	r3, r6, #16
70007eb4:	0020      	movs	r0, r4
70007eb6:	0005      	movs	r5, r0
70007eb8:	0434      	lsls	r4, r6, #16
70007eba:	0002      	movs	r2, r0
70007ebc:	0001      	movs	r1, r0
70007ebe:	0435      	lsls	r5, r6, #16
70007ec0:	0020      	movs	r0, r4
70007ec2:	0005      	movs	r5, r0
70007ec4:	0436      	lsls	r6, r6, #16
70007ec6:	0002      	movs	r2, r0
70007ec8:	0001      	movs	r1, r0
70007eca:	0037      	movs	r7, r6
70007ecc:	0002      	movs	r2, r0
70007ece:	0001      	movs	r1, r0
70007ed0:	0038      	movs	r0, r7
70007ed2:	0001      	movs	r1, r0
70007ed4:	0000      	movs	r0, r0
70007ed6:	0039      	movs	r1, r7
70007ed8:	0030      	movs	r0, r6
70007eda:	0004      	movs	r4, r0
70007edc:	003a      	movs	r2, r7
70007ede:	0001      	movs	r1, r0
70007ee0:	0000      	movs	r0, r0
70007ee2:	1c3b      	adds	r3, r7, #0
70007ee4:	0100      	lsls	r0, r0, #4
70007ee6:	0008      	movs	r0, r1
70007ee8:	1c3c      	adds	r4, r7, #0
70007eea:	0030      	movs	r0, r6
70007eec:	0004      	movs	r4, r0
70007eee:	203d      	movs	r0, #61	@ 0x3d
70007ef0:	0200      	lsls	r0, r0, #8
70007ef2:	0009      	movs	r1, r1
70007ef4:	203e      	movs	r0, #62	@ 0x3e
70007ef6:	0040      	lsls	r0, r0, #1
70007ef8:	0006      	movs	r6, r0
70007efa:	243f      	movs	r4, #63	@ 0x3f
70007efc:	8000      	strh	r0, [r0, #0]
70007efe:	000f      	movs	r7, r1
70007f00:	2440      	movs	r4, #64	@ 0x40
70007f02:	3800      	subs	r0, #0
70007f04:	000b      	movs	r3, r1
70007f06:	2441      	movs	r4, #65	@ 0x41
70007f08:	0700      	lsls	r0, r0, #28
70007f0a:	0008      	movs	r0, r1
70007f0c:	2442      	movs	r4, #66	@ 0x42
70007f0e:	0010      	movs	r0, r2
70007f10:	0004      	movs	r4, r0
70007f12:	2c43      	cmp	r4, #67	@ 0x43
70007f14:	8000      	strh	r0, [r0, #0]
70007f16:	000f      	movs	r7, r1
70007f18:	2c44      	cmp	r4, #68	@ 0x44
70007f1a:	3000      	adds	r0, #0
70007f1c:	000c      	movs	r4, r1
70007f1e:	2c45      	cmp	r4, #69	@ 0x45
70007f20:	0200      	lsls	r0, r0, #8
70007f22:	0009      	movs	r1, r1
70007f24:	2c46      	cmp	r4, #70	@ 0x46
70007f26:	00c0      	lsls	r0, r0, #3
70007f28:	0006      	movs	r6, r0
70007f2a:	2c47      	cmp	r4, #71	@ 0x47
70007f2c:	0030      	movs	r0, r6
70007f2e:	0004      	movs	r4, r0
70007f30:	2c48      	cmp	r4, #72	@ 0x48
70007f32:	000c      	movs	r4, r1
70007f34:	0002      	movs	r2, r0
70007f36:	2c49      	cmp	r4, #73	@ 0x49
70007f38:	0003      	movs	r3, r0
70007f3a:	0000      	movs	r0, r0
70007f3c:	0000      	movs	r0, r0
70007f3e:	0000      	movs	r0, r0
70007f40:	0c00      	lsrs	r0, r0, #16
70007f42:	a070      	add	r0, pc, #448	@ (adr r0, 0x70008104)
70007f44:	0000      	movs	r0, r0
70007f46:	0000      	movs	r0, r0
70007f48:	0001      	movs	r1, r0
70007f4a:	0000      	movs	r0, r0
70007f4c:	0c10      	lsrs	r0, r2, #16
70007f4e:	a070      	add	r0, pc, #448	@ (adr r0, 0x70008110)
70007f50:	0000      	movs	r0, r0
70007f52:	0000      	movs	r0, r0
70007f54:	0002      	movs	r2, r0
70007f56:	0000      	movs	r0, r0
70007f58:	0c20      	lsrs	r0, r4, #16
70007f5a:	a070      	add	r0, pc, #448	@ (adr r0, 0x7000811c)
	...
70007f64:	d090      	beq.n	0x70007e88
70007f66:	0003      	movs	r3, r0
70007f68:	a120      	add	r1, pc, #128	@ (adr r1, 0x70007fec)
70007f6a:	0007      	movs	r7, r0
70007f6c:	71b0      	strb	r0, [r6, #6]
70007f6e:	000b      	movs	r3, r1
70007f70:	4240      	negs	r0, r0
70007f72:	000f      	movs	r7, r1
70007f74:	12d0      	asrs	r0, r2, #11
70007f76:	0013      	movs	r3, r2
70007f78:	e360      	b.n	0x7000863c
70007f7a:	0016      	movs	r6, r2
70007f7c:	b3f0      	cbz	r0, 0x70007ffc
70007f7e:	001a      	movs	r2, r3
70007f80:	7b80      	ldrb	r0, [r0, #14]
70007f82:	ffe1 4c10 	vcvt.f16.u16	d20, d0, #31
70007f86:	ffe5 1ca0 	vmull.u32	<illegal reg q8.5>, d21, d16
70007f8a:	ffe9 ed30 	vcvt.u16.f16	d30, d16, #23
70007f8e:	ffec bdc0 	vqrdmulh.s32	<illegal reg q13.5>, q14, d0[0]
70007f92:	fff0 8e50 	vcvt.f32.u32	q12, q0, #16
70007f96:	fff4 5ee0 	vqrdmlah.s<illegal width 64>	<illegal reg q10.5>, q10, d16[0]
70007f9a:	fff8 2f70 	vcvt.u32.f32	q9, q8, #8
70007f9e:	fffc 5aa0 	vtbl.8	d21, {d28-d30}, d16
70007fa2:	0032      	movs	r2, r6
70007fa4:	c6c0      	stmia	r6!, {r6, r7}
70007fa6:	002d      	movs	r5, r5
70007fa8:	b980      	cbnz	r0, 0x70007fcc
70007faa:	002a      	movs	r2, r5
70007fac:	b980      	cbnz	r0, 0x70007fd0
70007fae:	002a      	movs	r2, r5
70007fb0:	61a0      	str	r0, [r4, #24]
70007fb2:	001c      	movs	r4, r3
70007fb4:	7740      	strb	r0, [r0, #29]
70007fb6:	001b      	movs	r3, r3
70007fb8:	0000      	movs	r0, r0
70007fba:	0000      	movs	r0, r0
70007fbc:	0000      	movs	r0, r0
70007fbe:	0c0a      	lsrs	r2, r1, #16
70007fc0:	0e0d      	lsrs	r5, r1, #24
70007fc2:	0f0e      	lsrs	r6, r1, #28
70007fc4:	000f      	movs	r7, r1
70007fc6:	0000      	movs	r0, r0
70007fc8:	0101      	lsls	r1, r0, #4
70007fca:	0202      	lsls	r2, r0, #8
70007fcc:	0403      	lsls	r3, r0, #16
70007fce:	0705      	lsls	r5, r0, #28
70007fd0:	0808      	lsrs	r0, r1, #32
70007fd2:	0000      	movs	r0, r0
70007fd4:	0000      	movs	r0, r0
70007fd6:	0000      	movs	r0, r0
70007fd8:	0a08      	lsrs	r0, r1, #8
70007fda:	0d0c      	lsrs	r4, r1, #20
70007fdc:	0e0e      	lsrs	r6, r1, #24
70007fde:	0f0f      	lsrs	r7, r1, #28
70007fe0:	0000      	movs	r0, r0
70007fe2:	0100      	lsls	r0, r0, #4
70007fe4:	0201      	lsls	r1, r0, #8
70007fe6:	0302      	lsls	r2, r0, #12
70007fe8:	0403      	lsls	r3, r0, #16
70007fea:	0706      	lsls	r6, r0, #28
70007fec:	0008      	movs	r0, r1
70007fee:	0000      	movs	r0, r0
70007ff0:	0000      	movs	r0, r0
70007ff2:	0a00      	lsrs	r0, r0, #8
70007ff4:	0d0c      	lsrs	r4, r1, #20
70007ff6:	0e0e      	lsrs	r6, r1, #24
70007ff8:	0f0f      	lsrs	r7, r1, #28
70007ffa:	000f      	movs	r7, r1
70007ffc:	0000      	movs	r0, r0
70007ffe:	0101      	lsls	r1, r0, #4
